 PhysXCooking_64

 Timestamp is 6377b5cc (Fri Nov 18 16:41:48 2022)

 Preferred load address is 0000000180000000

 Start         Length     Name                   Class
 0001:00000000 000003c0H .text$di                CODE
 0001:000003c0 00043ff0H .text$mn                CODE
 0001:000443b0 00000040H .text$mn$00             CODE
 0001:000443f0 00000490H .text$x                 CODE
 0002:00000000 00000258H .idata$5                DATA
 0002:00000258 00000028H .00cfg                  DATA
 0002:00000280 00000008H .CRT$XCA                DATA
 0002:00000288 000001e0H .CRT$XCU                DATA
 0002:00000468 00000008H .CRT$XCZ                DATA
 0002:00000470 00000008H .CRT$XIA                DATA
 0002:00000478 00000018H .CRT$XIC                DATA
 0002:00000490 00000008H .CRT$XIZ                DATA
 0002:00000498 00000008H .CRT$XPA                DATA
 0002:000004a0 00000010H .CRT$XPX                DATA
 0002:000004b0 00000008H .CRT$XPXA               DATA
 0002:000004b8 00000008H .CRT$XPZ                DATA
 0002:000004c0 00000008H .CRT$XTA                DATA
 0002:000004c8 00000008H .CRT$XTZ                DATA
 0002:000004d0 00000000H .gehcont$y              DATA
 0002:000004d0 00000000H .gfids$y                DATA
 0002:000004d0 0000b7b0H .rdata                  DATA
 0002:0000bc80 00000000H .rdata$CastGuardVftablesA DATA
 0002:0000bc80 00000000H .rdata$CastGuardVftablesC DATA
 0002:0000bc80 0000043cH .rdata$r                DATA
 0002:0000c0bc 00000024H .rdata$voltmd           DATA
 0002:0000c0e0 00000430H .rdata$zzzdbg           DATA
 0002:0000c510 00000008H .rtc$IAA                DATA
 0002:0000c518 00000008H .rtc$IZZ                DATA
 0002:0000c520 00000008H .rtc$TAA                DATA
 0002:0000c528 00000008H .rtc$TZZ                DATA
 0002:0000c530 00003df0H .xdata                  DATA
 0002:00010320 00000084H .xdata$x                DATA
 0002:000103a4 00000040H .didat$2                DATA
 0002:000103e4 00000024H .didat$3                DATA
 0002:00010408 00000188H .didat$4                DATA
 0002:00010590 00000950H .didat$6                DATA
 0002:00010ee0 00000190H .didat$7                DATA
 0002:00011070 00001d00H .edata                  DATA
 0002:00012d70 00000014H .idata$2                DATA
 0002:00012d84 00000014H .idata$3                DATA
 0002:00012d98 00000258H .idata$4                DATA
 0002:00012ff0 0000057cH .idata$6                DATA
 0003:00000000 00000a30H .data                   DATA
 0003:00000a30 000005e8H .data$r                 DATA
 0003:00001018 000000f0H .data$rs                DATA
 0003:00001108 00000188H .didat$5                DATA
 0003:00001290 000015e0H .bss                    DATA
 0004:00000000 000032f4H .pdata                  DATA
 0005:00000000 0000230cH _RDATA                  DATA
 0006:00000000 000000a0H .rsrc$01                DATA
 0006:000000a0 000004b0H .rsrc$02                DATA

  Address         Publics by Value              Rva+Base               Lib:Object

 0000:00000000       __guard_longjmp_table      0000000000000000     <absolute>
 0000:00000000       __x64_code_ranges_to_entry_points_count 0000000000000000     <absolute>
 0000:00000000       __arm64x_redirection_metadata 0000000000000000     <absolute>
 0000:00000000       __guard_fids_count         0000000000000000     <absolute>
 0000:00000000       __guard_iat_table          0000000000000000     <absolute>
 0000:00000000       __arm64x_extra_rfe_table   0000000000000000     <absolute>
 0000:00000000       ___safe_se_handler_table   0000000000000000     <absolute>
 0000:00000000       __guard_iat_count          0000000000000000     <absolute>
 0000:00000000       __guard_longjmp_count      0000000000000000     <absolute>
 0000:00000000       __hybrid_code_map          0000000000000000     <absolute>
 0000:00000000       __dynamic_value_reloc_table 0000000000000000     <absolute>
 0000:00000000       __arm64x_extra_rfe_table_size 0000000000000000     <absolute>
 0000:00000000       ___safe_se_handler_count   0000000000000000     <absolute>
 0000:00000000       __hybrid_auxiliary_iat     0000000000000000     <absolute>
 0000:00000000       __x64_code_ranges_to_entry_points 0000000000000000     <absolute>
 0000:00000000       __hybrid_auxiliary_iat_copy 0000000000000000     <absolute>
 0000:00000000       __AbsoluteZero             0000000000000000     <absolute>
 0000:00000000       __guard_check_icall_a64n_fptr 0000000000000000     <absolute>
 0000:00000000       __guard_eh_cont_count      0000000000000000     <absolute>
 0000:00000000       __guard_fids_table         0000000000000000     <absolute>
 0000:00000000       __arm64x_redirection_metadata_count 0000000000000000     <absolute>
 0000:00000000       __enclave_config           0000000000000000     <absolute>
 0000:00000000       __guard_eh_cont_table      0000000000000000     <absolute>
 0000:00000000       __arm64x_native_entrypoint 0000000000000000     <absolute>
 0000:00000000       __hybrid_code_map_count    0000000000000000     <absolute>
 0000:00000100       __guard_flags              0000000000000100     <absolute>
 0000:00000000       __ImageBase                0000000180000000     <linker-defined>
 0001:000003c0       ??$?_UV?$ReflectionAllocator@VAdjTriangle@physx@@@shdfnd@physx@@@UserAllocated@shdfnd@physx@@SAPEAX_KV?$ReflectionAllocator@VAdjTriangle@physx@@@12@PEBDH@Z 00000001800013c0 f i Adjacencies.obj
 0001:00000460       ??0AdjacenciesBuilder@physx@@QEAA@XZ 0000000180001460 f   Adjacencies.obj
 0001:00000470       ??4Allocator@shdfnd@physx@@QEAAAEAV012@$$QEAV012@@Z 0000000180001470 f i Adjacencies.obj
 0001:00000470       ??0Box@Gu@physx@@QEAA@XZ   0000000180001470 f i ConvexHullUtils.obj
 0001:00000470       ?getAABB@AABBTreeBuildNode@Gu@physx@@QEBAAEBVPxBounds3@3@XZ 0000000180001470 f i BVHStructureBuilder.obj
 0001:00000470       ??4MutexImpl@shdfnd@physx@@QEAAAEAV012@AEBV012@@Z 0000000180001470 f i Adjacencies.obj
 0001:00000470       ??0BigConvexData@physx@@QEAA@W4PxEMPTY@1@@Z 0000000180001470 f i BigConvexDataBuilder.obj
 0001:00000470       ??0Allocator@shdfnd@physx@@QEAA@PEBD@Z 0000000180001470 f i Adjacencies.obj
 0001:00000470       ??4PxFoundation@physx@@QEAAAEAV01@AEBV01@@Z 0000000180001470 f i Adjacencies.obj
 0001:00000470       ??$forward@_K@std@@YA$$QEA_KAEA_K@Z 0000000180001470 f i libvcruntime:undname.obj
 0001:00000470       ??0AABBTreeBuildNode@Gu@physx@@QEAA@XZ 0000000180001470 f i BVHStructureBuilder.obj
 0001:00000470       ??4Allocator@shdfnd@physx@@QEAAAEAV012@AEBV012@@Z 0000000180001470 f i Adjacencies.obj
 0001:00000470       ?getPaddedBounds@HeightFieldData@Gu@physx@@QEBAAEBVCenterExtentsPadded@23@XZ 0000000180001470 f i Cooking.obj
 0001:00000470       ??0HeightFieldData@Gu@physx@@QEAA@W4PxEMPTY@2@@Z 0000000180001470 f i Cooking.obj
 0001:00000480       ??0PxFoundation@physx@@QEAA@AEBV01@@Z 0000000180001480 f i Adjacencies.obj
 0001:00000480       ??0PxFoundation@physx@@QEAA@XZ 0000000180001480 f i Adjacencies.obj
 0001:00000490       ??1Adjacencies@physx@@QEAA@XZ 0000000180001490 f   Adjacencies.obj
 0001:00000500       ??1AdjacenciesBuilder@physx@@QEAA@XZ 0000000180001500 f   Adjacencies.obj
 0001:00000510       ??1PxFoundation@physx@@MEAA@XZ 0000000180001510 f i Adjacencies.obj
 0001:00000520       ??_EPxFoundation@physx@@MEAAPEAXI@Z 0000000180001520 f i Adjacencies.obj
 0001:000005b0       ??1HeightFieldData@Gu@physx@@QEAA@XZ 00000001800015b0 f i Cooking.obj
 0001:000005b0       ??_FAllocator@shdfnd@physx@@QEAAXXZ 00000001800015b0 f i Adjacencies.obj
 0001:000005b0       ??1AABBTreeBuildNode@Gu@physx@@QEAA@XZ 00000001800015b0 f i BVHStructureBuilder.obj
 0001:000005b0       ??1BigConvexDataBuilder@physx@@QEAA@XZ 00000001800015b0 f i BigConvexDataBuilder.obj
 0001:000005b0       ?onMeshIndexFormatChange@TriangleMeshBuilder@physx@@UEAAXXZ 00000001800015b0 f i TriangleMeshBuilder.obj
 0001:000005b0       _guard_check_icall_nop     00000001800015b0 f i LIBCMT:guard_support.obj
 0001:000005b0       ??1Box@Gu@physx@@QEAA@XZ   00000001800015b0 f i ConvexHullUtils.obj
 0001:000005c0       ?ComputeNbBoundaryEdges@Adjacencies@physx@@QEBAIXZ 00000001800015c0 f   Adjacencies.obj
 0001:000008a0       ?GetNbHits@RadixSort@Cm@physx@@QEBAIXZ 00000001800018a0 f i Adjacencies.obj
 0001:000008b0       ?GetNbTotalCalls@RadixSort@Cm@physx@@QEBAIXZ 00000001800018b0 f i Adjacencies.obj
 0001:000008c0       ?getErrorCallback@Foundation@shdfnd@physx@@UEAAAEAVPxErrorCallback@3@XZ 00000001800018c0 f i Adjacencies.obj
 0001:000008c0       ?GetRanks@RadixSort@Cm@physx@@QEBAPEBIXZ 00000001800018c0 f i Adjacencies.obj
 0001:000008d0       ?getPos@AABBTreeBuildNode@Gu@physx@@QEBAPEBV123@XZ 00000001800018d0 f i BVHStructureBuilder.obj
 0001:000008d0       ?GetRecyclable@RadixSort@Cm@physx@@QEBAPEAIXZ 00000001800018d0 f i Adjacencies.obj
 0001:000008d0       ?GetValencies@BigConvexData@physx@@QEBAPEBUValency@Gu@2@XZ 00000001800018d0 f i BigConvexDataBuilder.obj
 0001:000008e0       ?Init@AdjacenciesBuilder@physx@@QEAA_NAEBUADJACENCIESCREATE@2@@Z 00000001800018e0 f   Adjacencies.obj
 0001:00000e90       ?getAllocator@Foundation@shdfnd@physx@@QEAAAEAVPxAllocatorCallback@3@XZ 0000000180001e90 f i Adjacencies.obj
 0001:00000ea0       ?getAllocatorCallback@Foundation@shdfnd@physx@@UEAAAEAVPxAllocatorCallback@3@XZ 0000000180001ea0 f i Adjacencies.obj
 0001:00000eb0       ?getErrorLevel@Foundation@shdfnd@physx@@UEBA?AW4Enum@PxErrorCode@3@XZ 0000000180001eb0 f i Adjacencies.obj
 0001:00000ec0       ?getInternalErrorCallback@Foundation@shdfnd@physx@@QEAAAEAVPxErrorCallback@3@XZ 0000000180001ec0 f i Adjacencies.obj
 0001:00000ed0       ?getNamedAllocMap@Foundation@shdfnd@physx@@QEAAAEAV?$HashMap@PEBVNamedAllocator@shdfnd@physx@@PEBDU?$Hash@PEBVNamedAllocator@shdfnd@physx@@@23@VNonTrackingAllocator@23@@23@XZ 0000000180001ed0 f i Adjacencies.obj
 0001:00000ee0       ?getNamedAllocMutex@Foundation@shdfnd@physx@@QEAAAEAV?$MutexT@VAllocator@shdfnd@physx@@@23@XZ 0000000180001ee0 f i Adjacencies.obj
 0001:00000ef0       ?getReportAllocationNames@Foundation@shdfnd@physx@@UEBA_NXZ 0000000180001ef0 f i Adjacencies.obj
 0001:00000f00       ?getTempAllocFreeTable@Foundation@shdfnd@physx@@QEAAAEAV?$Array@PEATTempAllocatorChunk@shdfnd@physx@@VAllocator@23@@23@XZ 0000000180001f00 f i Adjacencies.obj
 0001:00000f10       ?getTempAllocMutex@Foundation@shdfnd@physx@@QEAAAEAV?$MutexT@VAllocator@shdfnd@physx@@@23@XZ 0000000180001f10 f i Adjacencies.obj
 0001:00000f20       ?invalidateRanks@RadixSort@Cm@physx@@QEAAXXZ 0000000180001f20 f i Adjacencies.obj
 0001:00000f30       ?setErrorLevel@Foundation@shdfnd@physx@@UEAAXW4Enum@PxErrorCode@3@@Z 0000000180001f30 f i Adjacencies.obj
 0001:00000f40       ?setReportAllocationNames@Foundation@shdfnd@physx@@UEAAX_N@Z 0000000180001f40 f i Adjacencies.obj
 0001:00000f50       ??0DebugText@Cm@physx@@QEAA@$$QEAU012@@Z 0000000180001f50 f i Cooking.obj
 0001:00000f50       ??0DebugText@Cm@physx@@QEAA@AEBU012@@Z 0000000180001f50 f i Cooking.obj
 0001:00001030       ??0HeightFieldData@Gu@physx@@QEAA@$$QEAU012@@Z 0000000180002030 f i Cooking.obj
 0001:00001030       ??0HeightFieldData@Gu@physx@@QEAA@AEBU012@@Z 0000000180002030 f i Cooking.obj
 0001:00001030       ??4HeightFieldData@Gu@physx@@QEAAAEAU012@$$QEAU012@@Z 0000000180002030 f i Cooking.obj
 0001:00001030       ??4HeightFieldData@Gu@physx@@QEAAAEAU012@AEBU012@@Z 0000000180002030 f i Cooking.obj
 0001:00001090       ??0HeightFieldData@Gu@physx@@QEAA@XZ 0000000180002090 f i Cooking.obj
 0001:000010a0       ??0RenderOutput@Cm@physx@@QEAA@AEAVRenderBuffer@12@@Z 00000001800020a0 f i Cooking.obj
 0001:000010f0       ??0RenderOutput@Cm@physx@@QEAA@AEBV012@@Z 00000001800020f0 f i Cooking.obj
 0001:00001190       ??1PxHeightField@physx@@MEAA@XZ 0000000180002190 f i Cooking.obj
 0001:00001190       ??1PxConvexMesh@physx@@MEAA@XZ 0000000180002190 f i Cooking.obj
 0001:000011a0       ??4DebugText@Cm@physx@@QEAAAEAU012@$$QEAU012@@Z 00000001800021a0 f i Cooking.obj
 0001:000011a0       ??4DebugText@Cm@physx@@QEAAAEAU012@AEBU012@@Z 00000001800021a0 f i Cooking.obj
 0001:000012d0       ??4FPUGuard@shdfnd@physx@@QEAAAEAV012@AEBV012@@Z 00000001800022d0 f i Cooking.obj
 0001:000012f0       ??_ECooking@physx@@UEAAPEAXI@Z 00000001800022f0 f i Cooking.obj
 0001:000012f0       ??_GCooking@physx@@UEAAPEAXI@Z 00000001800022f0 f i Cooking.obj
 0001:00001340       ??_EPxBase@physx@@MEAAPEAXI@Z 0000000180002340 f i Cooking.obj
 0001:00001340       ??_GPxBase@physx@@MEAAPEAXI@Z 0000000180002340 f i Cooking.obj
 0001:00001370       ??_EPxCooking@physx@@MEAAPEAXI@Z 0000000180002370 f i Cooking.obj
 0001:00001370       ??_GPxCooking@physx@@MEAAPEAXI@Z 0000000180002370 f i Cooking.obj
 0001:000013a0       ?allocate@?$Array@UPxDebugLine@physx@@V?$ReflectionAllocator@UPxDebugLine@physx@@@shdfnd@2@@shdfnd@physx@@IEAAPEAUPxDebugLine@3@I@Z 00000001800023a0 f i Cooking.obj
 0001:00001440       ?computeHullPolygons@Cooking@physx@@UEBA_NAEBVPxSimpleTriangleMesh@2@AEAVPxAllocatorCallback@2@AEAIAEAPEAVPxVec3@2@2AEAPEAI2AEAPEAUPxHullPolygon@2@@Z 0000000180002440 f   Cooking.obj
 0001:00001620       ?cookBVHStructure@Cooking@physx@@UEBA_NAEBVPxBVHStructureDesc@2@AEAVPxOutputStream@2@@Z 0000000180002620 f   Cooking.obj
 0001:000016d0       ?cookConvexMesh@Cooking@physx@@UEBA_NAEBVPxConvexMeshDesc@2@AEAVPxOutputStream@2@PEAW4Enum@PxConvexMeshCookingResult@2@@Z 00000001800026d0 f   Cooking.obj
 0001:000018b0       ?cookConvexMeshInternal@Cooking@physx@@AEBA_NAEBVPxConvexMeshDesc@2@AEAVConvexMeshBuilder@2@PEAVConvexHullLib@2@PEAW4Enum@PxConvexMeshCookingResult@2@@Z 00000001800028b0 f   Cooking.obj
 0001:00001b20       ?cookHeightField@Cooking@physx@@UEBA_NAEBVPxHeightFieldDesc@2@AEAVPxOutputStream@2@@Z 0000000180002b20 f   Cooking.obj
 0001:00001bf0       ?cookTriangleMesh@Cooking@physx@@UEBA_NAEBVPxTriangleMeshDesc@2@AEAVPxOutputStream@2@PEAW4Enum@PxTriangleMeshCookingResult@2@@Z 0000000180002bf0 f   Cooking.obj
 0001:00001d30       ?copy@?$Array@UPxDebugLine@physx@@V?$ReflectionAllocator@UPxDebugLine@physx@@@shdfnd@2@@shdfnd@physx@@KAXPEAUPxDebugLine@3@0PEBU43@@Z 0000000180002d30 f i Cooking.obj
 0001:00001ee0       ?createBVHStructure@Cooking@physx@@UEBAPEAVPxBVHStructure@2@AEBVPxBVHStructureDesc@2@AEAVPxPhysicsInsertionCallback@2@@Z 0000000180002ee0 f   Cooking.obj
 0001:00001f90       ?createConvexMesh@Cooking@physx@@UEBAPEAVPxConvexMesh@2@AEBVPxConvexMeshDesc@2@AEAVPxPhysicsInsertionCallback@2@PEAW4Enum@PxConvexMeshCookingResult@2@@Z 0000000180002f90 f   Cooking.obj
 0001:00002190       ?createHeightField@Cooking@physx@@UEBAPEAVPxHeightField@2@AEBVPxHeightFieldDesc@2@AEAVPxPhysicsInsertionCallback@2@@Z 0000000180003190 f   Cooking.obj
 0001:000022f0       ?createTriangleMesh@Cooking@physx@@UEBAPEAVPxTriangleMesh@2@AEBVPxTriangleMeshDesc@2@AEAVPxPhysicsInsertionCallback@2@PEAW4Enum@PxTriangleMeshCookingResult@2@@Z 00000001800032f0 f   Cooking.obj
 0001:00002440       ?getConcreteTypeName@PxConvexMesh@physx@@UEBAPEBDXZ 0000000180003440 f i Cooking.obj
 0001:00002450       ?getConcreteTypeName@PxHeightField@physx@@UEBAPEBDXZ 0000000180003450 f i Cooking.obj
 0001:00002460       ?getConvexEdgeThreshold@HeightField@Gu@physx@@UEBAMXZ 0000000180003460 f i Cooking.obj
 0001:00002470       ?getFlags@HeightField@Gu@physx@@UEBA?AV?$PxFlags@W4Enum@PxHeightFieldFlag@physx@@G@3@XZ 0000000180003470 f i Cooking.obj
 0001:00002480       ?getFormat@HeightField@Gu@physx@@UEBA?AW4Enum@PxHeightFieldFormat@3@XZ 0000000180003480 f i Cooking.obj
 0001:00002490       ?getHeight@HeightField@Gu@physx@@UEBAMMM@Z 0000000180003490 f i Cooking.obj
 0001:000024d0       ?getHeightInternal2@HeightField@Gu@physx@@QEBAMIMM@Z 00000001800034d0 f i Cooking.obj
 0001:00002640       ?getIndexBuffer@ConvexMesh@Gu@physx@@UEBAPEBEXZ 0000000180003640 f i Cooking.obj
 0001:00002680       ?getNbColumns@HeightField@Gu@physx@@UEBAIXZ 0000000180003680 f i Cooking.obj
 0001:00002690       ?getNbPolygons@ConvexMesh@Gu@physx@@UEBAIXZ 0000000180003690 f i Cooking.obj
 0001:000026a0       ?getNbRows@HeightField@Gu@physx@@UEBAIXZ 00000001800036a0 f i Cooking.obj
 0001:000026b0       ?getNbVertices@ConvexMesh@Gu@physx@@UEBAIXZ 00000001800036b0 f i Cooking.obj
 0001:000026c0       ?getParams@Cooking@physx@@UEBAAEBUPxCookingParams@2@XZ 00000001800036c0 f   Cooking.obj
 0001:000026c0       ?getDenormalizeScale@QuantizerImpl@@UEBAAEBVPxVec3@physx@@XZ 00000001800036c0 f   Quantizer.obj
 0001:000026d0       ?getSample@HeightField@Gu@physx@@UEBAAEBUPxHeightFieldSample@3@II@Z 00000001800036d0 f i Cooking.obj
 0001:000026e0       ?getSampleStride@HeightField@Gu@physx@@UEBAIXZ 00000001800036e0 f i Cooking.obj
 0001:000026f0       ?getTimestamp@HeightField@Gu@physx@@UEBAIXZ 00000001800036f0 f i Cooking.obj
 0001:00002700       ?getTriangleMaterialIndex@HeightField@Gu@physx@@UEBAGI@Z 0000000180003700 f i Cooking.obj
 0001:00002730       ?getTriangleNormal@HeightField@Gu@physx@@UEBA?AVPxVec3@3@I@Z 0000000180003730 f i Cooking.obj
 0001:00002830       ?getVertices@ConvexMesh@Gu@physx@@UEBAPEBVPxVec3@3@XZ 0000000180003830 f i Cooking.obj
 0001:00002850       ?isKindOf@PxBase@physx@@MEBA_NPEBD@Z 0000000180003850 f i Cooking.obj
 0001:00002880       ?isKindOf@PxConvexMesh@physx@@MEBA_NPEBD@Z 0000000180003880 f i Cooking.obj
 0001:000028d0       ?isKindOf@PxHeightField@physx@@MEBA_NPEBD@Z 00000001800038d0 f i Cooking.obj
 0001:00002920       ?isReleasable@PxBase@physx@@UEBA_NXZ 0000000180003920 f i Cooking.obj
 0001:00002930       ?outputSegment@RenderOutput@Cm@physx@@QEAAXAEBVPxVec3@3@0@Z 0000000180003930 f i Cooking.obj
 0001:000029f0       ?platformMismatch@Cooking@physx@@UEBA_NXZ 00000001800039f0 f   Cooking.obj
 0001:00002a00       ?preExportDataReset@HeightField@Gu@physx@@QEAAXXZ 0000000180003a00 f i Cooking.obj
 0001:00002a00       ?preExportDataReset@ConvexMesh@Gu@physx@@QEAAXXZ 0000000180003a00 f i Cooking.obj
 0001:00002a10       ?recreate@?$Array@UPxDebugLine@physx@@V?$ReflectionAllocator@UPxDebugLine@physx@@@shdfnd@2@@shdfnd@physx@@IEAAXI@Z 0000000180003a10 f i Cooking.obj
 0001:00002aa0       ?release@Cooking@physx@@UEAAXXZ 0000000180003aa0 f   Cooking.obj
 0001:00002ac0       ?reserveSegments@RenderOutput@Cm@physx@@QEAAPEAUPxDebugLine@3@I@Z 0000000180003ac0 f i Cooking.obj
 0001:00002b30       ?setParams@Cooking@physx@@UEAAXAEBUPxCookingParams@2@@Z 0000000180003b30 f   Cooking.obj
 0001:00002b90       ?validateConvexMesh@Cooking@physx@@UEBA_NAEBVPxConvexMeshDesc@2@@Z 0000000180003b90 f   Cooking.obj
 0001:00002bf0       ?validateTriangleMesh@Cooking@physx@@UEBA_NAEBVPxTriangleMeshDesc@2@@Z 0000000180003bf0 f   Cooking.obj
 0001:00002d00       PxCreateCooking            0000000180003d00 f   Cooking.obj
 0001:00002df0       ??0ReducedVertexCloud@physx@@QEAA@PEBVPxVec3@1@I@Z 0000000180003df0 f   CookingUtils.obj
 0001:00002e10       ??1ReducedVertexCloud@physx@@QEAA@XZ 0000000180003e10 f   CookingUtils.obj
 0001:00002e20       ?Clean@ReducedVertexCloud@physx@@QEAAAEAV12@XZ 0000000180003e20 f   CookingUtils.obj
 0001:00002e90       ?Reduce@ReducedVertexCloud@physx@@QEAA_NPEAUREDUCEDCLOUD@2@@Z 0000000180003e90 f   CookingUtils.obj
 0001:000031b0       ??$?_UI@@YAPEAX_KV?$ReflectionAllocator@I@shdfnd@physx@@PEBDH@Z 00000001800041b0 f i EdgeList.obj
 0001:00003250       ??0EdgeListBuilder@Gu@physx@@QEAA@XZ 0000000180004250 f   EdgeList.obj
 0001:00003270       ??1EdgeList@Gu@physx@@QEAA@XZ 0000000180004270 f   EdgeList.obj
 0001:00003310       ??1EdgeListBuilder@Gu@physx@@QEAA@XZ 0000000180004310 f   EdgeList.obj
 0001:00003320       ?computeActiveEdges@EdgeListBuilder@Gu@physx@@AEAA_NIPEBIPEBGPEBVPxVec3@3@M@Z 0000000180004320 f   EdgeList.obj
 0001:00004960       ?createEdgesToFaces@EdgeListBuilder@Gu@physx@@AEAA_NIPEBIPEBG@Z 0000000180005960 f   EdgeList.obj
 0001:00004bc0       ?createFacesToEdges@EdgeListBuilder@Gu@physx@@AEAA_NIPEBIPEBG@Z 0000000180005bc0 f   EdgeList.obj
 0001:00005030       ?init@EdgeListBuilder@Gu@physx@@QEAA_NAEBUEDGELISTCREATE@23@@Z 0000000180006030 f   EdgeList.obj
 0001:00005160       ??0MeshCleaner@physx@@QEAA@IPEBVPxVec3@1@IPEBIM@Z 0000000180006160 f   MeshCleaner.obj
 0001:00005b00       ??1MeshCleaner@physx@@QEAA@XZ 0000000180006b00 f   MeshCleaner.obj
 0001:00005b90       ??$kmeans_cluster@VPxVec3@physx@@M@@YAIPEBVPxVec3@physx@@IIPEAV01@PEAIMM@Z 0000000180006b90 f i Quantizer.obj
 0001:000064b0       ??_EQuantizer@physx@@MEAAPEAXI@Z 00000001800074b0 f i Quantizer.obj
 0001:000064b0       ??_GQuantizer@physx@@MEAAPEAXI@Z 00000001800074b0 f i Quantizer.obj
 0001:000064e0       ??_GQuantizerImpl@@EEAAPEAXI@Z 00000001800074e0 f i Quantizer.obj
 0001:000064e0       ??_EQuantizerImpl@@EEAAPEAXI@Z 00000001800074e0 f i Quantizer.obj
 0001:000065b0       ?createQuantizer@physx@@YAPEAVQuantizer@1@XZ 00000001800075b0 f   Quantizer.obj
 0001:00006660       ?getDenormalizeCenter@QuantizerImpl@@UEBAAEBVPxVec3@physx@@XZ 0000000180007660 f i Quantizer.obj
 0001:00006670       ?growAndPushBack@?$Array@VPxVec3@physx@@V?$ReflectionAllocator@VPxVec3@physx@@@shdfnd@2@@shdfnd@physx@@IEAAAEAVPxVec3@3@AEBV43@@Z 0000000180007670 f i Quantizer.obj
 0001:00006840       ?kmeansQuantize3D@QuantizerImpl@@UEAAPEBVPxVec3@physx@@IPEBV23@I_NIAEAI@Z 0000000180007840 f i Quantizer.obj
 0001:00006aa0       ?normalizeInput@QuantizerImpl@@AEAAXIPEBVPxVec3@physx@@I@Z 0000000180007aa0 f i Quantizer.obj
 0001:00006ed0       ?release@QuantizerImpl@@UEAAXXZ 0000000180007ed0 f i Quantizer.obj
 0001:00006ef0       ??$copy@V?$ReflectionAllocator@USlab@NodeAllocator@Gu@physx@@@shdfnd@physx@@@?$Array@USlab@NodeAllocator@Gu@physx@@V?$ReflectionAllocator@USlab@NodeAllocator@Gu@physx@@@shdfnd@4@@shdfnd@physx@@IEAAXAEBV012@@Z 0000000180007ef0 f i BVHStructureBuilder.obj
 0001:00006f70       ??4AABBTreeBuildNode@Gu@physx@@QEAAAEAV012@AEBV012@@Z 0000000180007f70 f i BVHStructureBuilder.obj
 0001:00006f70       ??0AABBTreeBuildNode@Gu@physx@@QEAA@AEBV012@@Z 0000000180007f70 f i BVHStructureBuilder.obj
 0001:00006fb0       ??0AABBTreeBuildParams@Gu@physx@@QEAA@IIPEBVPxBounds3@2@@Z 0000000180007fb0 f i BVHStructureBuilder.obj
 0001:00006fd0       ??0BVHStructureBuilder@physx@@QEAA@XZ 0000000180007fd0 f   BVHStructureBuilder.obj
 0001:00006ff0       ??0BuildStats@Gu@physx@@QEAA@XZ 0000000180007ff0 f i BVHStructureBuilder.obj
 0001:00007000       ??0NodeAllocator@Gu@physx@@QEAA@AEBV012@@Z 0000000180008000 f i BVHStructureBuilder.obj
 0001:00007040       ??1AABBTreeBuildParams@Gu@physx@@QEAA@XZ 0000000180008040 f i BVHStructureBuilder.obj
 0001:00007040       ?reset@AABBTreeBuildParams@Gu@physx@@QEAAXXZ 0000000180008040 f i BVHStructureBuilder.obj
 0001:000070a0       ??1BVHStructureBuilder@physx@@QEAA@XZ 00000001800080a0 f   BVHStructureBuilder.obj
 0001:00007120       ??4AABBTreeBuildParams@Gu@physx@@QEAAAEAV012@AEBV012@@Z 0000000180008120 f i BVHStructureBuilder.obj
 0001:00007140       ??4BuildStats@Gu@physx@@QEAAAEAU012@$$QEAU012@@Z 0000000180008140 f i BVHStructureBuilder.obj
 0001:00007150       ??4BuildStats@Gu@physx@@QEAAAEAU012@AEBU012@@Z 0000000180008150 f i BVHStructureBuilder.obj
 0001:00007160       ??4NodeAllocator@Gu@physx@@QEAAAEAV012@AEBV012@@Z 0000000180008160 f i BVHStructureBuilder.obj
 0001:00007210       ??_FAABBTreeBuildParams@Gu@physx@@QEAAXXZ 0000000180008210 f i BVHStructureBuilder.obj
 0001:00007230       ??_V@YAXPEAX_K@Z           0000000180008230 f i LIBCMT:delete_array_size.obj
 0001:00007230       ?__global_delete@@YAXPEAX_K@Z 0000000180008230 f i BVHStructureBuilder.obj
 0001:00007240       ?allocate@?$Array@USlab@NodeAllocator@Gu@physx@@V?$ReflectionAllocator@USlab@NodeAllocator@Gu@physx@@@shdfnd@4@@shdfnd@physx@@IEAAPEAUSlab@NodeAllocator@Gu@3@I@Z 0000000180008240 f i BVHStructureBuilder.obj
 0001:000072e0       ?getCount@BuildStats@Gu@physx@@QEBAIXZ 00000001800082e0 f i BVHStructureBuilder.obj
 0001:000072f0       ?getNbRuntimePrimitives@AABBTreeBuildNode@Gu@physx@@QEBAIXZ 00000001800082f0 f i BVHStructureBuilder.obj
 0001:000072f0       ?getNbPrimitives@AABBTreeBuildNode@Gu@physx@@QEBAIXZ 00000001800082f0 f i BVHStructureBuilder.obj
 0001:00007300       ?getNeg@AABBTreeBuildNode@Gu@physx@@QEBAPEBV123@XZ 0000000180008300 f i BVHStructureBuilder.obj
 0001:00007320       ?getPrimitives@AABBTreeBuildNode@Gu@physx@@QEBAPEBIPEBI@Z 0000000180008320 f i BVHStructureBuilder.obj
 0001:00007320       ?getPrimitives@AABBTreeBuildNode@Gu@physx@@QEAAPEAIPEAI@Z 0000000180008320 f i BVHStructureBuilder.obj
 0001:00007330       ?increaseCount@BuildStats@Gu@physx@@QEAAXI@Z 0000000180008330 f i BVHStructureBuilder.obj
 0001:00007340       ?isLeaf@AABBTreeBuildNode@Gu@physx@@QEBA_NXZ 0000000180008340 f i BVHStructureBuilder.obj
 0001:00007350       ?loadFromDesc@BVHStructureBuilder@physx@@QEAA_NAEBVPxBVHStructureDesc@2@@Z 0000000180008350 f   BVHStructureBuilder.obj
 0001:00007820       ?moveData@BVHStructureBuilder@physx@@QEAAXAEAUBVHStructureData@Gu@2@@Z 0000000180008820 f   BVHStructureBuilder.obj
 0001:00007860       ?recreate@?$Array@USlab@NodeAllocator@Gu@physx@@V?$ReflectionAllocator@USlab@NodeAllocator@Gu@physx@@@shdfnd@4@@shdfnd@physx@@IEAAXI@Z 0000000180008860 f i BVHStructureBuilder.obj
 0001:00007910       ?reset@BuildStats@Gu@physx@@QEAAXXZ 0000000180008910 f i BVHStructureBuilder.obj
 0001:00007920       ?save@BVHStructureBuilder@physx@@QEBA_NAEAVPxOutputStream@2@_N@Z 0000000180008920 f   BVHStructureBuilder.obj
 0001:00007aa0       ?setCount@BuildStats@Gu@physx@@QEAAXI@Z 0000000180008aa0 f i BVHStructureBuilder.obj
 0001:00007ab0       ?setNbRunTimePrimitives@AABBTreeBuildNode@Gu@physx@@QEAAXI@Z 0000000180008ab0 f i BVHStructureBuilder.obj
 0001:00007ac0       ?saveHeightField@physx@@YA_NAEBVHeightField@Gu@1@AEAVPxOutputStream@1@_N@Z 0000000180008ac0 f   HeightFieldCooking.obj
 0001:00007d00       ??$quickSelectFirstK@UBoundsLTE@physx@@@quickSelect@physx@@YAXPEIAIIIIAEBUBoundsLTE@1@@Z 0000000180008d00 f i RTreeCooking.obj
 0001:00007ee0       ??$smallSort@I$$CBUSortBoundsPredicate@physx@@@internal@shdfnd@physx@@YAXPEAIHHAEBUSortBoundsPredicate@2@@Z 0000000180008ee0 f i RTreeCooking.obj
 0001:000081b0       ??$sort@IU?$Less@I@shdfnd@physx@@V?$ReflectionAllocator@I@23@@shdfnd@physx@@YAXPEAIIAEBU?$Less@I@01@AEBV?$ReflectionAllocator@I@01@I@Z 00000001800091b0 f i RTreeCooking.obj
 0001:00008600       ??$sort@IUSortBoundsPredicate@physx@@V?$ReflectionAllocator@I@shdfnd@2@@shdfnd@physx@@YAXPEAIIAEBUSortBoundsPredicate@1@AEBV?$ReflectionAllocator@I@01@I@Z 0000000180009600 f i RTreeCooking.obj
 0001:00008b00       ?allocate@?$Array@UInterval@physx@@V?$InlineAllocator@$0CAAA@V?$ReflectionAllocator@UInterval@physx@@@shdfnd@physx@@@shdfnd@2@@shdfnd@physx@@IEAAPEAUInterval@3@I@Z 0000000180009b00 f i RTreeCooking.obj
 0001:00008bc0       ?allocate@?$Array@UPxBounds3V@physx@@V?$ReflectionAllocator@UPxBounds3V@physx@@@shdfnd@2@@shdfnd@physx@@IEAAPEAUPxBounds3V@3@I@Z 0000000180009bc0 f i RTreeCooking.obj
 0001:00008c60       ?allocate@?$Array@URTreeNodeNQ@physx@@V?$ReflectionAllocator@URTreeNodeNQ@physx@@@shdfnd@2@@shdfnd@physx@@IEAAPEAURTreeNodeNQ@3@I@Z 0000000180009c60 f i RTreeCooking.obj
 0001:00008d00       ?allocate@?$Array@URTreeNodeQ@Gu@physx@@V?$ReflectionAllocator@URTreeNodeQ@Gu@physx@@@shdfnd@3@@shdfnd@physx@@IEAAPEAURTreeNodeQ@Gu@3@I@Z 0000000180009d00 f i RTreeCooking.obj
 0001:00008da0       ?allocate@?$Array@VPxVec3@physx@@V?$ReflectionAllocator@VPxVec3@physx@@@shdfnd@2@@shdfnd@physx@@IEAAPEAVPxVec3@3@I@Z 0000000180009da0 f i RTreeCooking.obj
 0001:00008e40       ?allocate@?$ReflectionAllocator@I@shdfnd@physx@@QEAAPEAX_KPEBDH@Z 0000000180009e40 f i RTreeCooking.obj
 0001:00009b10       ?buildFromTriangles@RTreeCooker@physx@@SAXAEAURTree@Gu@2@PEBVPxVec3@2@IPEBGPEBIIAEAV?$Array@IV?$ReflectionAllocator@I@shdfnd@physx@@@shdfnd@2@PEAURemapCallback@12@MW4Enum@PxMeshCookingHint@2@@Z 000000018000ab10 f   RTreeCooking.obj
 0001:00009db0       ?copy@?$Array@URTreeNodeNQ@physx@@V?$ReflectionAllocator@URTreeNodeNQ@physx@@@shdfnd@2@@shdfnd@physx@@KAXPEAURTreeNodeNQ@3@0PEBU43@@Z 000000018000adb0 f i RTreeCooking.obj
 0001:00009f70       ?copy@?$Array@VPxVec3@physx@@V?$ReflectionAllocator@VPxVec3@physx@@@shdfnd@2@@shdfnd@physx@@KAXPEAVPxVec3@3@0PEBV43@@Z 000000018000af70 f i RTreeCooking.obj
 0001:0000a040       ?growAndPushBack@?$Array@IV?$ReflectionAllocator@I@shdfnd@physx@@@shdfnd@physx@@IEAAAEAIAEBI@Z 000000018000b040 f i RTreeCooking.obj
 0001:0000a110       ?growAndPushBack@?$Array@UInterval@physx@@V?$InlineAllocator@$0CAAA@V?$ReflectionAllocator@UInterval@physx@@@shdfnd@physx@@@shdfnd@2@@shdfnd@physx@@IEAAAEAUInterval@3@AEBU43@@Z 000000018000b110 f i RTreeCooking.obj
 0001:0000a1f0       ?growAndPushBack@?$Array@UPxBounds3V@physx@@V?$ReflectionAllocator@UPxBounds3V@physx@@@shdfnd@2@@shdfnd@physx@@IEAAAEAUPxBounds3V@3@AEBU43@@Z 000000018000b1f0 f i RTreeCooking.obj
 0001:0000a2c0       ?growAndPushBack@?$Array@URTreeNodeNQ@physx@@V?$ReflectionAllocator@URTreeNodeNQ@physx@@@shdfnd@2@@shdfnd@physx@@IEAAAEAURTreeNodeNQ@3@AEBU43@@Z 000000018000b2c0 f i RTreeCooking.obj
 0001:0000a390       ?growAndPushBack@?$Array@URTreeNodeQ@Gu@physx@@V?$ReflectionAllocator@URTreeNodeQ@Gu@physx@@@shdfnd@3@@shdfnd@physx@@IEAAAEAURTreeNodeQ@Gu@3@AEBU453@@Z 000000018000b390 f i RTreeCooking.obj
 0001:0000a470       ?recreate@?$Array@IV?$ReflectionAllocator@I@shdfnd@physx@@@shdfnd@physx@@IEAAXI@Z 000000018000b470 f i RTreeCooking.obj
 0001:0000a530       ?recreate@?$Array@UPxBounds3V@physx@@V?$ReflectionAllocator@UPxBounds3V@physx@@@shdfnd@2@@shdfnd@physx@@IEAAXI@Z 000000018000b530 f i RTreeCooking.obj
 0001:0000a5e0       ?recreate@?$Array@URTreeNodeNQ@physx@@V?$ReflectionAllocator@URTreeNodeNQ@physx@@@shdfnd@2@@shdfnd@physx@@IEAAXI@Z 000000018000b5e0 f i RTreeCooking.obj
 0001:0000a670       ?recreate@?$Array@URTreeNodeQ@Gu@physx@@V?$ReflectionAllocator@URTreeNodeQ@Gu@physx@@@shdfnd@3@@shdfnd@physx@@IEAAXI@Z 000000018000b670 f i RTreeCooking.obj
 0001:0000a730       ?recreate@?$Array@VPxVec3@physx@@V?$ReflectionAllocator@VPxVec3@physx@@@shdfnd@2@@shdfnd@physx@@IEAAXI@Z 000000018000b730 f i RTreeCooking.obj
 0001:0000a7c0       ?resize@?$Array@IV?$ReflectionAllocator@I@shdfnd@physx@@@shdfnd@physx@@QEAAXIAEBI@Z 000000018000b7c0 f i RTreeCooking.obj
 0001:0000a880       ?resizeUninitialized@?$Array@URTreeNodeNQ@physx@@V?$ReflectionAllocator@URTreeNodeNQ@physx@@@shdfnd@2@@shdfnd@physx@@QEAAXI@Z 000000018000b880 f i RTreeCooking.obj
 0001:0000a8c0       ?sort4@SubSortQuick@physx@@QEAAXPEIAIIAEAV?$Array@URTreeNodeNQ@physx@@V?$ReflectionAllocator@URTreeNodeNQ@physx@@@shdfnd@2@@shdfnd@2@AEAIAEAUPxBounds3V@2@I@Z 000000018000b8c0 f i RTreeCooking.obj
 0001:0000ac50       ?sort4@SubSortSAH@physx@@QEAAXPEAIIAEAV?$Array@URTreeNodeNQ@physx@@V?$ReflectionAllocator@URTreeNodeNQ@physx@@@shdfnd@2@@shdfnd@2@AEAIIPEAURTreeNodeNQ@2@@Z 000000018000bc50 f i RTreeCooking.obj
 0001:0000b4a0       ?split@SubSortSAH@physx@@QEAAIPEAII@Z 000000018000c4a0 f i RTreeCooking.obj
 0001:0000bea0       ?computeLocalBounds@MeshBulider@physx@@IEAAXAEAVMeshDataBase@Gu@2@@Z 000000018000cea0 f   MeshBuilder.obj
 0001:0000bf30       ??$?_UG@@YAPEAX_KV?$ReflectionAllocator@G@shdfnd@physx@@PEBDH@Z 000000018000cf30 f i TriangleMeshBuilder.obj
 0001:0000bfd0       ??$sort@UEdgeTriLookup@physx@@U?$Less@UEdgeTriLookup@physx@@@shdfnd@2@V?$ReflectionAllocator@UEdgeTriLookup@physx@@@42@@shdfnd@physx@@YAXPEAUEdgeTriLookup@1@IAEBU?$Less@UEdgeTriLookup@physx@@@01@AEBV?$ReflectionAllocator@UEdgeTriLookup@physx@@@01@I@Z 000000018000cfd0 f i TriangleMeshBuilder.obj
 0001:0000c550       ??0BV4TriangleMeshBuilder@physx@@QEAA@AEBUPxCookingParams@1@@Z 000000018000d550 f   TriangleMeshBuilder.obj
 0001:0000c620       ??0RTreeTriangleMeshBuilder@physx@@QEAA@AEBUPxCookingParams@1@@Z 000000018000d620 f   TriangleMeshBuilder.obj
 0001:0000c6e0       ??1BV4TriangleMeshBuilder@physx@@UEAA@XZ 000000018000d6e0 f   TriangleMeshBuilder.obj
 0001:0000c740       ??1MeshDataBase@Gu@physx@@UEAA@XZ 000000018000d740 f i TriangleMeshBuilder.obj
 0001:0000c820       ??1RTreeTriangleData@Gu@physx@@UEAA@XZ 000000018000d820 f i TriangleMeshBuilder.obj
 0001:0000c890       ??1RTreeTriangleMeshBuilder@physx@@UEAA@XZ 000000018000d890 f   TriangleMeshBuilder.obj
 0001:0000c8c0       ??1TriangleMeshBuilder@physx@@UEAA@XZ 000000018000d8c0 f   TriangleMeshBuilder.obj
 0001:0000c920       ??1TriangleMeshData@Gu@physx@@UEAA@XZ 000000018000d920 f i TriangleMeshBuilder.obj
 0001:0000c9f0       ??_EBV4TriangleData@Gu@physx@@UEAAPEAXI@Z 000000018000d9f0 f i TriangleMeshBuilder.obj
 0001:0000c9f0       ??_GBV4TriangleData@Gu@physx@@UEAAPEAXI@Z 000000018000d9f0 f i TriangleMeshBuilder.obj
 0001:0000ca70       ??_GBV4TriangleMeshBuilder@physx@@UEAAPEAXI@Z 000000018000da70 f i TriangleMeshBuilder.obj
 0001:0000ca70       ??_EBV4TriangleMeshBuilder@physx@@UEAAPEAXI@Z 000000018000da70 f i TriangleMeshBuilder.obj
 0001:0000caf0       ??_GMeshDataBase@Gu@physx@@UEAAPEAXI@Z 000000018000daf0 f i TriangleMeshBuilder.obj
 0001:0000caf0       ??_EMeshDataBase@Gu@physx@@UEAAPEAXI@Z 000000018000daf0 f i TriangleMeshBuilder.obj
 0001:0000cb50       ??_GRTreeCookerRemap@physx@@UEAAPEAXI@Z 000000018000db50 f i TriangleMeshBuilder.obj
 0001:0000cb50       ??_ERTreeCookerRemap@physx@@UEAAPEAXI@Z 000000018000db50 f i TriangleMeshBuilder.obj
 0001:0000cb80       ??_ERTreeTriangleData@Gu@physx@@UEAAPEAXI@Z 000000018000db80 f i TriangleMeshBuilder.obj
 0001:0000cb80       ??_GRTreeTriangleData@Gu@physx@@UEAAPEAXI@Z 000000018000db80 f i TriangleMeshBuilder.obj
 0001:0000cbe0       ??_GRTreeTriangleMeshBuilder@physx@@UEAAPEAXI@Z 000000018000dbe0 f i TriangleMeshBuilder.obj
 0001:0000cbe0       ??_ERTreeTriangleMeshBuilder@physx@@UEAAPEAXI@Z 000000018000dbe0 f i TriangleMeshBuilder.obj
 0001:0000cc30       ??_GRemapCallback@RTreeCooker@physx@@UEAAPEAXI@Z 000000018000dc30 f i TriangleMeshBuilder.obj
 0001:0000cc30       ??_ERemapCallback@RTreeCooker@physx@@UEAAPEAXI@Z 000000018000dc30 f i TriangleMeshBuilder.obj
 0001:0000cc60       ??_ETriangleMeshBuilder@physx@@UEAAPEAXI@Z 000000018000dc60 f i TriangleMeshBuilder.obj
 0001:0000cc60       ??_GTriangleMeshBuilder@physx@@UEAAPEAXI@Z 000000018000dc60 f i TriangleMeshBuilder.obj
 0001:0000cca0       ??_GTriangleMeshData@Gu@physx@@UEAAPEAXI@Z 000000018000dca0 f i TriangleMeshBuilder.obj
 0001:0000cca0       ??_ETriangleMeshData@Gu@physx@@UEAAPEAXI@Z 000000018000dca0 f i TriangleMeshBuilder.obj
 0001:0000cd00       ?allocateTriangles@TriangleMeshData@Gu@physx@@QEAAPEAXI_NI@Z 000000018000dd00 f i TriangleMeshBuilder.obj
 0001:0000cde0       ?allocateVertices@MeshDataBase@Gu@physx@@QEAAPEAVPxVec3@3@I@Z 000000018000dde0 f i TriangleMeshBuilder.obj
 0001:0000d320       ?checkMeshIndicesSize@TriangleMeshBuilder@physx@@QEAAXXZ 000000018000e320 f   TriangleMeshBuilder.obj
 0001:0000d430       ?cleanMesh@TriangleMeshBuilder@physx@@QEAA_N_NPEAW4Enum@PxTriangleMeshCookingResult@2@@Z 000000018000e430 f   TriangleMeshBuilder.obj
 0001:0000d920       ?createGRBMidPhaseAndData@TriangleMeshBuilder@physx@@QEAAXI@Z 000000018000e920 f   TriangleMeshBuilder.obj
 0001:0000dba0       ?createMidPhaseStructure@BV32TriangleMeshBuilder@physx@@SAXAEBUPxCookingParams@2@AEAVTriangleMeshData@Gu@2@AEAVBV32Tree@52@@Z 000000018000eba0 f   TriangleMeshBuilder.obj
 0001:0000dd70       ?createMidPhaseStructure@BV4TriangleMeshBuilder@physx@@UEAAXXZ 000000018000ed70 f   TriangleMeshBuilder.obj
 0001:0000e030       ?createMidPhaseStructure@RTreeTriangleMeshBuilder@physx@@UEAAXXZ 000000018000f030 f   TriangleMeshBuilder.obj
 0001:0000e110       ?createSharedEdgeData@TriangleMeshBuilder@physx@@QEAAX_N0@Z 000000018000f110 f   TriangleMeshBuilder.obj
 0001:0000e7c0       ?length@charNode@@UEBAHXZ  000000018000f7c0 f i libvcruntime:undname.obj
 0001:0000e7c0       ?getMidphaseID@BV4TriangleMeshBuilder@physx@@UEBA?AW4Enum@PxMeshMidPhase@2@XZ 000000018000f7c0 f i TriangleMeshBuilder.obj
 0001:0000e7c0       ?raw_length@charNode@@UEBAHXZ 000000018000f7c0 f i libvcruntime:undname.obj
 0001:0000e7c0       DllMain                    000000018000f7c0 f i LIBCMT:dll_dllmain_stub.obj
 0001:0000e7c0       _get_startup_argv_mode     000000018000f7c0 f i LIBCMT:argv_mode.obj
 0001:0000e7d0       ?getMidphaseID@RTreeTriangleMeshBuilder@physx@@UEBA?AW4Enum@PxMeshMidPhase@2@XZ 000000018000f7d0 f i TriangleMeshBuilder.obj
 0001:0000e7e0       ?importMesh@TriangleMeshBuilder@physx@@IEAA_NAEBVPxTriangleMeshDesc@2@AEBUPxCookingParams@2@PEAW4Enum@PxTriangleMeshCookingResult@2@_N@Z 000000018000f7e0 f   TriangleMeshBuilder.obj
 0001:0000eb60       ?loadFromDesc@TriangleMeshBuilder@physx@@QEAA_NAEBVPxTriangleMeshDesc@2@PEAW4Enum@PxTriangleMeshCookingResult@2@_N@Z 000000018000fb60 f   TriangleMeshBuilder.obj
 0001:0000efe0       ?onMeshIndexFormatChange@BV4TriangleMeshBuilder@physx@@UEAAXXZ 000000018000ffe0 f   TriangleMeshBuilder.obj
 0001:0000f020       ?remap@RTreeCookerRemap@physx@@UEAAXPEAIII@Z 0000000180010020 f i TriangleMeshBuilder.obj
 0001:0000f040       ?remapTopology@TriangleMeshBuilder@physx@@QEAAXPEBI@Z 0000000180010040 f   TriangleMeshBuilder.obj
 0001:0000f340       ?save@TriangleMeshBuilder@physx@@QEBA_NAEAVPxOutputStream@2@_NAEBUPxCookingParams@2@@Z 0000000180010340 f   TriangleMeshBuilder.obj
 0001:0000f910       ?saveMidPhaseStructure@BV4TriangleMeshBuilder@physx@@UEBAXAEAVPxOutputStream@2@_N@Z 0000000180010910 f   TriangleMeshBuilder.obj
 0001:0000fab0       ?saveMidPhaseStructure@RTreeTriangleMeshBuilder@physx@@UEBAXAEAVPxOutputStream@2@_N@Z 0000000180010ab0 f   TriangleMeshBuilder.obj
 0001:0000fcf0       ??0BigConvexDataBuilder@physx@@QEAA@PEBUConvexHullData@Gu@1@PEAVBigConvexData@1@PEBVPxVec3@1@@Z 0000000180010cf0 f   BigConvexDataBuilder.obj
 0001:0000fd00       ??4BigConvexData@physx@@QEAAAEAV01@AEBV01@@Z 0000000180010d00 f i BigConvexDataBuilder.obj
 0001:0000fd20       ?GetAdjacentVerts@BigConvexData@physx@@QEBAPEBEXZ 0000000180010d20 f i BigConvexDataBuilder.obj
 0001:0000fd30       ?GetValency@BigConvexData@physx@@QEBAGI@Z 0000000180010d30 f i BigConvexDataBuilder.obj
 0001:0000fd30       ?GetNbNeighbors@BigConvexData@physx@@QEBAGI@Z 0000000180010d30 f i BigConvexDataBuilder.obj
 0001:0000fd40       ?GetNbSamples@BigConvexData@physx@@QEBAIXZ 0000000180010d40 f i BigConvexDataBuilder.obj
 0001:0000fd50       ?length@pcharNode@@UEBAHXZ 0000000180010d50 f i libvcruntime:undname.obj
 0001:0000fd50       ?raw_length@pcharNode@@UEBAHXZ 0000000180010d50 f i libvcruntime:undname.obj
 0001:0000fd50       ?GetNbVerts@BigConvexData@physx@@QEBAIXZ 0000000180010d50 f i BigConvexDataBuilder.obj
 0001:0000fd60       ?GetNeighbors@BigConvexData@physx@@QEBAPEBEI@Z 0000000180010d60 f i BigConvexDataBuilder.obj
 0001:0000fd70       ?GetOffset@BigConvexData@physx@@QEBAGI@Z 0000000180010d70 f i BigConvexDataBuilder.obj
 0001:0000fd80       ?GetSubdiv@BigConvexData@physx@@QEBAIXZ 0000000180010d80 f i BigConvexDataBuilder.obj
 0001:0000fd90       ?computeValencies@BigConvexDataBuilder@physx@@QEAA_NAEBVConvexHullBuilder@2@@Z 0000000180010d90 f   BigConvexDataBuilder.obj
 0001:00010180       ?precompute@BigConvexDataBuilder@physx@@QEAA_NI@Z 0000000180011180 f   BigConvexDataBuilder.obj
 0001:00010dc0       ?save@BigConvexDataBuilder@physx@@QEBA_NAEAVPxOutputStream@2@_N@Z 0000000180011dc0 f   BigConvexDataBuilder.obj
 0001:00011000       ??$?_UE@@YAPEAX_KV?$ReflectionAllocator@E@shdfnd@physx@@PEBDH@Z 0000000180012000 f i ConvexHullBuilder.obj
 0001:000110a0       ??0ConvexHullBuilder@physx@@QEAA@PEAUConvexHullData@Gu@1@_N@Z 00000001800120a0 f   ConvexHullBuilder.obj
 0001:000110d0       ??1ConvexHullBuilder@physx@@QEAA@XZ 00000001800120d0 f   ConvexHullBuilder.obj
 0001:000111d0       ?calculateVertexMapTable@ConvexHullBuilder@physx@@QEAA_NI_N@Z 00000001800121d0 f   ConvexHullBuilder.obj
 0001:000113e0       ?checkHullPolygons@ConvexHullBuilder@physx@@QEBA_NXZ 00000001800123e0 f   ConvexHullBuilder.obj
 0001:000119c0       ?computeGeomCenter@ConvexHullBuilder@physx@@IEBA_NAEAVPxVec3@2@IPEAUHullTriangleData@2@@Z 00000001800129c0 f   ConvexHullBuilder.obj
 0001:00011c80       ?copy@ConvexHullBuilder@physx@@QEAA_NAEAUConvexHullData@Gu@2@AEAI@Z 0000000180012c80 f   ConvexHullBuilder.obj
 0001:00011f00       ?createEdgeList@ConvexHullBuilder@physx@@QEAA_N_NI@Z 0000000180012f00 f   ConvexHullBuilder.obj
 0001:00012770       ?init@ConvexHullBuilder@physx@@QEAA_NIPEBVPxVec3@2@PEBIIIPEBUPxHullPolygon@2@_NPEAVConvexHullLib@2@@Z 0000000180013770 f   ConvexHullBuilder.obj
 0001:000130d0       ?save@ConvexHullBuilder@physx@@QEBA_NAEAVPxOutputStream@2@_N@Z 00000001800140d0 f   ConvexHullBuilder.obj
 0001:000133f0       ??1ConvexHullLib@physx@@UEAA@XZ 00000001800143f0 f   ConvexHullLib.obj
 0001:00013450       ??_GConvexHullLib@physx@@UEAAPEAXI@Z 0000000180014450 f i ConvexHullLib.obj
 0001:00013450       ??_EConvexHullLib@physx@@UEAAPEAXI@Z 0000000180014450 f i ConvexHullLib.obj
 0001:000139c0       ?cleanupVertices@ConvexHullLib@physx@@IEAA_NIPEBVPxVec3@2@IAEAIPEAV32@AEAV32@3@Z 00000001800149c0 f   ConvexHullLib.obj
 0001:00013e40       ?shiftAndcleanupVertices@ConvexHullLib@physx@@IEAA_NIPEBVPxVec3@2@IAEAIPEAV32@AEAV32@3@Z 0000000180014e40 f   ConvexHullLib.obj
 0001:00014320       ?shiftConvexMeshDesc@ConvexHullLib@physx@@IEAAXAEAVPxConvexMeshDesc@2@@Z 0000000180015320 f   ConvexHullLib.obj
 0001:000143e0       ?swapLargestFace@ConvexHullLib@physx@@IEAAXAEAVPxConvexMeshDesc@2@@Z 00000001800153e0 f   ConvexHullLib.obj
 0001:000145d0       ??0Box@Gu@physx@@QEAA@AEBV012@@Z 00000001800155d0 f i ConvexHullUtils.obj
 0001:000145d0       ??4Box@Gu@physx@@QEAAAEBV012@AEBV012@@Z 00000001800155d0 f i ConvexHullUtils.obj
 0001:00014630       ??0Box@Gu@physx@@QEAA@AEBVPxVec3@2@0AEBVPxMat33@2@@Z 0000000180015630 f i ConvexHullUtils.obj
 0001:000146a0       ??0ConvexHull@physx@@QEAA@AEBVPxVec3@1@AEBVPxTransform@1@AEBV?$Array@VPxPlane@physx@@V?$ReflectionAllocator@VPxPlane@physx@@@shdfnd@2@@shdfnd@1@@Z 00000001800156a0 f   ConvexHullUtils.obj
 0001:00015800       ??0PxQuat@physx@@QEAA@AEBVPxMat33@1@@Z 0000000180016800 f i ConvexHullUtils.obj
 0001:000159e0       ?allocate@?$Array@VHalfEdge@ConvexHull@physx@@V?$ReflectionAllocator@VHalfEdge@ConvexHull@physx@@@shdfnd@3@@shdfnd@physx@@IEAAPEAVHalfEdge@ConvexHull@3@I@Z 00000001800169e0 f i ConvexHullUtils.obj
 0001:00015a80       ?allocate@?$Array@VPxPlane@physx@@V?$ReflectionAllocator@VPxPlane@physx@@@shdfnd@2@@shdfnd@physx@@IEAAPEAVPxPlane@3@I@Z 0000000180016a80 f i ConvexHullUtils.obj
 0001:00015b20       ?assertIntact@ConvexHull@physx@@QEBA_NM@Z 0000000180016b20 f   ConvexHullUtils.obj
 0001:00015e30       ?computeAABBExtent@Box@Gu@physx@@QEBA?AVPxVec3@3@XZ 0000000180016e30 f i ConvexHullUtils.obj
 0001:00015ef0       ?computeBoxPoints@Box@Gu@physx@@QEBAXPEIAVPxVec3@3@@Z 0000000180016ef0 f i ConvexHullUtils.obj
 0001:00015f30       ?computeOBBFromConvex@physx@@YA_NAEBVPxConvexMeshDesc@1@AEAVPxVec3@1@AEAVPxTransform@1@@Z 0000000180016f30 f   ConvexHullUtils.obj
 0001:00016640       ?computeOBBSIMD@local@@YAXIPEBT__m128@@AEAT2@AEBT2@1@Z 0000000180017640 f   ConvexHullUtils.obj
 0001:00016a50       ?convexHullCrop@physx@@YAPEAVConvexHull@1@AEBV21@AEBVPxPlane@1@M@Z 0000000180017a50 f   ConvexHullUtils.obj
 0001:00017830       ?copy@?$Array@VPxPlane@physx@@V?$ReflectionAllocator@VPxPlane@physx@@@shdfnd@2@@shdfnd@physx@@KAXPEAVPxPlane@3@0PEBV43@@Z 0000000180018830 f i ConvexHullUtils.obj
 0001:00017930       ?findCandidatePlane@ConvexHull@physx@@QEBAHMM@Z 0000000180018930 f   ConvexHullUtils.obj
 0001:00017da0       ?getInverse@PxMat33@physx@@QEBA?BV12@XZ 0000000180018da0 f i ConvexHullUtils.obj
 0001:00017ff0       ?getTransform@Box@Gu@physx@@QEBA?AVPxTransform@3@XZ 0000000180018ff0 f i ConvexHullUtils.obj
 0001:00018050       ?growAndPushBack@?$Array@VHalfEdge@ConvexHull@physx@@V?$ReflectionAllocator@VHalfEdge@ConvexHull@physx@@@shdfnd@3@@shdfnd@physx@@IEAAAEAVHalfEdge@ConvexHull@3@AEBV453@@Z 0000000180019050 f i ConvexHullUtils.obj
 0001:00018110       ?growAndPushBack@?$Array@VPxPlane@physx@@V?$ReflectionAllocator@VPxPlane@physx@@@shdfnd@2@@shdfnd@physx@@IEAAAEAVPxPlane@3@AEBV43@@Z 0000000180019110 f i ConvexHullUtils.obj
 0001:000181d0       ?isValid@Box@Gu@physx@@QEBA_NXZ 00000001800191d0 f i ConvexHullUtils.obj
 0001:000181f0       ?maxNumVertsPerFace@ConvexHull@physx@@QEBAIXZ 00000001800191f0 f   ConvexHullUtils.obj
 0001:00018260       ?recreate@?$Array@VHalfEdge@ConvexHull@physx@@V?$ReflectionAllocator@VHalfEdge@ConvexHull@physx@@@shdfnd@3@@shdfnd@physx@@IEAAXI@Z 0000000180019260 f i ConvexHullUtils.obj
 0001:00018300       ?recreate@?$Array@VPxPlane@physx@@V?$ReflectionAllocator@VPxPlane@physx@@@shdfnd@2@@shdfnd@physx@@IEAAXI@Z 0000000180019300 f i ConvexHullUtils.obj
 0001:00018390       ?resize@?$Array@VHalfEdge@ConvexHull@physx@@V?$ReflectionAllocator@VHalfEdge@ConvexHull@physx@@@shdfnd@3@@shdfnd@physx@@QEAAXIAEBVHalfEdge@ConvexHull@3@@Z 0000000180019390 f i ConvexHullUtils.obj
 0001:00018450       ?resize@?$Array@VPxPlane@physx@@V?$ReflectionAllocator@VPxPlane@physx@@@shdfnd@2@@shdfnd@physx@@QEAAXIAEBVPxPlane@3@@Z 0000000180019450 f i ConvexHullUtils.obj
 0001:00018570       ?resize@?$Array@VPxVec3@physx@@V?$ReflectionAllocator@VPxVec3@physx@@@shdfnd@2@@shdfnd@physx@@QEAAXIAEBVPxVec3@3@@Z 0000000180019570 f i ConvexHullUtils.obj
 0001:00018660       ?rotate@Box@Gu@physx@@QEBA?AVPxVec3@3@AEBV43@@Z 0000000180019660 f i ConvexHullUtils.obj
 0001:000186f0       ?rotateInv@Box@Gu@physx@@QEBA?AVPxVec3@3@AEBV43@@Z 00000001800196f0 f i ConvexHullUtils.obj
 0001:00018780       ?setAxes@Box@Gu@physx@@QEAAXAEBVPxVec3@3@00@Z 0000000180019780 f i ConvexHullUtils.obj
 0001:000187c0       ?setEmpty@Box@Gu@physx@@QEAAXXZ 00000001800197c0 f i ConvexHullUtils.obj
 0001:00018800       ?transform@Box@Gu@physx@@QEBA?AVPxVec3@3@AEBV43@@Z 0000000180019800 f i ConvexHullUtils.obj
 0001:000188a0       ??0ConvexMeshBuilder@physx@@QEAA@_N@Z 00000001800198a0 f   ConvexMeshBuilder.obj
 0001:00018900       ??1ConvexMeshBuilder@physx@@QEAA@XZ 0000000180019900 f   ConvexMeshBuilder.obj
 0001:00018d50       ?build@ConvexMeshBuilder@physx@@QEAA_NAEBVPxConvexMeshDesc@2@I_NPEAVConvexHullLib@2@@Z 0000000180019d50 f   ConvexMeshBuilder.obj
 0001:00019060       ?computeHullPolygons@ConvexMeshBuilder@physx@@QEAA_NAEBIPEBVPxVec3@2@0PEBIAEAVPxAllocatorCallback@2@AEAIAEAPEAV32@4AEAPEAI4AEAPEAUPxHullPolygon@2@@Z 000000018001a060 f   ConvexMeshBuilder.obj
 0001:00019280       ?computeMassInfo@ConvexMeshBuilder@physx@@QEAAX_N@Z 000000018001a280 f   ConvexMeshBuilder.obj
 0001:00019650       ?copy@ConvexMeshBuilder@physx@@QEAA_NAEAUConvexHullInitData@Gu@2@@Z 000000018001a650 f   ConvexMeshBuilder.obj
 0001:00019770       ?isFinite@PxVec3@physx@@QEBA_NXZ 000000018001a770 f i ConvexMeshBuilder.obj
 0001:000197d0       ?loadConvexHull@ConvexMeshBuilder@physx@@QEAA_NAEBVPxConvexMeshDesc@2@PEAVConvexHullLib@2@@Z 000000018001a7d0 f   ConvexMeshBuilder.obj
 0001:00019a50       ?save@ConvexMeshBuilder@physx@@QEBA_NAEAVPxOutputStream@2@_N@Z 000000018001aa50 f   ConvexMeshBuilder.obj
 0001:00019c60       ??$copy@V?$ReflectionAllocator@VPair@@@shdfnd@physx@@@?$Array@VPair@@V?$ReflectionAllocator@VPair@@@shdfnd@physx@@@shdfnd@physx@@IEAAXAEBV012@@Z 000000018001ac60 f i ConvexPolygonsBuilder.obj
 0001:00019ce0       ??0ConvexPolygonsBuilder@physx@@QEAA@PEAUConvexHullData@Gu@1@_N@Z 000000018001ace0 f   ConvexPolygonsBuilder.obj
 0001:00019d00       ??1ConvexPolygonsBuilder@physx@@QEAA@XZ 000000018001ad00 f   ConvexPolygonsBuilder.obj
 0001:0001a550       ?allocate@?$Array@VPair@@V?$ReflectionAllocator@VPair@@@shdfnd@physx@@@shdfnd@physx@@IEAAPEAVPair@@I@Z 000000018001b550 f i ConvexPolygonsBuilder.obj
 0001:0001ad70       ?computeHullPolygons@ConvexPolygonsBuilder@physx@@QEAA_NAEBIPEBVPxVec3@2@0PEBI@Z 000000018001bd70 f   ConvexPolygonsBuilder.obj
 0001:0001be10       ?createPolygonData@ConvexPolygonsBuilder@physx@@AEAA_NXZ 000000018001ce10 f   ConvexPolygonsBuilder.obj
 0001:0001c9f0       ?createTrianglesFromPolygons@ConvexPolygonsBuilder@physx@@AEAA_NXZ 000000018001d9f0 f   ConvexPolygonsBuilder.obj
 0001:0001e070       ?growAndPushBack@?$Array@VPair@@V?$ReflectionAllocator@VPair@@@shdfnd@physx@@@shdfnd@physx@@IEAAAEAVPair@@AEBV4@@Z 000000018001f070 f i ConvexPolygonsBuilder.obj
 0001:0001e130       ??0QuickHull@local@@QEAA@AEBUPxCookingParams@physx@@AEBVPxConvexMeshDesc@3@@Z 000000018001f130 f   QuickHullConvexHullLib.obj
 0001:0001e1e0       ??0QuickHullConvexHullLib@physx@@QEAA@AEBVPxConvexMeshDesc@1@AEBUPxCookingParams@1@@Z 000000018001f1e0 f   QuickHullConvexHullLib.obj
 0001:0001e2d0       ??1?$MemBlock@UQuickHullFace@local@@$00@local@@QEAA@XZ 000000018001f2d0 f i QuickHullConvexHullLib.obj
 0001:0001e2d0       ??1?$MemBlock@UQuickHullHalfEdge@local@@$0A@@local@@QEAA@XZ 000000018001f2d0 f i QuickHullConvexHullLib.obj
 0001:0001e360       ??1QuickHull@local@@QEAA@XZ 000000018001f360 f   QuickHullConvexHullLib.obj
 0001:0001e4a0       ??_GConvexHull@physx@@QEAAPEAXI@Z 000000018001f4a0 f i QuickHullConvexHullLib.obj
 0001:0001e580       ??_GQuickHullConvexHullLib@physx@@UEAAPEAXI@Z 000000018001f580 f i QuickHullConvexHullLib.obj
 0001:0001e580       ??_EQuickHullConvexHullLib@physx@@UEAAPEAXI@Z 000000018001f580 f i QuickHullConvexHullLib.obj
 0001:0001e680       ?addPointToHull@QuickHull@local@@IEAA_NPEBUQuickHullVertex@2@AEAUQuickHullFace@2@AEA_N@Z 000000018001f680 f   QuickHullConvexHullLib.obj
 0001:0001e950       ?addSimplex@QuickHull@local@@IEAAXPEAUQuickHullVertex@2@_N@Z 000000018001f950 f   QuickHullConvexHullLib.obj
 0001:0001ee20       ?allocate@?$Array@PEAUQuickHullFace@local@@V?$ReflectionAllocator@PEAUQuickHullFace@local@@@shdfnd@physx@@@shdfnd@physx@@IEAAPEAPEAUQuickHullFace@local@@I@Z 000000018001fe20 f i QuickHullConvexHullLib.obj
 0001:0001eec0       ?allocate@?$Array@PEAUQuickHullHalfEdge@local@@V?$ReflectionAllocator@PEAUQuickHullHalfEdge@local@@@shdfnd@physx@@@shdfnd@physx@@IEAAPEAPEAUQuickHullHalfEdge@local@@I@Z 000000018001fec0 f i QuickHullConvexHullLib.obj
 0001:0001ef60       ?allocate@?$Array@PEAUQuickHullVertex@local@@V?$ReflectionAllocator@PEAUQuickHullVertex@local@@@shdfnd@physx@@@shdfnd@physx@@IEAAPEAPEAUQuickHullVertex@local@@I@Z 000000018001ff60 f i QuickHullConvexHullLib.obj
 0001:0001f000       ?allocate@?$Array@UExpandPoint@local@@V?$ReflectionAllocator@UExpandPoint@local@@@shdfnd@physx@@@shdfnd@physx@@IEAAPEAUExpandPoint@local@@I@Z 0000000180020000 f i QuickHullConvexHullLib.obj
 0001:0001f0a0       ?buildHull@QuickHull@local@@QEAA?AW4Enum@QuickHullResult@2@XZ 00000001800200a0 f   QuickHullConvexHullLib.obj
 0001:0001f2b0       ?calculateHorizon@QuickHull@local@@IEAAXAEBVPxVec3@physx@@PEAUQuickHullHalfEdge@2@AEAUQuickHullFace@2@AEAV?$Array@PEAUQuickHullHalfEdge@local@@V?$ReflectionAllocator@PEAUQuickHullHalfEdge@local@@@shdfnd@physx@@@shdfnd@4@AEAV?$Array@PEAUQuickHullFace@local@@V?$ReflectionAllocator@PEAUQuickHullFace@local@@@shdfnd@physx@@@84@@Z 00000001800202b0 f   QuickHullConvexHullLib.obj
 0001:0001f460       ?canMergeFaces@QuickHull@local@@IEAA_NAEBUQuickHullHalfEdge@2@@Z 0000000180020460 f   QuickHullConvexHullLib.obj
 0001:0001fc90       ?cleanupForSimplex@QuickHullConvexHullLib@physx@@IEAA_NPEAVPxVec3@2@IPEAUQuickHullVertex@local@@1AEAM2@Z 0000000180020c90 f   QuickHullConvexHullLib.obj
 0001:00020860       ?computeMinMaxVerts@QuickHull@local@@IEAAXXZ 0000000180021860 f   QuickHullConvexHullLib.obj
 0001:00020c30       ?connectHalfEdges@QuickHullFace@local@@AEAAPEAU12@PEAUQuickHullHalfEdge@2@0@Z 0000000180021c30 f   QuickHullConvexHullLib.obj
 0001:00020f90       ?copy@?$Array@UExpandPoint@local@@V?$ReflectionAllocator@UExpandPoint@local@@@shdfnd@physx@@@shdfnd@physx@@KAXPEAUExpandPoint@local@@0PEBU45@@Z 0000000180021f90 f i QuickHullConvexHullLib.obj
 0001:00021040       ?createConvexHull@QuickHullConvexHullLib@physx@@UEAA?AW4Enum@PxConvexMeshCookingResult@2@XZ 0000000180022040 f   QuickHullConvexHullLib.obj
 0001:00021440       ?createEdgeList@QuickHullConvexHullLib@physx@@UEAA_NIPEBEPEAPEAEPEAPEAG2@Z 0000000180022440 f   QuickHullConvexHullLib.obj
 0001:00021670       ?createTriangle@QuickHull@local@@IEAAPEAUQuickHullFace@2@AEBUQuickHullVertex@2@00@Z 0000000180022670 f   QuickHullConvexHullLib.obj
 0001:00021a00       ?doAdjacentMerge@QuickHull@local@@IEAA_NAEAUQuickHullFace@2@_NAEA_N@Z 0000000180022a00 f   QuickHullConvexHullLib.obj
 0001:00021d40       ?expandHull@QuickHullConvexHullLib@physx@@IEAA?AW4Enum@PxConvexMeshCookingResult@2@XZ 0000000180022d40 f   QuickHullConvexHullLib.obj
 0001:00022a20       ?expandHullOBB@QuickHullConvexHullLib@physx@@IEAA?AW4Enum@PxConvexMeshCookingResult@2@XZ 0000000180023a20 f   QuickHullConvexHullLib.obj
 0001:00022e40       ?fillConvexMeshDesc@QuickHullConvexHullLib@physx@@UEAAXAEAVPxConvexMeshDesc@2@@Z 0000000180023e40 f   QuickHullConvexHullLib.obj
 0001:00022e90       ?fillConvexMeshDescFromCroppedHull@QuickHullConvexHullLib@physx@@IEAAXAEAVPxConvexMeshDesc@2@@Z 0000000180023e90 f   QuickHullConvexHullLib.obj
 0001:00023090       ?fillConvexMeshDescFromQuickHull@QuickHullConvexHullLib@physx@@IEAAXAEAVPxConvexMeshDesc@2@@Z 0000000180024090 f   QuickHullConvexHullLib.obj
 0001:00023420       ?findSimplex@QuickHull@local@@IEAA_NXZ 0000000180024420 f   QuickHullConvexHullLib.obj
 0001:000240d0       ?getFreeItem@?$MemBlock@UQuickHullFace@local@@$00@local@@QEAAPEAUQuickHullFace@2@XZ 00000001800250d0 f i QuickHullConvexHullLib.obj
 0001:00024200       ?getFreeItem@?$MemBlock@UQuickHullHalfEdge@local@@$0A@@local@@QEAAPEAUQuickHullHalfEdge@2@XZ 0000000180025200 f i QuickHullConvexHullLib.obj
 0001:000242d0       ?growAndPushBack@?$Array@PEAUQuickHullFace@local@@V?$ReflectionAllocator@PEAUQuickHullFace@local@@@shdfnd@physx@@@shdfnd@physx@@IEAAAEAPEAUQuickHullFace@local@@AEBQEAU45@@Z 00000001800252d0 f i QuickHullConvexHullLib.obj
 0001:00024390       ?growAndPushBack@?$Array@PEAUQuickHullHalfEdge@local@@V?$ReflectionAllocator@PEAUQuickHullHalfEdge@local@@@shdfnd@physx@@@shdfnd@physx@@IEAAAEAPEAUQuickHullHalfEdge@local@@AEBQEAU45@@Z 0000000180025390 f i QuickHullConvexHullLib.obj
 0001:00024450       ?growAndPushBack@?$Array@PEAUQuickHullVertex@local@@V?$ReflectionAllocator@PEAUQuickHullVertex@local@@@shdfnd@physx@@@shdfnd@physx@@IEAAAEAPEAUQuickHullVertex@local@@AEBQEAU45@@Z 0000000180025450 f i QuickHullConvexHullLib.obj
 0001:00024510       ?growAndPushBack@?$Array@UExpandPoint@local@@V?$ReflectionAllocator@UExpandPoint@local@@@shdfnd@physx@@@shdfnd@physx@@IEAAAEAUExpandPoint@local@@AEBU45@@Z 0000000180025510 f i QuickHullConvexHullLib.obj
 0001:00024610       ?init@?$MemBlock@UQuickHullFace@local@@$00@local@@QEAAXI@Z 0000000180025610 f i QuickHullConvexHullLib.obj
 0001:00024710       ?init@?$MemBlock@UQuickHullHalfEdge@local@@$0A@@local@@QEAAXI@Z 0000000180025710 f i QuickHullConvexHullLib.obj
 0001:000247b0       ?mergeAdjacentFace@QuickHullFace@local@@QEAA_NPEAUQuickHullHalfEdge@2@AEAV?$Array@PEAUQuickHullFace@local@@V?$ReflectionAllocator@PEAUQuickHullFace@local@@@shdfnd@physx@@@shdfnd@physx@@@Z 00000001800257b0 f   QuickHullConvexHullLib.obj
 0001:00024c00       ?nextPointToAdd@QuickHull@local@@IEAAPEAUQuickHullVertex@2@AEAPEAUQuickHullFace@2@@Z 0000000180025c00 f   QuickHullConvexHullLib.obj
 0001:00024d80       ?parseInputVertices@QuickHull@local@@QEAAXPEBVPxVec3@physx@@I@Z 0000000180025d80 f   QuickHullConvexHullLib.obj
 0001:00024f10       ?postMergeHull@QuickHull@local@@IEAAXXZ 0000000180025f10 f   QuickHullConvexHullLib.obj
 0001:00025160       ?preallocate@QuickHull@local@@QEAAXI@Z 0000000180026160 f   QuickHullConvexHullLib.obj
 0001:000252a0       ?recreate@?$Array@PEAUQuickHullFace@local@@V?$ReflectionAllocator@PEAUQuickHullFace@local@@@shdfnd@physx@@@shdfnd@physx@@IEAAXI@Z 00000001800262a0 f i QuickHullConvexHullLib.obj
 0001:00025340       ?recreate@?$Array@PEAUQuickHullHalfEdge@local@@V?$ReflectionAllocator@PEAUQuickHullHalfEdge@local@@@shdfnd@physx@@@shdfnd@physx@@IEAAXI@Z 0000000180026340 f i QuickHullConvexHullLib.obj
 0001:000253e0       ?recreate@?$Array@PEAUQuickHullVertex@local@@V?$ReflectionAllocator@PEAUQuickHullVertex@local@@@shdfnd@physx@@@shdfnd@physx@@IEAAXI@Z 00000001800263e0 f i QuickHullConvexHullLib.obj
 0001:00025480       ?recreate@?$Array@UExpandPoint@local@@V?$ReflectionAllocator@UExpandPoint@local@@@shdfnd@physx@@@shdfnd@physx@@IEAAXI@Z 0000000180026480 f i QuickHullConvexHullLib.obj
 0001:00025510       ?resolveUnclaimedPoints@QuickHull@local@@IEAAXAEBV?$Array@PEAUQuickHullFace@local@@V?$ReflectionAllocator@PEAUQuickHullFace@local@@@shdfnd@physx@@@shdfnd@physx@@@Z 0000000180026510 f   QuickHullConvexHullLib.obj
 0001:00026210       ?computeVolumeIntegralsEberly@physx@@YA_NAEBVPxConvexMeshDesc@1@MAEAUPxIntegrals@1@AEBVPxVec3@1@@Z 0000000180027210 f   VolumeIntegration.obj
 0001:00026250       ?computeVolumeIntegralsEberlySIMD@physx@@YA_NAEBVPxConvexMeshDesc@1@MAEAUPxIntegrals@1@AEBVPxVec3@1@@Z 0000000180027250 f   VolumeIntegration.obj
 0001:00026890       ?cookingDelayHook@@YAP6A_JXZIPEAUDelayLoadInfo@@@Z 0000000180027890 f   WindowsCookingDelayLoadHook.obj
 0001:00026970       PxSetPhysXCookingDelayLoadHook 0000000180027970 f   WindowsCookingDelayLoadHook.obj
 0001:00026978       __imp_load_??0RadixSortBuffered@Cm@physx@@QEAA@XZ 0000000180027978 f   PhysXCommon_64:PhysXCommon_64.dll
 0001:00026984       ??0RadixSortBuffered@Cm@physx@@QEAA@XZ 0000000180027984 f   PhysXCommon_64:PhysXCommon_64.dll
 0001:0002698a       __tailMerge_physxcommon_64_dll 000000018002798a     PhysXCommon_64:PhysXCommon_64.dll
 0001:00026a03       __imp_load_??1RadixSortBuffered@Cm@physx@@UEAA@XZ 0000000180027a03 f   PhysXCommon_64:PhysXCommon_64.dll
 0001:00026a0f       ??1RadixSortBuffered@Cm@physx@@UEAA@XZ 0000000180027a0f f   PhysXCommon_64:PhysXCommon_64.dll
 0001:00026a15       __imp_load_?Sort@RadixSortBuffered@Cm@physx@@QEAAAEAV123@PEBIIW4RadixHint@23@@Z 0000000180027a15 f   PhysXCommon_64:PhysXCommon_64.dll
 0001:00026a21       ?Sort@RadixSortBuffered@Cm@physx@@QEAAAEAV123@PEBIIW4RadixHint@23@@Z 0000000180027a21 f   PhysXCommon_64:PhysXCommon_64.dll
 0001:00026a27       __imp_load_??0HeightField@Gu@physx@@QEAA@PEAVGuMeshFactory@2@@Z 0000000180027a27 f   PhysXCommon_64:PhysXCommon_64.dll
 0001:00026a33       ??0HeightField@Gu@physx@@QEAA@PEAVGuMeshFactory@2@@Z 0000000180027a33 f   PhysXCommon_64:PhysXCommon_64.dll
 0001:00026a39       __imp_load_?loadFromDesc@HeightField@Gu@physx@@QEAA_NAEBVPxHeightFieldDesc@3@@Z 0000000180027a39 f   PhysXCommon_64:PhysXCommon_64.dll
 0001:00026a45       ?loadFromDesc@HeightField@Gu@physx@@QEAA_NAEBVPxHeightFieldDesc@3@@Z 0000000180027a45 f   PhysXCommon_64:PhysXCommon_64.dll
 0001:00026a4b       __imp_load_?computeCellCoordinates@HeightField@Gu@physx@@QEBAIMMAEAM0@Z 0000000180027a4b f   PhysXCommon_64:PhysXCommon_64.dll
 0001:00026a57       ?computeCellCoordinates@HeightField@Gu@physx@@QEBAIMMAEAM0@Z 0000000180027a57 f   PhysXCommon_64:PhysXCommon_64.dll
 0001:00026a5d       __imp_load_?releaseMemory@HeightField@Gu@physx@@QEAAXXZ 0000000180027a5d f   PhysXCommon_64:PhysXCommon_64.dll
 0001:00026a69       ?releaseMemory@HeightField@Gu@physx@@QEAAXXZ 0000000180027a69 f   PhysXCommon_64:PhysXCommon_64.dll
 0001:00026a6f       __imp_load_??1HeightField@Gu@physx@@UEAA@XZ 0000000180027a6f f   PhysXCommon_64:PhysXCommon_64.dll
 0001:00026a7b       ??1HeightField@Gu@physx@@UEAA@XZ 0000000180027a7b f   PhysXCommon_64:PhysXCommon_64.dll
 0001:00026a81       __imp_load_??0NodeAllocator@Gu@physx@@QEAA@XZ 0000000180027a81 f   PhysXCommon_64:PhysXCommon_64.dll
 0001:00026a8d       ??0NodeAllocator@Gu@physx@@QEAA@XZ 0000000180027a8d f   PhysXCommon_64:PhysXCommon_64.dll
 0001:00026a93       __imp_load_??1NodeAllocator@Gu@physx@@QEAA@XZ 0000000180027a93 f   PhysXCommon_64:PhysXCommon_64.dll
 0001:00026a9f       ??1NodeAllocator@Gu@physx@@QEAA@XZ 0000000180027a9f f   PhysXCommon_64:PhysXCommon_64.dll
 0001:00026aa5       __imp_load_?release@NodeAllocator@Gu@physx@@QEAAXXZ 0000000180027aa5 f   PhysXCommon_64:PhysXCommon_64.dll
 0001:00026ab1       ?release@NodeAllocator@Gu@physx@@QEAAXXZ 0000000180027ab1 f   PhysXCommon_64:PhysXCommon_64.dll
 0001:00026ab7       __imp_load_?buildAABBTree@Gu@physx@@YA_NAEAVAABBTreeBuildParams@12@AEAVNodeAllocator@12@AEAUBuildStats@12@AEAPEAI@Z 0000000180027ab7 f   PhysXCommon_64:PhysXCommon_64.dll
 0001:00026ac3       ?buildAABBTree@Gu@physx@@YA_NAEAVAABBTreeBuildParams@12@AEAVNodeAllocator@12@AEAUBuildStats@12@AEAPEAI@Z 0000000180027ac3 f   PhysXCommon_64:PhysXCommon_64.dll
 0001:00026ac9       __imp_load_?writeDword@physx@@YAXI_NAEAVPxOutputStream@1@@Z 0000000180027ac9 f   PhysXCommon_64:PhysXCommon_64.dll
 0001:00026ad5       ?writeDword@physx@@YAXI_NAEAVPxOutputStream@1@@Z 0000000180027ad5 f   PhysXCommon_64:PhysXCommon_64.dll
 0001:00026adb       __imp_load_?writeFloatBuffer@physx@@YAXPEBMI_NAEAVPxOutputStream@1@@Z 0000000180027adb f   PhysXCommon_64:PhysXCommon_64.dll
 0001:00026ae7       ?writeFloatBuffer@physx@@YAXPEBMI_NAEAVPxOutputStream@1@@Z 0000000180027ae7 f   PhysXCommon_64:PhysXCommon_64.dll
 0001:00026aed       __imp_load_?writeHeader@physx@@YA_NCCCCI_NAEAVPxOutputStream@1@@Z 0000000180027aed f   PhysXCommon_64:PhysXCommon_64.dll
 0001:00026af9       ?writeHeader@physx@@YA_NCCCCI_NAEAVPxOutputStream@1@@Z 0000000180027af9 f   PhysXCommon_64:PhysXCommon_64.dll
 0001:00026aff       __imp_load_?writeWord@physx@@YAXG_NAEAVPxOutputStream@1@@Z 0000000180027aff f   PhysXCommon_64:PhysXCommon_64.dll
 0001:00026b0b       ?writeWord@physx@@YAXG_NAEAVPxOutputStream@1@@Z 0000000180027b0b f   PhysXCommon_64:PhysXCommon_64.dll
 0001:00026b11       __imp_load_?writeFloat@physx@@YAXM_NAEAVPxOutputStream@1@@Z 0000000180027b11 f   PhysXCommon_64:PhysXCommon_64.dll
 0001:00026b1d       ?writeFloat@physx@@YAXM_NAEAVPxOutputStream@1@@Z 0000000180027b1d f   PhysXCommon_64:PhysXCommon_64.dll
 0001:00026b23       __imp_load_?computeBoundsAroundVertices@Gu@physx@@YAXAEAVPxBounds3@2@IPEIBVPxVec3@2@@Z 0000000180027b23 f   PhysXCommon_64:PhysXCommon_64.dll
 0001:00026b2f       ?computeBoundsAroundVertices@Gu@physx@@YAXAEAVPxBounds3@2@IPEIBVPxVec3@2@@Z 0000000180027b2f f   PhysXCommon_64:PhysXCommon_64.dll
 0001:00026b35       __imp_load_??0SourceMesh@Gu@physx@@QEAA@XZ 0000000180027b35 f   PhysXCommon_64:PhysXCommon_64.dll
 0001:00026b41       ??0SourceMesh@Gu@physx@@QEAA@XZ 0000000180027b41 f   PhysXCommon_64:PhysXCommon_64.dll
 0001:00026b47       __imp_load_??1SourceMesh@Gu@physx@@QEAA@XZ 0000000180027b47 f   PhysXCommon_64:PhysXCommon_64.dll
 0001:00026b53       ??1SourceMesh@Gu@physx@@QEAA@XZ 0000000180027b53 f   PhysXCommon_64:PhysXCommon_64.dll
 0001:00026b59       __imp_load_??0BV4Tree@Gu@physx@@QEAA@XZ 0000000180027b59 f   PhysXCommon_64:PhysXCommon_64.dll
 0001:00026b65       ??0BV4Tree@Gu@physx@@QEAA@XZ 0000000180027b65 f   PhysXCommon_64:PhysXCommon_64.dll
 0001:00026b6b       __imp_load_??1BV4Tree@Gu@physx@@QEAA@XZ 0000000180027b6b f   PhysXCommon_64:PhysXCommon_64.dll
 0001:00026b77       ??1BV4Tree@Gu@physx@@QEAA@XZ 0000000180027b77 f   PhysXCommon_64:PhysXCommon_64.dll
 0001:00026b7d       __imp_load_??0BV32Tree@Gu@physx@@QEAA@XZ 0000000180027b7d f   PhysXCommon_64:PhysXCommon_64.dll
 0001:00026b89       ??0BV32Tree@Gu@physx@@QEAA@XZ 0000000180027b89 f   PhysXCommon_64:PhysXCommon_64.dll
 0001:00026b8f       __imp_load_??1BV32Tree@Gu@physx@@QEAA@XZ 0000000180027b8f f   PhysXCommon_64:PhysXCommon_64.dll
 0001:00026b9b       ??1BV32Tree@Gu@physx@@QEAA@XZ 0000000180027b9b f   PhysXCommon_64:PhysXCommon_64.dll
 0001:00026ba1       __imp_load_?writeWordBuffer@physx@@YAXPEBGI_NAEAVPxOutputStream@1@@Z 0000000180027ba1 f   PhysXCommon_64:PhysXCommon_64.dll
 0001:00026bad       ?writeWordBuffer@physx@@YAXPEBGI_NAEAVPxOutputStream@1@@Z 0000000180027bad f   PhysXCommon_64:PhysXCommon_64.dll
 0001:00026bb3       __imp_load_?computeMaxIndex@physx@@YAIPEBII@Z 0000000180027bb3 f   PhysXCommon_64:PhysXCommon_64.dll
 0001:00026bbf       ?computeMaxIndex@physx@@YAIPEBII@Z 0000000180027bbf f   PhysXCommon_64:PhysXCommon_64.dll
 0001:00026bc5       __imp_load_?storeIndices@physx@@YAXIIPEBIAEAVPxOutputStream@1@_N@Z 0000000180027bc5 f   PhysXCommon_64:PhysXCommon_64.dll
 0001:00026bd1       ?storeIndices@physx@@YAXIIPEBIAEAVPxOutputStream@1@_N@Z 0000000180027bd1 f   PhysXCommon_64:PhysXCommon_64.dll
 0001:00026bd7       __imp_load_?BuildBV4Ex@Gu@physx@@YA_NAEAVBV4Tree@12@AEAVSourceMesh@12@MI@Z 0000000180027bd7 f   PhysXCommon_64:PhysXCommon_64.dll
 0001:00026be3       ?BuildBV4Ex@Gu@physx@@YA_NAEAVBV4Tree@12@AEAVSourceMesh@12@MI@Z 0000000180027be3 f   PhysXCommon_64:PhysXCommon_64.dll
 0001:00026be9       __imp_load_?BuildBV32Ex@Gu@physx@@YA_NAEAVBV32Tree@12@AEAVSourceMesh@12@MI@Z 0000000180027be9 f   PhysXCommon_64:PhysXCommon_64.dll
 0001:00026bf5       ?BuildBV32Ex@Gu@physx@@YA_NAEAVBV32Tree@12@AEAVSourceMesh@12@MI@Z 0000000180027bf5 f   PhysXCommon_64:PhysXCommon_64.dll
 0001:00026bfb       __imp_load_?computeMaxIndex@physx@@YAGPEBGI@Z 0000000180027bfb f   PhysXCommon_64:PhysXCommon_64.dll
 0001:00026c07       ?computeMaxIndex@physx@@YAGPEBGI@Z 0000000180027c07 f   PhysXCommon_64:PhysXCommon_64.dll
 0001:00026c0d       __imp_load_?WriteHeader@Gu@physx@@YA_NEEEEI_NAEAVPxOutputStream@2@@Z 0000000180027c0d f   PhysXCommon_64:PhysXCommon_64.dll
 0001:00026c19       ?WriteHeader@Gu@physx@@YA_NEEEEI_NAEAVPxOutputStream@2@@Z 0000000180027c19 f   PhysXCommon_64:PhysXCommon_64.dll
 0001:00026c1f       __imp_load_?StoreIndices@Gu@physx@@YAXGIPEBGAEAVPxOutputStream@2@_N@Z 0000000180027c1f f   PhysXCommon_64:PhysXCommon_64.dll
 0001:00026c2b       ?StoreIndices@Gu@physx@@YAXGIPEBGAEAVPxOutputStream@2@_N@Z 0000000180027c2b f   PhysXCommon_64:PhysXCommon_64.dll
 0001:00026c31       __imp_load_?CreateOffsets@BigConvexData@physx@@IEAAXXZ 0000000180027c31 f   PhysXCommon_64:PhysXCommon_64.dll
 0001:00026c3d       ?CreateOffsets@BigConvexData@physx@@IEAAXXZ 0000000180027c3d f   PhysXCommon_64:PhysXCommon_64.dll
 0001:00026c43       __imp_load_?computeOBBPoints@Gu@physx@@YAXPEIAVPxVec3@2@AEBV32@1111@Z 0000000180027c43 f   PhysXCommon_64:PhysXCommon_64.dll
 0001:00026c4f       ?computeOBBPoints@Gu@physx@@YAXPEIAVPxVec3@2@AEBV32@1111@Z 0000000180027c4f f   PhysXCommon_64:PhysXCommon_64.dll
 0001:00026c55       __imp_load_??0BigConvexData@physx@@QEAA@XZ 0000000180027c55 f   PhysXCommon_64:PhysXCommon_64.dll
 0001:00026c61       ??0BigConvexData@physx@@QEAA@XZ 0000000180027c61 f   PhysXCommon_64:PhysXCommon_64.dll
 0001:00026c67       __imp_load_??1BigConvexData@physx@@QEAA@XZ 0000000180027c67 f   PhysXCommon_64:PhysXCommon_64.dll
 0001:00026c73       ??1BigConvexData@physx@@QEAA@XZ 0000000180027c73 f   PhysXCommon_64:PhysXCommon_64.dll
 0001:00026c79       __imp_load_PxGetFoundation 0000000180027c79 f   PhysXFoundation_64:PhysXFoundation_64.dll
 0001:00026c85       PxGetFoundation            0000000180027c85 f   PhysXFoundation_64:PhysXFoundation_64.dll
 0001:00026c8b       __tailMerge_physxfoundation_64_dll 0000000180027c8b     PhysXFoundation_64:PhysXFoundation_64.dll
 0001:00026d04       __imp_load_?getAllocator@shdfnd@physx@@YAAEAVPxAllocatorCallback@2@XZ 0000000180027d04 f   PhysXFoundation_64:PhysXFoundation_64.dll
 0001:00026d10       ?getAllocator@shdfnd@physx@@YAAEAVPxAllocatorCallback@2@XZ 0000000180027d10 f   PhysXFoundation_64:PhysXFoundation_64.dll
 0001:00026d16       __imp_load_?getInstance@Foundation@shdfnd@physx@@SAAEAV123@XZ 0000000180027d16 f   PhysXFoundation_64:PhysXFoundation_64.dll
 0001:00026d22       ?getInstance@Foundation@shdfnd@physx@@SAAEAV123@XZ 0000000180027d22 f   PhysXFoundation_64:PhysXFoundation_64.dll
 0001:00026d28       __imp_load_?error@Foundation@shdfnd@physx@@QEAAXW4Enum@PxErrorCode@3@PEBDH1ZZ 0000000180027d28 f   PhysXFoundation_64:PhysXFoundation_64.dll
 0001:00026d34       ?error@Foundation@shdfnd@physx@@QEAAXW4Enum@PxErrorCode@3@PEBDH1ZZ 0000000180027d34 f   PhysXFoundation_64:PhysXFoundation_64.dll
 0001:00026d3a       __imp_load_?incRefCount@Foundation@shdfnd@physx@@SAXXZ 0000000180027d3a f   PhysXFoundation_64:PhysXFoundation_64.dll
 0001:00026d46       ?incRefCount@Foundation@shdfnd@physx@@SAXXZ 0000000180027d46 f   PhysXFoundation_64:PhysXFoundation_64.dll
 0001:00026d4c       __imp_load_?decRefCount@Foundation@shdfnd@physx@@SAXXZ 0000000180027d4c f   PhysXFoundation_64:PhysXFoundation_64.dll
 0001:00026d58       ?decRefCount@Foundation@shdfnd@physx@@SAXXZ 0000000180027d58 f   PhysXFoundation_64:PhysXFoundation_64.dll
 0001:00026d5e       __imp_load_??0FPUGuard@shdfnd@physx@@QEAA@XZ 0000000180027d5e f   PhysXFoundation_64:PhysXFoundation_64.dll
 0001:00026d6a       ??0FPUGuard@shdfnd@physx@@QEAA@XZ 0000000180027d6a f   PhysXFoundation_64:PhysXFoundation_64.dll
 0001:00026d70       __imp_load_??1FPUGuard@shdfnd@physx@@QEAA@XZ 0000000180027d70 f   PhysXFoundation_64:PhysXFoundation_64.dll
 0001:00026d7c       ??1FPUGuard@shdfnd@physx@@QEAA@XZ 0000000180027d7c f   PhysXFoundation_64:PhysXFoundation_64.dll
 0001:00026d82       __imp_load_?allocate@TempAllocator@shdfnd@physx@@QEAAPEAX_KPEBDH@Z 0000000180027d82 f   PhysXFoundation_64:PhysXFoundation_64.dll
 0001:00026d8e       ?allocate@TempAllocator@shdfnd@physx@@QEAAPEAX_KPEBDH@Z 0000000180027d8e f   PhysXFoundation_64:PhysXFoundation_64.dll
 0001:00026d94       __imp_load_?deallocate@TempAllocator@shdfnd@physx@@QEAAXPEAX@Z 0000000180027d94 f   PhysXFoundation_64:PhysXFoundation_64.dll
 0001:00026da0       ?deallocate@TempAllocator@shdfnd@physx@@QEAAXPEAX@Z 0000000180027da0 f   PhysXFoundation_64:PhysXFoundation_64.dll
 0001:00026da6       __imp_load_?PxDiagonalize@physx@@YA?AVPxVec3@1@AEBVPxMat33@1@AEAVPxQuat@1@@Z 0000000180027da6 f   PhysXFoundation_64:PhysXFoundation_64.dll
 0001:00026db2       ?PxDiagonalize@physx@@YA?AVPxVec3@1@AEBVPxMat33@1@AEAVPxQuat@1@@Z 0000000180027db2 f   PhysXFoundation_64:PhysXFoundation_64.dll
 0001:00026db8       ?DloadAcquireSectionWriteAccess@@YAXXZ 0000000180027db8 f i Delayimp:delayhlp.obj
 0001:00026e64       ?DloadGetSRWLockFunctionPointers@@YAEXZ 0000000180027e64 f i Delayimp:delayhlp.obj
 0001:00026f00       ?DloadMakePermanentImageCommit@@YAXPEAX_K@Z 0000000180027f00 f i Delayimp:delayhlp.obj
 0001:00026f98       ?DloadObtainSection@@YAPEAXPEAK0@Z 0000000180027f98 f i Delayimp:delayhlp.obj
 0001:00027034       ?DloadProtectSection@@YAXKPEAK@Z 0000000180028034 f i Delayimp:delayhlp.obj
 0001:000270c4       ?DloadReleaseSectionWriteAccess@@YAXXZ 00000001800280c4 f i Delayimp:delayhlp.obj
 0001:00027158       __delayLoadHelper2         0000000180028158 f   Delayimp:delayhlp.obj
 0001:0002742c       ??3@YAXPEAX_K@Z            000000018002842c f   LIBCMT:delete_scalar_size.obj
 0001:0002742c       ??_V@YAXPEAX@Z             000000018002842c f   LIBCMT:delete_array.obj
 0001:00027434       ??_Gtype_info@@UEAAPEAXI@Z 0000000180028434 f i LIBCMT:std_type_info_static.obj
 0001:00027434       ??_Etype_info@@UEAAPEAXI@Z 0000000180028434 f i LIBCMT:std_type_info_static.obj
 0001:00027460       ?__scrt_initialize_type_info@@YAXXZ 0000000180028460 f   LIBCMT:tncleanup.obj
 0001:00027470       ?__scrt_uninitialize_type_info@@YAXXZ 0000000180028470 f   LIBCMT:tncleanup.obj
 0001:00027490       __chkstk                   0000000180028490 f   LIBCMT:chkstk.obj
 0001:00027490       _alloca_probe              0000000180028490 f   LIBCMT:chkstk.obj
 0001:000274e0       ??3@YAXPEAX@Z              00000001800284e0 f   LIBCMT:delete_scalar.obj
 0001:000274f0       __vdecl_sinf4              00000001800284f0 f   LIBCMT:svml_ssinf4_dispatch.obj
 0001:00027510       __libm_sse2_sincosf_       0000000180028510 f   LIBCMT:svml_ssinf4_dispatch.obj
 0001:00027553       __libm_sse2_sincosf4_      0000000180028553 f   LIBCMT:svml_ssinf4_dispatch.obj
 0001:00027880       _DllMainCRTStartup         0000000180028880 f   LIBCMT:dll_dllmain.obj
 0001:000278c0       __isa_available_init       00000001800288c0 f   LIBCMT:cpu_disp.obj
 0001:00027a70       __sse2_sinf4@@16           0000000180028a70 f   LIBCMT:svml_ssinf4_sse2.obj
 0001:000283b0       __sse4_sinf4@@16           00000001800293b0 f   LIBCMT:svml_ssinf4_sse4.obj
 0001:00028b24       __security_init_cookie     0000000180029b24 f   LIBCMT:gs_support.obj
 0001:00028bd0       __local_stdio_printf_options 0000000180029bd0 f i LIBCMT:default_local_stdio_options.obj
 0001:00028bd8       __local_stdio_scanf_options 0000000180029bd8 f i LIBCMT:default_local_stdio_options.obj
 0001:00028be0       __scrt_initialize_default_local_stdio_options 0000000180029be0 f   LIBCMT:default_local_stdio_options.obj
 0001:00028bfc       __scrt_acquire_startup_lock 0000000180029bfc f   LIBCMT:utility.obj
 0001:00028c38       __scrt_dllmain_after_initialize_c 0000000180029c38 f   LIBCMT:utility.obj
 0001:00028c6c       __scrt_dllmain_before_initialize_c 0000000180029c6c f   LIBCMT:utility.obj
 0001:00028c84       __scrt_dllmain_crt_thread_attach 0000000180029c84 f   LIBCMT:utility.obj
 0001:00028cac       __scrt_dllmain_crt_thread_detach 0000000180029cac f   LIBCMT:utility.obj
 0001:00028cc4       __scrt_dllmain_exception_filter 0000000180029cc4 f   LIBCMT:utility.obj
 0001:00028d24       __scrt_dllmain_uninitialize_c 0000000180029d24 f   LIBCMT:utility.obj
 0001:00028d54       __scrt_dllmain_uninitialize_critical 0000000180029d54 f   LIBCMT:utility.obj
 0001:00028d68       __scrt_initialize_crt      0000000180029d68 f   LIBCMT:utility.obj
 0001:00028db4       __scrt_initialize_onexit_tables 0000000180029db4 f   LIBCMT:utility.obj
 0001:00028e40       __scrt_is_nonwritable_in_current_image 0000000180029e40 f   LIBCMT:utility.obj
 0001:00028ed8       __scrt_release_startup_lock 0000000180029ed8 f   LIBCMT:utility.obj
 0001:00028efc       __scrt_uninitialize_crt    0000000180029efc f   LIBCMT:utility.obj
 0001:00028f28       __scrt_get_dyn_tls_init_callback 0000000180029f28 f   LIBCMT:dyn_tls_init.obj
 0001:00028f30       __crt_debugger_hook        0000000180029f30 f   LIBCMT:utility_desktop.obj
 0001:00028f38       __scrt_fastfail            0000000180029f38 f   LIBCMT:utility_desktop.obj
 0001:00029084       _RTC_Initialize            000000018002a084 f   LIBCMT:initsect.obj
 0001:000290c0       _RTC_Terminate             000000018002a0c0 f   LIBCMT:initsect.obj
 0001:00029100       __common_ssin_cout_rare    000000018002a100 f   LIBCMT:svml_s_sin_cout.obj
 0001:00029170       __scrt_is_ucrt_dll_in_use  000000018002a170 f   LIBCMT:ucrt_detection.obj
 0001:0002917c       _get_purecall_handler      000000018002a17c f   libvcruntime:purevirt.obj
 0001:00029188       _purecall                  000000018002a188 f   libvcruntime:purevirt.obj
 0001:000291ac       __std_type_info_compare    000000018002a1ac f   libvcruntime:std_type_info.obj
 0001:000291d4       __std_type_info_destroy_list 000000018002a1d4 f   libvcruntime:std_type_info.obj
 0001:00029200       __std_type_info_name       000000018002a200 f   libvcruntime:std_type_info.obj
 0001:00029330       memset_repmovs             000000018002a330 f   libvcruntime:memset.obj
 0001:00029350       memset                     000000018002a350 f   libvcruntime:memset.obj
 0001:000294f0       memcpy_repmovs             000000018002a4f0 f   libvcruntime:memcpy.obj
 0001:00029510       memcpy                     000000018002a510 f   libvcruntime:memcpy.obj
 0001:00029510       memmove                    000000018002a510 f   libvcruntime:memcpy.obj
 0001:00029b88       strstr                     000000018002ab88 f   libvcruntime:strstr.obj
 0001:00029d84       __C_specific_handler       000000018002ad84 f   libvcruntime:riscchandler.obj
 0001:00029f90       __vcrt_initialize          000000018002af90 f   libvcruntime:initialization.obj
 0001:00029fb8       __vcrt_thread_attach       000000018002afb8 f   libvcruntime:initialization.obj
 0001:00029fcc       __vcrt_thread_detach       000000018002afcc f   libvcruntime:initialization.obj
 0001:00029fe0       __vcrt_uninitialize        000000018002afe0 f   libvcruntime:initialization.obj
 0001:00029ffc       __vcrt_uninitialize_critical 000000018002affc f   libvcruntime:initialization.obj
 0001:0002a00c       __DestructExceptionObject  000000018002b00c f   libvcruntime:ehhelpers.obj
 0001:0002a07c       ?_CallMemberFunction0@@YAXQEAX0@Z 000000018002b07c f i libvcruntime:ehhelpers.obj
 0001:0002a080       _IsExceptionObjectToBeDestroyed 000000018002b080 f   libvcruntime:ehhelpers.obj
 0001:0002a0b0       __AdjustPointer            000000018002b0b0 f   libvcruntime:ehhelpers.obj
 0001:0002a0d4       __FrameUnwindFilter        000000018002b0d4 f   libvcruntime:ehhelpers.obj
 0001:0002a13c       ??$?0$00@DName@@QEAA@PEBDU?$StringLifeSelector@$00@@@Z 000000018002b13c f i libvcruntime:undname.obj
 0001:0002a17c       ??$?0$01@DName@@QEAA@PEBDU?$StringLifeSelector@$01@@@Z 000000018002b17c f i libvcruntime:undname.obj
 0001:0002a17c       ??$?0$0A@@DName@@QEAA@PEBDU?$StringLifeSelector@$0A@@@@Z 000000018002b17c f i libvcruntime:undname.obj
 0001:0002a1bc       ??$?0$01@pcharNode@@QEAA@PEBDHU?$StringLifeSelector@$01@@@Z 000000018002b1bc f i libvcruntime:undname.obj
 0001:0002a1bc       ??$?0$0A@@pcharNode@@QEAA@PEBDHU?$StringLifeSelector@$0A@@@@Z 000000018002b1bc f i libvcruntime:undname.obj
 0001:0002a230       ??$append@VDNameNode@@@DName@@AEAAXPEBVDNameNode@@@Z 000000018002b230 f i libvcruntime:undname.obj
 0001:0002a230       ??$append@VDNameStatusNode@@@DName@@AEAAXPEBVDNameStatusNode@@@Z 000000018002b230 f i libvcruntime:undname.obj
 0001:0002a230       ??$append@VcharNode@@@DName@@AEAAXPEBVcharNode@@@Z 000000018002b230 f i libvcruntime:undname.obj
 0001:0002a230       ??$append@VpcharNode@@@DName@@AEAAXPEBVpcharNode@@@Z 000000018002b230 f i libvcruntime:undname.obj
 0001:0002a294       ??$doPchar@$00@DName@@AEAAXPEBDH@Z 000000018002b294 f i libvcruntime:undname.obj
 0001:0002a338       ??$doPchar@$0A@@DName@@AEAAXPEBDH@Z 000000018002b338 f i libvcruntime:undname.obj
 0001:0002a338       ??$doPchar@$01@DName@@AEAAXPEBDH@Z 000000018002b338 f i libvcruntime:undname.obj
 0001:0002a3d0       ??0DName@@QEAA@AEAPEBDD@Z  000000018002b3d0 f   libvcruntime:undname.obj
 0001:0002a480       ??0DName@@QEAA@AEBUStringLiteral@@@Z 000000018002b480 f   libvcruntime:undname.obj
 0001:0002a4ac       ??0DName@@QEAA@PEAV0@@Z    000000018002b4ac f   libvcruntime:undname.obj
 0001:0002a530       ??0DName@@QEAA@_J@Z        000000018002b530 f   libvcruntime:undname.obj
 0001:0002a5d8       ??0DName@@QEAA@_K@Z        000000018002b5d8 f   libvcruntime:undname.obj
 0001:0002a668       ??2@YAPEAX_KAEAV_HeapManager@@H@Z 000000018002b668 f   libvcruntime:undname.obj
 0001:0002a694       ??AReplicator@@QEBA?AVDName@@H@Z 000000018002b694 f   libvcruntime:undname.obj
 0001:0002a6d4       ??HDName@@QEBA?AV0@AEBUStringLiteral@@@Z 000000018002b6d4 f   libvcruntime:undname.obj
 0001:0002a700       ??HDName@@QEBA?AV0@AEBV0@@Z 000000018002b700 f   libvcruntime:undname.obj
 0001:0002a72c       ??HDName@@QEBA?AV0@D@Z     000000018002b72c f   libvcruntime:undname.obj
 0001:0002a758       ??HDName@@QEBA?AV0@W4DNameStatus@@@Z 000000018002b758 f   libvcruntime:undname.obj
 0001:0002a784       ??YDName@@QEAAAEAV0@AEBUStringLiteral@@@Z 000000018002b784 f   libvcruntime:undname.obj
 0001:0002a804       ??YDName@@QEAAAEAV0@AEBV0@@Z 000000018002b804 f   libvcruntime:undname.obj
 0001:0002a8b8       ??YDName@@QEAAAEAV0@D@Z    000000018002b8b8 f   libvcruntime:undname.obj
 0001:0002a924       ??YDName@@QEAAAEAV0@W4DNameStatus@@@Z 000000018002b924 f   libvcruntime:undname.obj
 0001:0002a990       ??YReplicator@@QEAAAEAV0@AEBVDName@@@Z 000000018002b990 f   libvcruntime:undname.obj
 0001:0002a9e8       ?UScore@UnDecorator@@SA?AUStringLiteral@@W4Tokens@@@Z 000000018002b9e8 f   libvcruntime:undname.obj
 0001:0002aa34       ?composeDeclaration@UnDecorator@@CA?AVDName@@AEBV2@@Z 000000018002ba34 f i libvcruntime:undname.obj
 0001:0002b8dc       ?doPchar@DName@@AEAAXD@Z   000000018002c8dc f   libvcruntime:undname.obj
 0001:0002b92c       ?getAddressOf@UnDecorator@@CA?AVDName@@XZ 000000018002c92c f   libvcruntime:undname.obj
 0001:0002b9bc       ?getArgumentList@UnDecorator@@CA?AVDName@@XZ 000000018002c9bc f   libvcruntime:undname.obj
 0001:0002bb50       ?getArgumentTypes@UnDecorator@@CA?AVDName@@XZ 000000018002cb50 f   libvcruntime:undname.obj
 0001:0002bcac       ?getArrayAccess@UnDecorator@@CA?AVDName@@XZ 000000018002ccac f   libvcruntime:undname.obj
 0001:0002bd48       ?getArrayObject@UnDecorator@@CA?AVDName@@XZ 000000018002cd48 f   libvcruntime:undname.obj
 0001:0002be10       ?getArrayType@UnDecorator@@CA?AVDName@@AEBV2@@Z 000000018002ce10 f i libvcruntime:undname.obj
 0001:0002c058       ?getBasedType@UnDecorator@@CA?AVDName@@XZ 000000018002d058 f   libvcruntime:undname.obj
 0001:0002c150       ?getBasicDataType@UnDecorator@@CA?AVDName@@AEBV2@@Z 000000018002d150 f   libvcruntime:undname.obj
 0001:0002c700       ?getCallingConvention@UnDecorator@@CA?AVDName@@XZ 000000018002d700 f   libvcruntime:undname.obj
 0001:0002c840       ?getDataIndirectType@UnDecorator@@CA?AVDName@@AEBV2@W4IndirectionKind@@0H@Z 000000018002d840 f   libvcruntime:undname.obj
 0001:0002d0d8       ?getDataType@UnDecorator@@CA?AVDName@@PEAV2@@Z 000000018002e0d8 f   libvcruntime:undname.obj
 0001:0002d1ec       ?getDecoratedName@UnDecorator@@CA?AVDName@@XZ 000000018002e1ec f   libvcruntime:undname.obj
 0001:0002d4d0       ?getDimension@UnDecorator@@CA?AVDName@@_N@Z 000000018002e4d0 f   libvcruntime:undname.obj
 0001:0002d61c       ?getDispatchTarget@UnDecorator@@CA?AVDName@@XZ 000000018002e61c f   libvcruntime:undname.obj
 0001:0002d668       ?getECSUDataType@UnDecorator@@CA?AVDName@@XZ 000000018002e668 f   libvcruntime:undname.obj
 0001:0002d848       ?getEnumType@UnDecorator@@CA?AVDName@@XZ 000000018002e848 f i libvcruntime:undname.obj
 0001:0002d978       ?getExtendedDataIndirectType@UnDecorator@@CA?AVDName@@AEAW4IndirectionKind@@AEA_NH@Z 000000018002e978 f   libvcruntime:undname.obj
 0001:0002db80       ?getExternalDataType@UnDecorator@@CA?AVDName@@AEBV2@@Z 000000018002eb80 f i libvcruntime:undname.obj
 0001:0002dc40       ?getFloatingPoint@UnDecorator@@CA?AVDName@@H@Z 000000018002ec40 f   libvcruntime:undname.obj
 0001:0002dd68       ?getFunctionIndirectType@UnDecorator@@CA?AVDName@@AEBV2@@Z 000000018002ed68 f   libvcruntime:undname.obj
 0001:0002e2a0       ?getLastChar@DNameStatusNode@@UEBADXZ 000000018002f2a0 f i libvcruntime:undname.obj
 0001:0002e2ac       ?getLastChar@charNode@@UEBADXZ 000000018002f2ac f i libvcruntime:undname.obj
 0001:0002e2b0       ?getLastChar@pDNameNode@@UEBADXZ 000000018002f2b0 f i libvcruntime:undname.obj
 0001:0002e2dc       ?getLastChar@pairNode@@UEBADXZ 000000018002f2dc f i libvcruntime:undname.obj
 0001:0002e314       ?getLastChar@pcharNode@@UEBADXZ 000000018002f314 f i libvcruntime:undname.obj
 0001:0002e328       ?getLexicalFrame@UnDecorator@@CA?AVDName@@XZ 000000018002f328 f i libvcruntime:undname.obj
 0001:0002e38c       ?getMemberAccess@UnDecorator@@CA?AVDName@@XZ 000000018002f38c f   libvcruntime:undname.obj
 0001:0002e420       ?getMemoryWithBuffer@_HeapManager@@QEAAPEAX_K@Z 000000018002f420 f   libvcruntime:undname.obj
 0001:0002e4b0       ?getNoexcept@UnDecorator@@CA?AVDName@@XZ 000000018002f4b0 f   libvcruntime:undname.obj
 0001:0002e514       ?getNumberOfDimensions@UnDecorator@@CAHXZ 000000018002f514 f   libvcruntime:undname.obj
 0001:0002e588       ?getOperatorName@UnDecorator@@CA?AVDName@@_NPEA_N@Z 000000018002f588 f i libvcruntime:undname.obj
 0001:0002ef7c       ?getPointerToMember@UnDecorator@@CA?AVDName@@XZ 000000018002ff7c f   libvcruntime:undname.obj
 0001:0002f074       ?getPrimaryDataType@UnDecorator@@CA?AVDName@@AEBV2@@Z 0000000180030074 f   libvcruntime:undname.obj
 0001:0002f328       ?getPtrRefDataType@UnDecorator@@CA?AVDName@@AEBV2@H@Z 0000000180030328 f   libvcruntime:undname.obj
 0001:0002f4f4       ?getPtrRefType@UnDecorator@@CA?AVDName@@AEBV2@0W4IndirectionKind@@@Z 00000001800304f4 f   libvcruntime:undname.obj
 0001:0002f6cc       ?getRestrictionSpec@UnDecorator@@CA?AVDName@@XZ 00000001800306cc f   libvcruntime:undname.obj
 0001:0002f898       ?getReturnType@UnDecorator@@CA?AVDName@@PEAV2@@Z 0000000180030898 f   libvcruntime:undname.obj
 0001:0002f8cc       ?getScope@UnDecorator@@CA?AVDName@@XZ 00000001800308cc f   libvcruntime:undname.obj
 0001:0002fd80       ?getScopedName@UnDecorator@@CA?AVDName@@XZ 0000000180030d80 f   libvcruntime:undname.obj
 0001:0002febc       ?getSignedDimension@UnDecorator@@CA?AVDName@@XZ 0000000180030ebc f   libvcruntime:undname.obj
 0001:0002ff44       ?getString@DNameStatusNode@@UEBAPEADPEAD0@Z 0000000180030f44 f i libvcruntime:undname.obj
 0001:0002ff8c       ?getString@charNode@@UEBAPEADPEAD0@Z 0000000180030f8c f i libvcruntime:undname.obj
 0001:0002ffa0       ?getString@pDNameNode@@UEBAPEADPEAD0@Z 0000000180030fa0 f i libvcruntime:undname.obj
 0001:0002ffd0       ?getString@pairNode@@UEBAPEADPEAD0@Z 0000000180030fd0 f i libvcruntime:undname.obj
 0001:0003001c       ?getString@pcharNode@@UEBAPEADPEAD0@Z 000000018003101c f i libvcruntime:undname.obj
 0001:00030054       ?getStringEncoding@UnDecorator@@CA?AVDName@@W4PrefixKind@@H@Z 0000000180031054 f   libvcruntime:undname.obj
 0001:00030138       ?getStringObject@UnDecorator@@CA?AVDName@@XZ 0000000180031138 f   libvcruntime:undname.obj
 0001:000301a0       ?getSymbolName@UnDecorator@@CA?AVDName@@XZ 00000001800311a0 f i libvcruntime:undname.obj
 0001:000301ec       ?getTemplateArgumentList@UnDecorator@@CA?AVDName@@XZ 00000001800311ec f   libvcruntime:undname.obj
 0001:00030460       ?getTemplateName@UnDecorator@@CA?AVDName@@_N@Z 0000000180031460 f   libvcruntime:undname.obj
 0001:000306f4       ?getTemplateNonTypeArgument@UnDecorator@@CA?AVDName@@XZ 00000001800316f4 f   libvcruntime:undname.obj
 0001:00030c28       ?getTemplateTypeArgument@UnDecorator@@CA?AVDName@@XZ 0000000180031c28 f   libvcruntime:undname.obj
 0001:00030d90       ?getThrowTypes@UnDecorator@@CA?AVDName@@XZ 0000000180031d90 f   libvcruntime:undname.obj
 0001:00030db4       ?getTypeEncoding@UnDecorator@@CAHXZ 0000000180031db4 f i libvcruntime:undname.obj
 0001:00031144       ?getUndecoratedName@UnDecorator@@QEAAPEADPEADH@Z 0000000180032144 f i libvcruntime:undname.obj
 0001:00031298       ?getUnionObject@UnDecorator@@CA?AVDName@@XZ 0000000180032298 f   libvcruntime:undname.obj
 0001:00031370       ?getVCallThunkType@UnDecorator@@CA?AVDName@@XZ 0000000180032370 f i libvcruntime:undname.obj
 0001:000313e8       ?getValue@UnDecorator@@CA?AV?$optional@_K@std@@XZ 00000001800323e8 f   libvcruntime:undname.obj
 0001:0003145c       ?getValueObject@UnDecorator@@CA?AVDName@@XZ 000000018003245c f   libvcruntime:undname.obj
 0001:000315b4       ?getVdispMapType@UnDecorator@@CA?AVDName@@AEBV2@@Z 00000001800325b4 f i libvcruntime:undname.obj
 0001:00031630       ?getVfTableType@UnDecorator@@CA?AVDName@@AEBV2@@Z 0000000180032630 f i libvcruntime:undname.obj
 0001:00031838       ?getZName@UnDecorator@@CA?AVDName@@_N0@Z 0000000180032838 f   libvcruntime:undname.obj
 0001:00031b20       ?length@DNameStatusNode@@UEBAHXZ 0000000180032b20 f i libvcruntime:undname.obj
 0001:00031b20       ?raw_length@DNameStatusNode@@UEBAHXZ 0000000180032b20 f i libvcruntime:undname.obj
 0001:00031b24       ?length@pDNameNode@@UEBAHXZ 0000000180032b24 f i libvcruntime:undname.obj
 0001:00031b4c       ?length@pairNode@@UEBAHXZ  0000000180032b4c f i libvcruntime:undname.obj
 0001:00031b94       ?parseDecoratedName@UnDecorator@@CA?AVDName@@XZ 0000000180032b94 f   libvcruntime:undname.obj
 0001:00031ca8       ?raw_length@pDNameNode@@UEBAHXZ 0000000180032ca8 f i libvcruntime:undname.obj
 0001:00031cac       ?raw_length@pairNode@@UEBAHXZ 0000000180032cac f i libvcruntime:undname.obj
 0001:00031cb0       __unDName                  0000000180032cb0 f   libvcruntime:undname.obj
 0001:00031cd8       __unDNameEx                0000000180032cd8 f   libvcruntime:undname.obj
 0001:00031e0c       sprintf_s                  0000000180032e0c f i libvcruntime:undname.obj
 0001:00031e70       _NLG_Notify                0000000180032e70 f   libvcruntime:notify.obj
 0001:00031e90       __NLG_Dispatch2            0000000180032e90 f   libvcruntime:notify.obj
 0001:00031ea0       __NLG_Return2              0000000180032ea0 f   libvcruntime:notify.obj
 0001:00031ea4       __except_validate_context_record 0000000180032ea4 f   libvcruntime:jbcxrval.obj
 0001:00031edc       __vcrt_freefls             0000000180032edc f   libvcruntime:per_thread_data.obj
 0001:00031efc       __vcrt_freeptd             0000000180032efc f   libvcruntime:per_thread_data.obj
 0001:00031f4c       __vcrt_getptd              0000000180032f4c f   libvcruntime:per_thread_data.obj
 0001:00031f68       __vcrt_getptd_noexit       0000000180032f68 f   libvcruntime:per_thread_data.obj
 0001:00032028       __vcrt_initialize_ptd      0000000180033028 f   libvcruntime:per_thread_data.obj
 0001:00032070       __vcrt_uninitialize_ptd    0000000180033070 f   libvcruntime:per_thread_data.obj
 0001:00032094       __vcrt_initialize_locks    0000000180033094 f   libvcruntime:locks.obj
 0001:000320c8       __vcrt_lock                00000001800330c8 f   libvcruntime:locks.obj
 0001:000320e4       __vcrt_uninitialize_locks  00000001800330e4 f   libvcruntime:locks.obj
 0001:0003211c       __vcrt_unlock              000000018003311c f   libvcruntime:locks.obj
 0001:00032138       ??$_CallSETranslator@V__FrameHandler4@@@@YAHPEAUEHExceptionRecord@@PEA_KPEAU_CONTEXT@@PEAU_xDISPATCHER_CONTEXT@@PEAUFuncInfo4@FH4@@K1H@Z 0000000180033138 f i libvcruntime:risctrnsctrl.obj
 0001:0003218c       ?DecompFuncInfo@FH4@@YA_JPEAEAEAUFuncInfo4@1@_KH_N@Z 000000018003318c f i libvcruntime:risctrnsctrl.obj
 0001:000322b0       ?ExecutionInCatch@__FrameHandler4@@SA_NPEAU_xDISPATCHER_CONTEXT@@PEAUFuncInfo4@FH4@@@Z 00000001800332b0 f   libvcruntime:risctrnsctrl.obj
 0001:000322b8       ?FrameUnwindToEmptyState@__FrameHandler4@@SAXPEA_KPEAU_xDISPATCHER_CONTEXT@@PEAUFuncInfo4@FH4@@@Z 00000001800332b8 f   libvcruntime:risctrnsctrl.obj
 0001:000322ec       ?GetEstablisherFrame@__FrameHandler4@@SAPEA_KPEA_KPEAU_xDISPATCHER_CONTEXT@@PEAUFuncInfo4@FH4@@0@Z 00000001800332ec f   libvcruntime:risctrnsctrl.obj
 0001:00032310       ?GetRangeOfTrysToCheck@__FrameHandler4@@SA?AU?$pair@Viterator@TryBlockMap4@FH4@@V123@@std@@AEAVTryBlockMap4@FH4@@HPEAU_xDISPATCHER_CONTEXT@@PEAUFuncInfo4@5@H@Z 0000000180033310 f   libvcruntime:risctrnsctrl.obj
 0001:00032478       ?UnwindNestedFrames@__FrameHandler4@@SAXPEA_KPEAUEHExceptionRecord@@PEAU_CONTEXT@@0PEAXPEAUFuncInfo4@FH4@@HHPEAUHandlerType4@5@PEAU_xDISPATCHER_CONTEXT@@E@Z 0000000180033478 f   libvcruntime:risctrnsctrl.obj
 0001:00032598       ?setBuffer@TryBlockMap4@FH4@@QEAAXViterator@12@@Z 0000000180033598 f i libvcruntime:risctrnsctrl.obj
 0001:00032758       _CreateFrameInfo           0000000180033758 f   libvcruntime:risctrnsctrl.obj
 0001:00032794       _FindAndUnlinkFrame        0000000180033794 f   libvcruntime:risctrnsctrl.obj
 0001:000327e8       _GetImageBase              00000001800337e8 f   libvcruntime:risctrnsctrl.obj
 0001:000327fc       _GetThrowImageBase         00000001800337fc f   libvcruntime:risctrnsctrl.obj
 0001:00032810       _SetImageBase              0000000180033810 f   libvcruntime:risctrnsctrl.obj
 0001:00032828       _SetThrowImageBase         0000000180033828 f   libvcruntime:risctrnsctrl.obj
 0001:00032840       __CxxFrameHandler4         0000000180033840 f   libvcruntime:risctrnsctrl.obj
 0001:00032a50       __vcrt_FlsAlloc            0000000180033a50 f   libvcruntime:winapi_downlevel.obj
 0001:00032a98       __vcrt_FlsFree             0000000180033a98 f   libvcruntime:winapi_downlevel.obj
 0001:00032ae0       __vcrt_FlsGetValue         0000000180033ae0 f   libvcruntime:winapi_downlevel.obj
 0001:00032b28       __vcrt_FlsSetValue         0000000180033b28 f   libvcruntime:winapi_downlevel.obj
 0001:00032b7c       __vcrt_InitializeCriticalSectionEx 0000000180033b7c f   libvcruntime:winapi_downlevel.obj
 0001:00032be0       ?StateFromControlPc@__FrameHandler4@@SAHPEAUFuncInfo4@FH4@@PEAU_xDISPATCHER_CONTEXT@@@Z 0000000180033be0 f   libvcruntime:ehstate.obj
 0001:00032be8       ?StateFromIp@__FrameHandler4@@SAHPEAUFuncInfo4@FH4@@PEAU_xDISPATCHER_CONTEXT@@_K@Z 0000000180033be8 f   libvcruntime:ehstate.obj
 0001:00033858       ??$TypeMatchHelper@V__FrameHandler3@@@@YAHPEBU_s_HandlerType@@PEBU_s_CatchableType@@PEBU_s_ThrowInfo@@@Z 0000000180034858 f i libvcruntime:frame.obj
 0001:00033998       ??$TypeMatchHelper@V__FrameHandler4@@@@YAHPEAUHandlerType4@FH4@@PEBU_s_CatchableType@@PEBU_s_ThrowInfo@@@Z 0000000180034998 f i libvcruntime:frame.obj
 0001:00033adc       ??$__InternalCxxFrameHandler@V__FrameHandler4@@@@YA?AW4_EXCEPTION_DISPOSITION@@PEAUEHExceptionRecord@@PEA_KPEAU_CONTEXT@@PEAU_xDISPATCHER_CONTEXT@@PEAUFuncInfo4@FH4@@H1E@Z 0000000180034adc f i libvcruntime:frame.obj
 0001:00033d70       ??0HandlerMap4@FH4@@QEAA@PEBUTryBlockMapEntry4@1@_KH@Z 0000000180034d70 f i libvcruntime:frame.obj
 0001:00033dec       ??0TryBlockMap4@FH4@@QEAA@PEBUFuncInfo4@1@_K@Z 0000000180034dec f i libvcruntime:frame.obj
 0001:00033ec4       ??0bad_exception@std@@QEAA@AEBV01@@Z 0000000180034ec4 f i libvcruntime:frame.obj
 0001:00033f00       ??0bad_exception@std@@QEAA@XZ 0000000180034f00 f i libvcruntime:frame.obj
 0001:00033f20       ??0exception@std@@QEAA@AEBV01@@Z 0000000180034f20 f i libvcruntime:frame.obj
 0001:00033f54       ??1bad_exception@std@@UEAA@XZ 0000000180034f54 f i libvcruntime:frame.obj
 0001:00033f68       ??_Eexception@std@@UEAAPEAXI@Z 0000000180034f68 f i libvcruntime:frame.obj
 0001:00033f68       ??_Gbad_exception@std@@UEAAPEAXI@Z 0000000180034f68 f i libvcruntime:frame.obj
 0001:00033f68       ??_Gexception@std@@UEAAPEAXI@Z 0000000180034f68 f i libvcruntime:frame.obj
 0001:00033f68       ??_Ebad_exception@std@@UEAAPEAXI@Z 0000000180034f68 f i libvcruntime:frame.obj
 0001:00033fac       ?CxxCallCatchBlock@__FrameHandler4@@SAPEAXPEAU_EXCEPTION_RECORD@@@Z 0000000180034fac f   libvcruntime:frame.obj
 0001:000341fc       ?DecompHandler@HandlerMap4@FH4@@AEAAXXZ 00000001800351fc f i libvcruntime:frame.obj
 0001:0003443c       ?FrameUnwindToState@__FrameHandler4@@SAXPEA_KPEAU_xDISPATCHER_CONTEXT@@PEAUFuncInfo4@FH4@@H@Z 000000018003543c f   libvcruntime:frame.obj
 0001:0003489c       ?ReadEntry@UWMap4@FH4@@AEAAXPEAPEAE@Z 000000018003589c f i libvcruntime:frame.obj
 0001:0003493c       ?_CallMemberFunction1@@YAXQEAX00@Z 000000018003593c f i libvcruntime:frame.obj
 0001:00034948       ?_CallMemberFunction2@@YAXQEAX00H@Z 0000000180035948 f i libvcruntime:frame.obj
 0001:00034958       ?getStartStop@UWMap4@FH4@@QEAAXHHAEAViterator@12@0@Z 0000000180035958 f i libvcruntime:frame.obj
 0001:00034a28       ?getStateFromIterators@UWMap4@FH4@@SAHAEBViterator@12@H0H0@Z 0000000180035a28 f i libvcruntime:frame.obj
 0001:00034af0       ?what@exception@std@@UEBAPEBDXZ 0000000180035af0 f i libvcruntime:frame.obj
 0001:00034b20       _CallSettingFrame          0000000180035b20 f   libvcruntime:handlers.obj
 0001:00034b70       _CallSettingFrame_LookupContinuationIndex 0000000180035b70 f   libvcruntime:handlers.obj
 0001:00034ba0       _CallSettingFrame_NotifyContinuationAddr 0000000180035ba0 f   libvcruntime:handlers.obj
 0001:00034bd0       _CallSettingFrameEncoded   0000000180035bd0 f   libvcruntime:handlers.obj
 0001:00034c18       __std_exception_copy       0000000180035c18 f   libvcruntime:std_exception.obj
 0001:00034ca8       __std_exception_destroy    0000000180035ca8 f   libvcruntime:std_exception.obj
 0001:00034cd0       _CxxThrowException         0000000180035cd0 f   libvcruntime:throw.obj
 0001:00034d80       strcmp                     0000000180035d80 f   libucrt:strcmp.obj
 0001:00034de8       atan2f                     0000000180035de8 f   libucrt:atan2f.obj
 0001:000351e0       cosf                       00000001800361e0 f   libucrt:cosf.obj
 0001:000356e0       sinf                       00000001800366e0 f   libucrt:sinf.obj
 0001:00035dd8       _fpclass                   0000000180036dd8 f   libucrt:ieeemisc.obj
 0001:00035e60       free                       0000000180036e60 f   libucrt:free.obj
 0001:00035e74       _initterm                  0000000180036e74 f   libucrt:initterm.obj
 0001:00035ed8       _initterm_e                0000000180036ed8 f   libucrt:initterm.obj
 0001:00035f18       _seh_filter_dll            0000000180036f18 f   libucrt:exception_filter.obj
 0001:00035f2c       _seh_filter_exe            0000000180036f2c f   libucrt:exception_filter.obj
 0001:0003631c       __acrt_initialize_thread_local_exit_callback 000000018003731c f   libucrt:exit.obj
 0001:00036324       _cexit                     0000000180037324 f   libucrt:exit.obj
 0001:00036334       _exit                      0000000180037334 f   libucrt:exit.obj
 0001:00036340       _is_c_termination_complete 0000000180037340 f   libucrt:exit.obj
 0001:00036508       __acrt_allocate_buffer_for_argv 0000000180037508 f   libucrt:argv_parsing.obj
 0001:00036568       _configure_narrow_argv     0000000180037568 f   libucrt:argv_parsing.obj
 0001:000368e0       __dcrt_uninitialize_environments_nolock 00000001800378e0 f   libucrt:environment_initialization.obj
 0001:00036918       _initialize_narrow_environment 0000000180037918 f   libucrt:environment_initialization.obj
 0001:00036a74       _execute_onexit_table      0000000180037a74 f   libucrt:onexit.obj
 0001:00036ab0       _initialize_onexit_table   0000000180037ab0 f   libucrt:onexit.obj
 0001:00036b10       __acrt_uninitialize_command_line 0000000180037b10 f   libucrt:argv_data.obj
 0001:00036c08       __acrt_initialize          0000000180037c08 f   libucrt:initialization.obj
 0001:00036c1c       __acrt_thread_attach       0000000180037c1c f   libucrt:initialization.obj
 0001:00036c30       __acrt_thread_detach       0000000180037c30 f   libucrt:initialization.obj
 0001:00036c40       __acrt_uninitialize        0000000180037c40 f   libucrt:initialization.obj
 0001:00036c78       __acrt_uninitialize_critical 0000000180037c78 f   libucrt:initialization.obj
 0001:00036c88       terminate                  0000000180037c88 f   libucrt:terminate.obj
 0001:00036ca8       abort                      0000000180037ca8 f   libucrt:abort.obj
 0001:00036d00       malloc                     0000000180037d00 f   libucrt:malloc.obj
 0001:00036d08       strcpy_s                   0000000180037d08 f   libucrt:strcpy_s.obj
 0001:00036f34       ??$ensure_buffer_is_big_enough@D@formatting_buffer@__crt_stdio_output@@QEAA_N_K@Z 0000000180037f34 f i libucrt:output.obj
 0001:00036fdc       ??$type_case_integer_parse_into_buffer@I@?$output_processor@DV?$string_output_adapter@D@__crt_stdio_output@@V?$format_validation_base@DV?$string_output_adapter@D@__crt_stdio_output@@@2@@__crt_stdio_output@@AEAAXII_N@Z 0000000180037fdc f i libucrt:output.obj
 0001:00037064       ??$type_case_integer_parse_into_buffer@_K@?$output_processor@DV?$string_output_adapter@D@__crt_stdio_output@@V?$format_validation_base@DV?$string_output_adapter@D@__crt_stdio_output@@@2@@__crt_stdio_output@@AEAAX_KI_N@Z 0000000180038064 f i libucrt:output.obj
 0001:000370f4       ??$write_multiple_characters@V?$string_output_adapter@D@__crt_stdio_output@@D@__crt_stdio_output@@YAXAEBV?$string_output_adapter@D@0@DHQEAH@Z 00000001800380f4 f i libucrt:output.obj
 0001:0003716c       ??0_LocaleUpdate@@QEAA@QEAU__crt_locale_pointers@@@Z 000000018003816c f i libucrt:output.obj
 0001:00037210       ?crop_zeroes@__crt_stdio_output@@YAXPEADQEAU__crt_locale_pointers@@@Z 0000000180038210 f i libucrt:output.obj
 0001:000372b0       ?force_decimal_point@__crt_stdio_output@@YAXPEADQEAU__crt_locale_pointers@@@Z 00000001800382b0 f i libucrt:output.obj
 0001:00037328       ?parse_int_from_format_string@?$output_processor@DV?$string_output_adapter@D@__crt_stdio_output@@V?$format_validation_base@DV?$string_output_adapter@D@__crt_stdio_output@@@2@@__crt_stdio_output@@AEAA_NQEAH@Z 0000000180038328 f i libucrt:output.obj
 0001:000373cc       ?process@?$output_processor@DV?$string_output_adapter@D@__crt_stdio_output@@V?$format_validation_base@DV?$string_output_adapter@D@__crt_stdio_output@@@2@@__crt_stdio_output@@QEAAHXZ 00000001800383cc f i libucrt:output.obj
 0001:000375e0       ?state_case_normal@?$output_processor@DV?$string_output_adapter@D@__crt_stdio_output@@V?$format_validation_base@DV?$string_output_adapter@D@__crt_stdio_output@@@2@@__crt_stdio_output@@AEAA_NXZ 00000001800385e0 f i libucrt:output.obj
 0001:00037654       ?state_case_normal_tchar@?$output_processor@DV?$string_output_adapter@D@__crt_stdio_output@@V?$format_validation_base@DV?$string_output_adapter@D@__crt_stdio_output@@@2@@__crt_stdio_output@@AEAA_ND@Z 0000000180038654 f i libucrt:output.obj
 0001:000376fc       ?state_case_size@?$output_processor@DV?$string_output_adapter@D@__crt_stdio_output@@V?$format_validation_base@DV?$string_output_adapter@D@__crt_stdio_output@@@2@@__crt_stdio_output@@AEAA_NXZ 00000001800386fc f i libucrt:output.obj
 0001:0003786c       ?state_case_type@?$output_processor@DV?$string_output_adapter@D@__crt_stdio_output@@V?$format_validation_base@DV?$string_output_adapter@D@__crt_stdio_output@@@2@@__crt_stdio_output@@AEAA_NXZ 000000018003886c f i libucrt:output.obj
 0001:00037ae0       ?to_integer_size@__crt_stdio_output@@YA_KW4length_modifier@1@@Z 0000000180038ae0 f i libucrt:output.obj
 0001:00037b48       ?type_case_Z@?$output_processor@DV?$string_output_adapter@D@__crt_stdio_output@@V?$format_validation_base@DV?$string_output_adapter@D@__crt_stdio_output@@@2@@__crt_stdio_output@@AEAA_NXZ 0000000180038b48 f i libucrt:output.obj
 0001:00037bbc       ?type_case_a@?$output_processor@DV?$string_output_adapter@D@__crt_stdio_output@@V?$format_validation_base@DV?$string_output_adapter@D@__crt_stdio_output@@@2@@__crt_stdio_output@@AEAA_NXZ 0000000180038bbc f i libucrt:output.obj
 0001:00037d78       ?type_case_c_tchar@?$output_processor@DV?$string_output_adapter@D@__crt_stdio_output@@V?$format_validation_base@DV?$string_output_adapter@D@__crt_stdio_output@@@2@@__crt_stdio_output@@AEAA_ND@Z 0000000180038d78 f i libucrt:output.obj
 0001:00037e40       ?type_case_integer@?$output_processor@DV?$string_output_adapter@D@__crt_stdio_output@@V?$format_validation_base@DV?$string_output_adapter@D@__crt_stdio_output@@@2@@__crt_stdio_output@@AEAA_NI_N@Z 0000000180038e40 f i libucrt:output.obj
 0001:00037fc0       ?type_case_n@?$output_processor@DV?$string_output_adapter@D@__crt_stdio_output@@V?$format_validation_base@DV?$string_output_adapter@D@__crt_stdio_output@@@2@@__crt_stdio_output@@AEAA_NXZ 0000000180038fc0 f i libucrt:output.obj
 0001:00038048       ?type_case_s@?$output_processor@DV?$string_output_adapter@D@__crt_stdio_output@@V?$format_validation_base@DV?$string_output_adapter@D@__crt_stdio_output@@@2@@__crt_stdio_output@@AEAA_NXZ 0000000180039048 f i libucrt:output.obj
 0001:000380e0       ?write_stored_string_tchar@?$output_processor@DV?$string_output_adapter@D@__crt_stdio_output@@V?$format_validation_base@DV?$string_output_adapter@D@__crt_stdio_output@@@2@@__crt_stdio_output@@AEAA_ND@Z 00000001800390e0 f i libucrt:output.obj
 0001:000381bc       ?write_string@?$string_output_adapter@D@__crt_stdio_output@@QEBAXQEBDHQEAHAEAV__crt_deferred_errno_cache@@@Z 00000001800391bc f i libucrt:output.obj
 0001:00038260       __stdio_common_vsprintf_s  0000000180039260 f   libucrt:output.obj
 0001:000382c4       ??$parse_integer@KV?$c_string_character_source@D@__crt_strtox@@@__crt_strtox@@YAKQEAU__crt_locale_pointers@@V?$c_string_character_source@D@0@H_N@Z 00000001800392c4 f i libucrt:atox.obj
 0001:000385c8       _ischartype_l              00000001800395c8 f i libucrt:atox.obj
 0001:00038640       atol                       0000000180039640 f   libucrt:atox.obj
 0001:00038680       strncmp                    0000000180039680 f   libucrt:strncmp.obj
 0001:00038700       calloc                     0000000180039700 f   libucrt:calloc.obj
 0001:00038708       wcsncmp                    0000000180039708 f   libucrt:wcsncmp.obj
 0001:00038734       _clrfp                     0000000180039734 f   libucrt:fpctrl.obj
 0001:00038754       _ctrlfp                    0000000180039754 f   libucrt:fpctrl.obj
 0001:000387d0       _set_statfp                00000001800397d0 f   libucrt:fpctrl.obj
 0001:000387f0       _statfp                    00000001800397f0 f   libucrt:fpctrl.obj
 0001:00038928       _handle_error              0000000180039928 f   libucrt:libm_error.obj
 0001:00038a50       _handle_errorf             0000000180039a50 f   libucrt:libm_error.obj
 0001:00038b84       _handle_nan                0000000180039b84 f   libucrt:libm_error.obj
 0001:00038ba0       _handle_nanf               0000000180039ba0 f   libucrt:libm_error.obj
 0001:00038bb0       __remainder_piby2d2f_forAsm 0000000180039bb0 f   libucrt:remainder_piby2f_forasm.obj
 0001:00038d00       __remainder_piby2_fma3     0000000180039d00 f   libucrt:remainder_piby2_forfma3.obj
 0001:00038ef0       __remainder_piby2_fma3_bdl 0000000180039ef0 f   libucrt:remainder_piby2_forfma3.obj
 0001:00038f68       _cosf_special              0000000180039f68 f   libucrt:sincos_special.obj
 0001:00039008       _sinf_special              000000018003a008 f   libucrt:sincos_special.obj
 0001:00039020       __acrt_initialize_fma3     000000018003a020 f   libucrt:fma3_available.obj
 0001:00039090       __remainder_piby2d2f_forC  000000018003a090 f   libucrt:remainder_piby2f_forc.obj
 0001:0003921c       _free_base                 000000018003a21c f   libucrt:free_base.obj
 0001:000395d4       __acrt_freeptd             000000018003a5d4 f   libucrt:per_thread_data.obj
 0001:00039618       __acrt_getptd              000000018003a618 f   libucrt:per_thread_data.obj
 0001:000396ec       __acrt_getptd_head         000000018003a6ec f   libucrt:per_thread_data.obj
 0001:00039794       __acrt_getptd_noexit       000000018003a794 f   libucrt:per_thread_data.obj
 0001:00039860       __acrt_initialize_ptd      000000018003a860 f   libucrt:per_thread_data.obj
 0001:0003989c       __acrt_uninitialize_ptd    000000018003a89c f   libucrt:per_thread_data.obj
 0001:000398c0       __acrt_initialize_locks    000000018003a8c0 f   libucrt:locks.obj
 0001:00039908       __acrt_lock                000000018003a908 f   libucrt:locks.obj
 0001:00039924       __acrt_uninitialize_locks  000000018003a924 f   libucrt:locks.obj
 0001:0003995c       __acrt_unlock              000000018003a95c f   libucrt:locks.obj
 0001:00039978       __acrt_get_process_end_policy 000000018003a978 f   libucrt:win_policies.obj
 0001:000399b4       __acrt_call_reportfault    000000018003a9b4 f   libucrt:invalid_parameter.obj
 0001:00039b10       __acrt_initialize_invalid_parameter_handler 000000018003ab10 f   libucrt:invalid_parameter.obj
 0001:00039b18       _invalid_parameter         000000018003ab18 f   libucrt:invalid_parameter.obj
 0001:00039bc8       _invalid_parameter_noinfo  000000018003abc8 f   libucrt:invalid_parameter.obj
 0001:00039be8       _invoke_watson             000000018003abe8 f   libucrt:invalid_parameter.obj
 0001:00039c30       __acrt_errno_from_os_error 000000018003ac30 f   libucrt:errno.obj
 0001:00039c78       __acrt_errno_map_os_error  000000018003ac78 f   libucrt:errno.obj
 0001:00039cc8       __doserrno                 000000018003acc8 f   libucrt:errno.obj
 0001:00039ce8       _errno                     000000018003ace8 f   libucrt:errno.obj
 0001:00039d08       _calloc_base               000000018003ad08 f   libucrt:calloc_base.obj
 0001:00039d94       ??$__acrt_mbs_to_wcs_cp@U__crt_win32_buffer_internal_dynamic_resizing@@@@YAHQEBDAEAV?$__crt_win32_buffer@_WU__crt_win32_buffer_internal_dynamic_resizing@@@@I@Z 000000018003ad94 f i libucrt:argv_wildcards.obj
 0001:00039f0c       ??$__acrt_wcs_to_mbs_cp@U__crt_win32_buffer_internal_dynamic_resizing@@@@YAHQEB_WAEAV?$__crt_win32_buffer@DU__crt_win32_buffer_internal_dynamic_resizing@@@@I@Z 000000018003af0c f i libucrt:argv_wildcards.obj
 0001:0003a73c       __acrt_expand_narrow_argv_wildcards 000000018003b73c f   libucrt:argv_wildcards.obj
 0001:0003a744       ??$__acrt_wcs_to_mbs_cp@U__crt_win32_buffer_no_resizing@@@@YAHQEB_WAEAV?$__crt_win32_buffer@DU__crt_win32_buffer_no_resizing@@@@I@Z 000000018003b744 f i libucrt:getmodulefilenamea.obj
 0001:0003a858       __acrt_GetModuleFileNameA  000000018003b858 f   libucrt:getmodulefilenamea.obj
 0001:0003b0a0       __acrt_initialize_multibyte 000000018003c0a0 f   libucrt:mbctype.obj
 0001:0003b100       __acrt_update_thread_multibyte_data 000000018003c100 f   libucrt:mbctype.obj
 0001:0003b11c       _setmbcp_nolock            000000018003c11c f   libucrt:mbctype.obj
 0001:0003b450       _ismbblead                 000000018003c450 f   libucrt:ismbbyte.obj
 0001:0003b464       __acrt_initialize_command_line 000000018003c464 f   libucrt:argv_data.obj
 0001:0003b48c       __acrt_MultiByteToWideChar 000000018003c48c f   libucrt:multibytetowidechar.obj
 0001:0003b4e8       __acrt_WideCharToMultiByte 000000018003c4e8 f   libucrt:widechartomultibyte.obj
 0001:0003b598       __dcrt_get_narrow_environment_from_os 000000018003c598 f   libucrt:get_environment_from_os.obj
 0001:0003b69c       _recalloc_base             000000018003c69c f   libucrt:recalloc.obj
 0001:0003b90c       __acrt_AppPolicyGetProcessTerminationMethodInternal 000000018003c90c f   libucrt:winapi_thunks.obj
 0001:0003b95c       __acrt_AreFileApisANSI     000000018003c95c f   libucrt:winapi_thunks.obj
 0001:0003b998       __acrt_FlsAlloc            000000018003c998 f   libucrt:winapi_thunks.obj
 0001:0003b9e0       __acrt_FlsFree             000000018003c9e0 f   libucrt:winapi_thunks.obj
 0001:0003ba28       __acrt_FlsGetValue         000000018003ca28 f   libucrt:winapi_thunks.obj
 0001:0003ba70       __acrt_FlsSetValue         000000018003ca70 f   libucrt:winapi_thunks.obj
 0001:0003bac4       __acrt_InitializeCriticalSectionEx 000000018003cac4 f   libucrt:winapi_thunks.obj
 0001:0003bb28       __acrt_LCMapStringEx       000000018003cb28 f   libucrt:winapi_thunks.obj
 0001:0003bc04       __acrt_LocaleNameToLCID    000000018003cc04 f   libucrt:winapi_thunks.obj
 0001:0003bc54       __acrt_initialize_winapi_thunks 000000018003cc54 f   libucrt:winapi_thunks.obj
 0001:0003bc88       __acrt_uninitialize_winapi_thunks 000000018003cc88 f   libucrt:winapi_thunks.obj
 0001:0003bccc       __acrt_initialize_heap     000000018003cccc f   libucrt:heap_handle.obj
 0001:0003bce8       __acrt_uninitialize_heap   000000018003cce8 f   libucrt:heap_handle.obj
 0001:0003bef0       __acrt_initialize_lowio    000000018003cef0 f   libucrt:ioinit.obj
 0001:0003bf2c       __acrt_uninitialize_lowio  000000018003cf2c f   libucrt:ioinit.obj
 0001:0003bf6c       __acrt_execute_initializers 000000018003cf6c f   libucrt:shared_initialization.obj
 0001:0003bfec       __acrt_execute_uninitializers 000000018003cfec f   libucrt:shared_initialization.obj
 0001:0003c028       __acrt_initialize_new_handler 000000018003d028 f   libucrt:new_handler.obj
 0001:0003c030       _callnewh                  000000018003d030 f   libucrt:new_handler.obj
 0001:0003c060       _query_new_handler         000000018003d060 f   libucrt:new_handler.obj
 0001:0003c0dc       __acrt_get_sigabrt_handler 000000018003d0dc f   libucrt:signal.obj
 0001:0003c10c       __acrt_initialize_signal_handlers 000000018003d10c f   libucrt:signal.obj
 0001:0003c12c       raise                      000000018003d12c f   libucrt:signal.obj
 0001:0003c398       __acrt_has_user_matherr    000000018003d398 f   libucrt:matherr.obj
 0001:0003c3b8       __acrt_initialize_user_matherr 000000018003d3b8 f   libucrt:matherr.obj
 0001:0003c3c0       __acrt_invoke_user_matherr 000000018003d3c0 f   libucrt:matherr.obj
 0001:0003c5cc       __acrt_stdio_flush_nolock  000000018003d5cc f   libucrt:fflush.obj
 0001:0003c648       _fflush_nolock             000000018003d648 f   libucrt:fflush.obj
 0001:0003c694       _flushall                  000000018003d694 f   libucrt:fflush.obj
 0001:0003c69c       __acrt_initialize_stdio    000000018003d69c f   libucrt:_file.obj
 0001:0003c7bc       __acrt_uninitialize_stdio  000000018003d7bc f   libucrt:_file.obj
 0001:0003c818       _lock_file                 000000018003d818 f   libucrt:_file.obj
 0001:0003c824       _unlock_file               000000018003d824 f   libucrt:_file.obj
 0001:0003c830       _malloc_base               000000018003d830 f   libucrt:malloc_base.obj
 0001:0003c890       strtol                     000000018003d890 f   libucrt:strtox.obj
 0001:0003c8bc       _mbtowc_l                  000000018003d8bc f   libucrt:mbtowc.obj
 0001:0003ca3c       mbtowc                     000000018003da3c f   libucrt:mbtowc.obj
 0001:0003ca44       _wctomb_s_l                000000018003da44 f   libucrt:wctomb.obj
 0001:0003cbe0       strnlen                    000000018003dbe0 f   libucrt:strnlen.obj
 0001:0003cd30       wcsnlen                    000000018003dd30 f   libucrt:strnlen.obj
 0001:0003cf08       __acrt_update_locale_info  000000018003df08 f   libucrt:locale_update.obj
 0001:0003cf3c       __acrt_update_multibyte_info 000000018003df3c f   libucrt:locale_update.obj
 0001:0003d97c       __acrt_fp_format           000000018003e97c f   libucrt:cvt.obj
 0001:0003dcb4       _fileno                    000000018003ecb4 f   libucrt:fileno.obj
 0001:0003dcdc       _get_printf_count_output   000000018003ecdc f   libucrt:printf_count_output.obj
 0001:0003dd64       __acrt_set_locale_changed  000000018003ed64 f   libucrt:wsetlocale.obj
 0001:0003dd70       __acrt_uninitialize_locale 000000018003ed70 f   libucrt:wsetlocale.obj
 0001:0003dda0       __pctype_func              000000018003eda0 f   libucrt:ctype.obj
 0001:0003ddd0       _isctype_l                 000000018003edd0 f   libucrt:isctype.obj
 0001:0003def0       _get_fpsr                  000000018003eef0 f   libucrt:fpsr.obj
 0001:0003df00       _set_fpsr                  000000018003ef00 f   libucrt:fpsr.obj
 0001:0003df0a       _fclrf                     000000018003ef0a f   libucrt:fpsr.obj
 0001:0003df1e       _frnd                      000000018003ef1e f   libucrt:fpsr.obj
 0001:0003df40       _raise_exc                 000000018003ef40 f   libucrt:fpexcept.obj
 0001:0003df68       _raise_exc_ex              000000018003ef68 f   libucrt:fpexcept.obj
 0001:0003e278       _raise_excf                000000018003f278 f   libucrt:fpexcept.obj
 0001:0003e2a4       _set_errno_from_matherr    000000018003f2a4 f   libucrt:fpexcept.obj
 0001:0003e2d4       __acrt_add_locale_ref      000000018003f2d4 f   libucrt:locale_refcounting.obj
 0001:0003e360       __acrt_free_locale         000000018003f360 f   libucrt:locale_refcounting.obj
 0001:0003e4d8       __acrt_locale_add_lc_time_reference 000000018003f4d8 f   libucrt:locale_refcounting.obj
 0001:0003e500       __acrt_locale_free_lc_time_if_unreferenced 000000018003f500 f   libucrt:locale_refcounting.obj
 0001:0003e538       __acrt_locale_release_lc_time_reference 000000018003f538 f   libucrt:locale_refcounting.obj
 0001:0003e560       __acrt_release_locale_ref  000000018003f560 f   libucrt:locale_refcounting.obj
 0001:0003e608       __acrt_update_thread_locale_data 000000018003f608 f   libucrt:locale_refcounting.obj
 0001:0003e678       _updatetlocinfoEx_nolock   000000018003f678 f   libucrt:locale_refcounting.obj
 0001:0003e6e0       _query_new_mode            000000018003f6e0 f   libucrt:new_mode.obj
 0001:0003e6f0       qsort                      000000018003f6f0 f   libucrt:qsort.obj
 0001:0003ea90       strncpy_s                  000000018003fa90 f   libucrt:strncpy_s.obj
 0001:0003ec10       strpbrk                    000000018003fc10 f   libucrt:strpbrk.obj
 0001:0003efd8       _mbsdec                    000000018003ffd8 f   libucrt:mbsdec.obj
 0001:0003efe0       _mbsdec_l                  000000018003ffe0 f   libucrt:mbsdec.obj
 0001:0003f074       __acrt_GetStringTypeA      0000000180040074 f   libucrt:getstringtypea.obj
 0001:0003f51c       __acrt_LCMapStringA        000000018004051c f   libucrt:lcmapstringa.obj
 0001:0003f5cc       _msize_base                00000001800405cc f   libucrt:msize.obj
 0001:0003f608       _realloc_base              0000000180040608 f   libucrt:realloc_base.obj
 0001:0003f684       __acrt_DownlevelLocaleNameToLCID 0000000180040684 f   libucrt:lcidtoname_downlevel.obj
 0001:0003f734       __acrt_lowio_create_handle_array 0000000180040734 f   libucrt:osfinfo.obj
 0001:0003f7dc       __acrt_lowio_destroy_handle_array 00000001800407dc f   libucrt:osfinfo.obj
 0001:0003f82c       __acrt_lowio_ensure_fh_exists 000000018004082c f   libucrt:osfinfo.obj
 0001:0003f8d4       __acrt_lowio_lock_fh       00000001800408d4 f   libucrt:osfinfo.obj
 0001:0003f8fc       __acrt_lowio_unlock_fh     00000001800408fc f   libucrt:osfinfo.obj
 0001:0003f924       _free_osfhnd               0000000180040924 f   libucrt:osfinfo.obj
 0001:0003f9e0       _get_osfhandle             00000001800409e0 f   libucrt:osfinfo.obj
 0001:0003fae4       _commit                    0000000180040ae4 f   libucrt:commit.obj
 0001:000403f4       _write                     00000001800413f4 f   libucrt:write.obj
 0001:000404e0       _write_nolock              00000001800414e0 f   libucrt:write.obj
 0001:000407c4       _fcloseall                 00000001800417c4 f   libucrt:closeall.obj
 0001:00040878       __acrt_stdio_free_buffer_nolock 0000000180041878 f   libucrt:_freebuf.obj
 0001:000408b8       _isatty                    00000001800418b8 f   libucrt:isatty.obj
 0001:00040918       _isleadbyte_l              0000000180041918 f i libucrt:_wctype.obj
 0001:00040964       ?__mbrtowc_utf8@__crt_mbstring@@YA_KPEA_WPEBD_KPEAU_Mbstatet@@@Z 0000000180041964 f   libucrt:mbrtowc.obj
 0001:000409a0       ?__mbsrtowcs_utf8@__crt_mbstring@@YA_KPEA_WPEAPEBD_KPEAU_Mbstatet@@@Z 00000001800419a0 f   libucrt:mbrtowc.obj
 0001:00040b18       ?__c32rtomb_utf8@__crt_mbstring@@YA_KPEAD_UPEAU_Mbstatet@@@Z 0000000180041b18 f   libucrt:c32rtomb.obj
 0001:00040bcc       __acrt_fp_strflt_to_string 0000000180041bcc f   libucrt:_fptostr.obj
 0001:00040d30       ?divide@__crt_strtox@@YA_KAEAUbig_integer@1@AEBU21@@Z 0000000180041d30 f i libucrt:cfout.obj
 0001:0004115c       __acrt_fltout              000000018004215c f   libucrt:cfout.obj
 0001:00042428       fegetround                 0000000180043428 f   libucrt:fegetround.obj
 0001:0004243c       __acrt_locale_free_monetary 000000018004343c f   libucrt:initmon.obj
 0001:00042548       __acrt_locale_free_numeric 0000000180043548 f   libucrt:initnum.obj
 0001:0004260c       __acrt_locale_free_time    000000018004360c f   libucrt:inittime.obj
 0001:00042714       __strncnt                  0000000180043714 f   libucrt:strncnt.obj
 0001:0004272c       __ascii_wcsnicmp           000000018004372c f   libucrt:wcsnicmp.obj
 0001:00042778       _query_app_type            0000000180043778 f   libucrt:report_runtime_error.obj
 0001:0004281c       _lseeki64_nolock           000000018004381c f   libucrt:lseek.obj
 0001:00042824       _putwch_nolock             0000000180043824 f   libucrt:putwch.obj
 0001:00042860       _fclose_nolock             0000000180043860 f   libucrt:fclose.obj
 0001:000428e4       fclose                     00000001800438e4 f   libucrt:fclose.obj
 0001:00042948       ?__mbrtoc32_utf8@__crt_mbstring@@YA_KPEA_UPEBD_KPEAU_Mbstatet@@@Z 0000000180043948 f   libucrt:mbrtoc32.obj
 0001:00042b20       _controlfp_s               0000000180043b20 f   libucrt:contrlfp.obj
 0001:00042b84       fegetenv                   0000000180043b84 f   libucrt:fegetenv.obj
 0001:00042ba4       fesetenv                   0000000180043ba4 f   libucrt:fesetenv.obj
 0001:00042bf0       feholdexcept               0000000180043bf0 f   libucrt:feholdexcept.obj
 0001:00042c40       ceil                       0000000180043c40 f   libucrt:ceil.obj
 0001:00042d10       log10                      0000000180043d10 f   libucrt:log10.obj
 0001:000432bc       __acrt_fenv_get_common_round_control 00000001800442bc f   libucrt:_fenvutils.obj
 0001:000432c8       __acrt_fenv_get_control    00000001800442c8 f   libucrt:_fenvutils.obj
 0001:000433bc       __acrt_fenv_get_status     00000001800443bc f   libucrt:_fenvutils.obj
 0001:00043410       __acrt_fenv_set_control    0000000180044410 f   libucrt:_fenvutils.obj
 0001:00043558       __acrt_fenv_set_status     0000000180044558 f   libucrt:_fenvutils.obj
 0001:000435dc       __dcrt_lowio_ensure_console_output_initialized 00000001800445dc f   libucrt:initcon.obj
 0001:00043630       __dcrt_terminate_console_output 0000000180044630 f   libucrt:initcon.obj
 0001:0004364c       __dcrt_write_console       000000018004464c f   libucrt:initcon.obj
 0001:00043780       _close                     0000000180044780 f   libucrt:close.obj
 0001:00043824       _close_nolock              0000000180044824 f   libucrt:close.obj
 0001:000438e4       ?__acrt_stdio_free_stream@@YAXV__crt_stdio_stream@@@Z 00000001800448e4 f   libucrt:stream.obj
 0001:00043900       _clearfp                   0000000180044900 f   libucrt:ieee.obj
 0001:00043970       _control87                 0000000180044970 f   libucrt:ieee.obj
 0001:00043c40       _log10_special             0000000180044c40 f   libucrt:log_special.obj
 0001:00043d00       _FindPESection             0000000180044d00 f   LIBCMT:pesect.obj
 0001:00043d50       _IsNonwritableInCurrentImage 0000000180044d50 f   LIBCMT:pesect.obj
 0001:00043da0       _ValidateImageBase         0000000180044da0 f   LIBCMT:pesect.obj
 0001:00043dd0       __GSHandlerCheck           0000000180044dd0 f   LIBCMT:gshandler.obj
 0001:00043df0       __GSHandlerCheckCommon     0000000180044df0 f   LIBCMT:gshandler.obj
 0001:00043e60       __security_check_cookie    0000000180044e60 f   LIBCMT:amdsecgs.obj
 0001:00043e80       __GSHandlerCheck_SEH       0000000180044e80 f   LIBCMT:gshandlerseh.obj
 0001:00043f08       __raise_securityfailure    0000000180044f08 f   LIBCMT:gs_report.obj
 0001:00043f3c       __report_gsfailure         0000000180044f3c f   LIBCMT:gs_report.obj
 0001:00044010       __report_rangecheckfailure 0000000180045010 f   LIBCMT:gs_report.obj
 0001:00044024       __report_securityfailure   0000000180045024 f   LIBCMT:gs_report.obj
 0001:000441a4       strrchr                    00000001800451a4 f   libvcruntime:strrchr.obj
 0001:000442e0       memcmp                     00000001800452e0 f   libvcruntime:memcmp.obj
 0001:000443c0       _guard_dispatch_icall_nop  00000001800453c0 f   LIBCMT:guard_dispatch.obj
 0001:000443e0       _guard_xfg_dispatch_icall_nop 00000001800453e0 f   LIBCMT:guard_xfg_dispatch.obj
 0002:00000000       __imp_LoadLibraryA         0000000180046000     kernel32:KERNEL32.dll
 0002:00000008       __imp_WriteConsoleW        0000000180046008     kernel32:KERNEL32.dll
 0002:00000010       __imp_RaiseException       0000000180046010     kernel32:KERNEL32.dll
 0002:00000018       __imp_GetLastError         0000000180046018     kernel32:KERNEL32.dll
 0002:00000020       __imp_GetSystemInfo        0000000180046020     kernel32:KERNEL32.dll
 0002:00000028       __imp_VirtualProtect       0000000180046028     kernel32:KERNEL32.dll
 0002:00000030       __imp_VirtualQuery         0000000180046030     kernel32:KERNEL32.dll
 0002:00000038       __imp_FreeLibrary          0000000180046038     kernel32:KERNEL32.dll
 0002:00000040       __imp_GetModuleHandleW     0000000180046040     kernel32:KERNEL32.dll
 0002:00000048       __imp_GetProcAddress       0000000180046048     kernel32:KERNEL32.dll
 0002:00000050       __imp_LoadLibraryExA       0000000180046050     kernel32:KERNEL32.dll
 0002:00000058       __imp_InitializeSListHead  0000000180046058     kernel32:KERNEL32.dll
 0002:00000060       __imp_QueryPerformanceCounter 0000000180046060     kernel32:KERNEL32.dll
 0002:00000068       __imp_GetCurrentProcessId  0000000180046068     kernel32:KERNEL32.dll
 0002:00000070       __imp_GetCurrentThreadId   0000000180046070     kernel32:KERNEL32.dll
 0002:00000078       __imp_GetSystemTimeAsFileTime 0000000180046078     kernel32:KERNEL32.dll
 0002:00000080       __imp_RtlCaptureContext    0000000180046080     kernel32:KERNEL32.dll
 0002:00000088       __imp_RtlLookupFunctionEntry 0000000180046088     kernel32:KERNEL32.dll
 0002:00000090       __imp_RtlVirtualUnwind     0000000180046090     kernel32:KERNEL32.dll
 0002:00000098       __imp_IsDebuggerPresent    0000000180046098     kernel32:KERNEL32.dll
 0002:000000a0       __imp_UnhandledExceptionFilter 00000001800460a0     kernel32:KERNEL32.dll
 0002:000000a8       __imp_SetUnhandledExceptionFilter 00000001800460a8     kernel32:KERNEL32.dll
 0002:000000b0       __imp_GetStartupInfoW      00000001800460b0     kernel32:KERNEL32.dll
 0002:000000b8       __imp_IsProcessorFeaturePresent 00000001800460b8     kernel32:KERNEL32.dll
 0002:000000c0       __imp_InterlockedPushEntrySList 00000001800460c0     kernel32:KERNEL32.dll
 0002:000000c8       __imp_InterlockedFlushSList 00000001800460c8     kernel32:KERNEL32.dll
 0002:000000d0       __imp_RtlUnwindEx          00000001800460d0     kernel32:KERNEL32.dll
 0002:000000d8       __imp_SetLastError         00000001800460d8     kernel32:KERNEL32.dll
 0002:000000e0       __imp_EnterCriticalSection 00000001800460e0     kernel32:KERNEL32.dll
 0002:000000e8       __imp_LeaveCriticalSection 00000001800460e8     kernel32:KERNEL32.dll
 0002:000000f0       __imp_DeleteCriticalSection 00000001800460f0     kernel32:KERNEL32.dll
 0002:000000f8       __imp_InitializeCriticalSectionAndSpinCount 00000001800460f8     kernel32:KERNEL32.dll
 0002:00000100       __imp_TlsAlloc             0000000180046100     kernel32:KERNEL32.dll
 0002:00000108       __imp_TlsGetValue          0000000180046108     kernel32:KERNEL32.dll
 0002:00000110       __imp_TlsSetValue          0000000180046110     kernel32:KERNEL32.dll
 0002:00000118       __imp_TlsFree              0000000180046118     kernel32:KERNEL32.dll
 0002:00000120       __imp_LoadLibraryExW       0000000180046120     kernel32:KERNEL32.dll
 0002:00000128       __imp_EncodePointer        0000000180046128     kernel32:KERNEL32.dll
 0002:00000130       __imp_RtlPcToFileHeader    0000000180046130     kernel32:KERNEL32.dll
 0002:00000138       __imp_GetCurrentProcess    0000000180046138     kernel32:KERNEL32.dll
 0002:00000140       __imp_ExitProcess          0000000180046140     kernel32:KERNEL32.dll
 0002:00000148       __imp_TerminateProcess     0000000180046148     kernel32:KERNEL32.dll
 0002:00000150       __imp_GetModuleHandleExW   0000000180046150     kernel32:KERNEL32.dll
 0002:00000158       __imp_GetModuleFileNameW   0000000180046158     kernel32:KERNEL32.dll
 0002:00000160       __imp_HeapFree             0000000180046160     kernel32:KERNEL32.dll
 0002:00000168       __imp_HeapAlloc            0000000180046168     kernel32:KERNEL32.dll
 0002:00000170       __imp_FindClose            0000000180046170     kernel32:KERNEL32.dll
 0002:00000178       __imp_FindFirstFileExW     0000000180046178     kernel32:KERNEL32.dll
 0002:00000180       __imp_FindNextFileW        0000000180046180     kernel32:KERNEL32.dll
 0002:00000188       __imp_IsValidCodePage      0000000180046188     kernel32:KERNEL32.dll
 0002:00000190       __imp_GetACP               0000000180046190     kernel32:KERNEL32.dll
 0002:00000198       __imp_GetOEMCP             0000000180046198     kernel32:KERNEL32.dll
 0002:000001a0       __imp_GetCPInfo            00000001800461a0     kernel32:KERNEL32.dll
 0002:000001a8       __imp_GetCommandLineA      00000001800461a8     kernel32:KERNEL32.dll
 0002:000001b0       __imp_GetCommandLineW      00000001800461b0     kernel32:KERNEL32.dll
 0002:000001b8       __imp_MultiByteToWideChar  00000001800461b8     kernel32:KERNEL32.dll
 0002:000001c0       __imp_WideCharToMultiByte  00000001800461c0     kernel32:KERNEL32.dll
 0002:000001c8       __imp_GetEnvironmentStringsW 00000001800461c8     kernel32:KERNEL32.dll
 0002:000001d0       __imp_FreeEnvironmentStringsW 00000001800461d0     kernel32:KERNEL32.dll
 0002:000001d8       __imp_LCMapStringW         00000001800461d8     kernel32:KERNEL32.dll
 0002:000001e0       __imp_GetProcessHeap       00000001800461e0     kernel32:KERNEL32.dll
 0002:000001e8       __imp_GetStdHandle         00000001800461e8     kernel32:KERNEL32.dll
 0002:000001f0       __imp_GetFileType          00000001800461f0     kernel32:KERNEL32.dll
 0002:000001f8       __imp_GetStringTypeW       00000001800461f8     kernel32:KERNEL32.dll
 0002:00000200       __imp_HeapSize             0000000180046200     kernel32:KERNEL32.dll
 0002:00000208       __imp_HeapReAlloc          0000000180046208     kernel32:KERNEL32.dll
 0002:00000210       __imp_SetStdHandle         0000000180046210     kernel32:KERNEL32.dll
 0002:00000218       __imp_FlushFileBuffers     0000000180046218     kernel32:KERNEL32.dll
 0002:00000220       __imp_WriteFile            0000000180046220     kernel32:KERNEL32.dll
 0002:00000228       __imp_GetConsoleOutputCP   0000000180046228     kernel32:KERNEL32.dll
 0002:00000230       __imp_GetConsoleMode       0000000180046230     kernel32:KERNEL32.dll
 0002:00000238       __imp_SetFilePointerEx     0000000180046238     kernel32:KERNEL32.dll
 0002:00000240       __imp_CreateFileW          0000000180046240     kernel32:KERNEL32.dll
 0002:00000248       __imp_CloseHandle          0000000180046248     kernel32:KERNEL32.dll
 0002:00000250       \177KERNEL32_NULL_THUNK_DATA 0000000180046250     kernel32:KERNEL32.dll
 0002:00000258       __guard_check_icall_fptr   0000000180046258     LIBCMT:guard_support.obj
 0002:00000260       __guard_xfg_check_icall_fptr 0000000180046260     LIBCMT:guard_support.obj
 0002:00000268       __guard_dispatch_icall_fptr 0000000180046268     LIBCMT:guard_support.obj
 0002:00000270       __guard_xfg_dispatch_icall_fptr 0000000180046270     LIBCMT:guard_support.obj
 0002:00000278       __guard_xfg_table_dispatch_icall_fptr 0000000180046278     LIBCMT:guard_support.obj
 0002:00000280       __xc_a                     0000000180046280     LIBCMT:initializers.obj
 0002:00000468       __xc_z                     0000000180046468     LIBCMT:initializers.obj
 0002:00000470       __xi_a                     0000000180046470     LIBCMT:initializers.obj
 0002:00000478       __acrt_tran_fma3_initializer 0000000180046478     libucrt:fma3_initializer.obj
 0002:00000480       __acrt_multibyte_initializer 0000000180046480     libucrt:multibyte_initializer.obj
 0002:00000488       __acrt_stdio_initializer   0000000180046488     libucrt:stdio_initializer.obj
 0002:00000490       __xi_z                     0000000180046490     LIBCMT:initializers.obj
 0002:00000498       __xp_a                     0000000180046498     LIBCMT:initializers.obj
 0002:000004a0       __acrt_locale_terminator   00000001800464a0     libucrt:locale_initializer.obj
 0002:000004a8       __dcrt_console_output_terminator 00000001800464a8     libucrt:console_output_initializer.obj
 0002:000004b0       __acrt_stdio_terminator    00000001800464b0     libucrt:stdio_initializer.obj
 0002:000004b8       __xp_z                     00000001800464b8     LIBCMT:initializers.obj
 0002:000004c0       __xt_a                     00000001800464c0     LIBCMT:initializers.obj
 0002:000004c8       __xt_z                     00000001800464c8     LIBCMT:initializers.obj
 0002:000004d0       ??_7PxFoundation@physx@@6B@ 00000001800464d0     Adjacencies.obj
 0002:00000510       ??_C@_0GF@ENGCGHJM@C?3?2Users?2dh211628?4DHDOM1?2Downlo@ 0000000180046510     Adjacencies.obj
 0002:00000578       ??_C@_0DA@FMEHLBKI@Adjacencies?3?3UpdateLink?3?5invali@ 0000000180046578     Adjacencies.obj
 0002:000005b0       ??_C@_0EA@CPHOACLK@Adjacencies?3?3CreateDatabase?3?5ca@ 00000001800465b0     Adjacencies.obj
 0002:000005f0       ??_C@_0BM@OIFKLHDN@?$DMallocation?5names?5disabled?$DO@ 00000001800465f0     Adjacencies.obj
 0002:00000630       ?sBufferSize@DebugText@Cm@physx@@2HB 0000000180046630     Cooking.obj
 0002:00000634       ??_C@_06EJKDJEDO@PxBase@   0000000180046634     Cooking.obj
 0002:00000640       ??_C@_0N@CDGINLLF@PxConvexMesh@ 0000000180046640     Cooking.obj
 0002:00000650       ??_C@_0O@PBAKPCEC@PxHeightField@ 0000000180046650     Cooking.obj
 0002:00000660       ??_7PxBase@physx@@6B@      0000000180046660     Cooking.obj
 0002:00000688       ??_7PxCooking@physx@@6B@   0000000180046688     Cooking.obj
 0002:00000708       ??_7Cooking@physx@@6B@     0000000180046708     Cooking.obj
 0002:00000790       ??_C@_0FC@PJIHAFK@Cooking?3?3validateTriangleMesh?3?5@ 0000000180046790     Cooking.obj
 0002:000007f0       ??_C@_0GB@DNHCEKPA@C?3?2Users?2dh211628?4DHDOM1?2Downlo@ 00000001800467f0     Cooking.obj
 0002:00000860       ??_C@_0EK@EKAIJEBL@Cooking?3?3cookConvexMesh?3?5user?9p@ 0000000180046860     Cooking.obj
 0002:000008b0       ??_C@_0FA@GFFGAPML@Cooking?3?3cookConvexMesh?3?5provid@ 00000001800468b0     Cooking.obj
 0002:00000900       ??_C@_0EP@PKDCPNNO@Cooking?3?3cookConvexMesh?3?5provid@ 0000000180046900     Cooking.obj
 0002:00000950       ??_C@_0EO@LKFMMDE@Cooking?3?3cookConvexMesh?3?5user?9p@ 0000000180046950     Cooking.obj
 0002:000009a0       ??_C@_0GB@DGBKCOJN@C?3?2Users?2dh211628?4DHDOM1?2Downlo@ 00000001800469a0     Cooking.obj
 0002:00000a04       __real@3f800000            0000000180046a04     Cooking.obj
 0002:00000a10       __xmm@000000003a83126f3a83126f3a83126f 0000000180046a10     Cooking.obj
 0002:00000a20       __xmm@00000000ba83126fba83126fba83126f 0000000180046a20     Cooking.obj
 0002:00000a30       __xmm@3a83126f3a83126f3a83126f3a83126f 0000000180046a30     Cooking.obj
 0002:00000a40       __xmm@80000000800000008000000080000000 0000000180046a40     Cooking.obj
 0002:00000a50       __xmm@ba83126fba83126fba83126fba83126f 0000000180046a50     Cooking.obj
 0002:00000a60       ??_C@_0BA@DLCJDKDM@NonTrackedAlloc@ 0000000180046a60     CookingUtils.obj
 0002:00000a70       ??_C@_0GG@CFJIDGKI@C?3?2Users?2dh211628?4DHDOM1?2Downlo@ 0000000180046a70     CookingUtils.obj
 0002:00000ae0       ??_C@_0GC@PJCKGKLF@C?3?2Users?2dh211628?4DHDOM1?2Downlo@ 0000000180046ae0     EdgeList.obj
 0002:00000b48       ??_C@_0CO@GBNJFPN@EdgeList?3?3CreateFacesToEdges?3?5N@ 0000000180046b48     EdgeList.obj
 0002:00000b78       ??_C@_0CO@EHJBBMNK@EdgeList?3?3ComputeActiveEdges?3?5N@ 0000000180046b78     EdgeList.obj
 0002:00000ba8       ??_C@_0DI@GBHLFOFP@ActiveEdges?3?3ComputeConvexEdges@ 0000000180046ba8     EdgeList.obj
 0002:00000be0       ??_C@_0DM@JOGBLHDI@ActiveEdges?3?3ComputeConvexEdges@ 0000000180046be0     EdgeList.obj
 0002:00000c20       ??_C@_0ED@FEMJKPEL@ActiveEdges?3?3ComputeConvexEdges@ 0000000180046c20     EdgeList.obj
 0002:00000c70       ??_C@_0EB@BFDPMFCD@ActiveEdges?3?3ComputeConvexEdges@ 0000000180046c70     EdgeList.obj
 0002:00000cb4       __real@bf7fbe77            0000000180046cb4     EdgeList.obj
 0002:00000cc0       __xmm@7fffffff7fffffff7fffffff7fffffff 0000000180046cc0     EdgeList.obj
 0002:00000cd0       ??_C@_0GF@GIDJEKMI@C?3?2Users?2dh211628?4DHDOM1?2Downlo@ 0000000180046cd0     MeshCleaner.obj
 0002:00000d38       __real@3f000000            0000000180046d38     MeshCleaner.obj
 0002:00000d40       ??_7Quantizer@physx@@6B@   0000000180046d40     Quantizer.obj
 0002:00000d68       ??_7QuantizerImpl@@6B@     0000000180046d68     Quantizer.obj
 0002:00000d90       ??_C@_0GD@HCBPBIIL@C?3?2Users?2dh211628?4DHDOM1?2Downlo@ 0000000180046d90     Quantizer.obj
 0002:00000df4       __real@38d1b717            0000000180046df4     Quantizer.obj
 0002:00000df8       __real@3c23d70a            0000000180046df8     Quantizer.obj
 0002:00000dfc       __real@3f0020c5            0000000180046dfc     Quantizer.obj
 0002:00000e00       __real@3f8020c5            0000000180046e00     Quantizer.obj
 0002:00000e04       __real@7f7fffff            0000000180046e04     Quantizer.obj
 0002:00000e08       __real@fe7fffff            0000000180046e08     Quantizer.obj
 0002:00000e10       __xmm@fe7fffff7e7fffff7e7fffff7e7fffff 0000000180046e10     Quantizer.obj
 0002:00000e40       ??_C@_0GN@GINBJILE@C?3?2Users?2dh211628?4DHDOM1?2Downlo@ 0000000180046e40     BVHStructureBuilder.obj
 0002:00000eb0       __xmm@3ba3d70a3ba3d70a3ba3d70a3ba3d70a 0000000180046eb0     BVHStructureBuilder.obj
 0002:00000ee0       ?reductionFactors@SubSortQuick@physx@@2QBMB 0000000180046ee0     RTreeCooking.obj
 0002:00000ef0       ?stopAtTrisPerLeaf1@SubSortQuick@physx@@2QBIB 0000000180046ef0     RTreeCooking.obj
 0002:00000fa0       ??_C@_0GL@GEBOKIJL@C?3?2Users?2dh211628?4DHDOM1?2Downlo@ 0000000180046fa0     RTreeCooking.obj
 0002:00001010       ??_C@_0GA@LNBDGJHJ@C?3?2Users?2dh211628?4DHDOM1?2Downlo@ 0000000180047010     RTreeCooking.obj
 0002:00001070       ??_C@_0GJ@HCAEIEPK@C?3?2Users?2dh211628?4DHDOM1?2Downlo@ 0000000180047070     RTreeCooking.obj
 0002:000010dc       __real@37800080            00000001800470dc     RTreeCooking.obj
 0002:000010e0       __real@41100000            00000001800470e0     RTreeCooking.obj
 0002:000010e4       __real@41700000            00000001800470e4     RTreeCooking.obj
 0002:000010e8       __real@42200000            00000001800470e8     RTreeCooking.obj
 0002:000010ec       __real@ff7fffff            00000001800470ec     RTreeCooking.obj
 0002:000010f0       __xmm@00000004000000030000000200000001 00000001800470f0     RTreeCooking.obj
 0002:00001100       __xmm@3a03126f3a03126f3a03126f3a03126f 0000000180047100     RTreeCooking.obj
 0002:00001110       __xmm@7f7fffff7f7fffff7f7fffff7f7fffff 0000000180047110     RTreeCooking.obj
 0002:00001120       __xmm@ff7fffffff7fffffff7fffffff7fffff 0000000180047120     RTreeCooking.obj
 0002:00001150       __real@34800000            0000000180047150     MeshBuilder.obj
 0002:00001180       ??_7MeshDataBase@Gu@physx@@6B@ 0000000180047180     TriangleMeshBuilder.obj
 0002:00001190       ??_C@_0GE@PBCFGCBC@C?3?2Users?2dh211628?4DHDOM1?2Downlo@ 0000000180047190     TriangleMeshBuilder.obj
 0002:000011f8       ??_7TriangleMeshData@Gu@physx@@6B@ 00000001800471f8     TriangleMeshBuilder.obj
 0002:00001200       ??_7RTreeTriangleData@Gu@physx@@6B@ 0000000180047200     TriangleMeshBuilder.obj
 0002:00001208       ??_7BV4TriangleData@Gu@physx@@6B@ 0000000180047208     TriangleMeshBuilder.obj
 0002:00001210       ??_7RemapCallback@RTreeCooker@physx@@6B@ 0000000180047210     TriangleMeshBuilder.obj
 0002:00001220       ??_7TriangleMeshBuilder@physx@@6B@ 0000000180047220     TriangleMeshBuilder.obj
 0002:00001248       ??_7RTreeTriangleMeshBuilder@physx@@6B@ 0000000180047248     TriangleMeshBuilder.obj
 0002:00001270       ??_7BV4TriangleMeshBuilder@physx@@6B@ 0000000180047270     TriangleMeshBuilder.obj
 0002:000012a0       ??_C@_0HD@OEOJHAAG@C?3?2Users?2dh211628?4DHDOM1?2Downlo@ 00000001800472a0     TriangleMeshBuilder.obj
 0002:00001320       ??_C@_0HC@NIFJFMJB@C?3?2Users?2dh211628?4DHDOM1?2Downlo@ 0000000180047320     TriangleMeshBuilder.obj
 0002:00001398       ??_C@_0DJ@IGODLHLP@TriangleMesh?3?5Enable?5mesh?5weldi@ 0000000180047398     TriangleMeshBuilder.obj
 0002:000013e0       ??_C@_0FJ@HHJLKGDF@TriangleMesh?3?5triangles?5are?5too@ 00000001800473e0     TriangleMeshBuilder.obj
 0002:00001440       ??_C@_0CN@KGPHHHLK@TriangleMesh?3?5mesh?5is?5too?5big?5f@ 0000000180047440     TriangleMeshBuilder.obj
 0002:00001470       ??_C@_0DD@CMJGDCNN@TriangleMesh?3?3loadFromDesc?3?5des@ 0000000180047470     TriangleMeshBuilder.obj
 0002:000014b0       ??_C@_0ED@ILJJNHIP@TriangleMesh?3?3loadFromDesc?3?5mPa@ 00000001800474b0     TriangleMeshBuilder.obj
 0002:000014f8       ??_C@_0BJ@BKHDBBHO@cleaning?5the?5mesh?5failed@ 00000001800474f8     TriangleMeshBuilder.obj
 0002:00001518       ??_C@_0BK@JIDHMMCE@BV4?5tree?5failed?5to?5build?4@ 0000000180047518     TriangleMeshBuilder.obj
 0002:00001538       ??_C@_0BL@DHNECNBE@BV32?5tree?5failed?5to?5build?4@ 0000000180047538     TriangleMeshBuilder.obj
 0002:00001558       ??_7RTreeCookerRemap@physx@@6B@ 0000000180047558     TriangleMeshBuilder.obj
 0002:00001568       __real@3951b717            0000000180047568     TriangleMeshBuilder.obj
 0002:0000156c       __real@3dcccccd            000000018004756c     TriangleMeshBuilder.obj
 0002:00001570       __real@48742400            0000000180047570     TriangleMeshBuilder.obj
 0002:00001580       __xmm@00000003000000020000000100000000 0000000180047580     TriangleMeshBuilder.obj
 0002:000015b0       ??_C@_0HF@MFAPHGCH@C?3?2Users?2dh211628?4DHDOM1?2Downlo@ 00000001800475b0     BigConvexDataBuilder.obj
 0002:00001628       __real@40000000            0000000180047628     BigConvexDataBuilder.obj
 0002:00001650       ??_C@_0HC@EKOHLOPE@C?3?2Users?2dh211628?4DHDOM1?2Downlo@ 0000000180047650     ConvexHullBuilder.obj
 0002:000016d0       ??_C@_0EB@DCEIFDGC@ConvexHullBuilder?3?3init?3?5convex@ 00000001800476d0     ConvexHullBuilder.obj
 0002:00001720       ??_C@_0FM@KICBLCBH@Gu?3?3ConvexMesh?3?3checkHullPolygo@ 0000000180047720     ConvexHullBuilder.obj
 0002:00001780       ??_C@_0GO@HBFIOGLL@Gu?3?3ConvexMesh?3?3checkHullPolygo@ 0000000180047780     ConvexHullBuilder.obj
 0002:000017f0       ??_C@_0HF@OLJFBIEL@ConvexHullBuilder?3?5convex?5hull?5@ 00000001800477f0     ConvexHullBuilder.obj
 0002:00001870       ??_C@_0OG@JNHFOIL@ConvexHullBuilder?3?5convex?5hull?5@ 0000000180047870     ConvexHullBuilder.obj
 0002:00001960       ??_C@_0EJ@NIOIBAKH@Cooking?3?3cookConvexMesh?3?5non?9ma@ 0000000180047960     ConvexHullBuilder.obj
 0002:000019ac       __real@3ca3d70a            00000001800479ac     ConvexHullBuilder.obj
 0002:000019b0       __real@3eaaaaab            00000001800479b0     ConvexHullBuilder.obj
 0002:000019b8       ??_7ConvexHullLib@physx@@6B@ 00000001800479b8     ConvexHullLib.obj
 0002:000019e0       ??_C@_0GO@LICAKKE@C?3?2Users?2dh211628?4DHDOM1?2Downlo@ 00000001800479e0     ConvexHullLib.obj
 0002:00001a50       ??_C@_0JE@PABBNGEL@ConvexHullLib?3?3cleanupVertices?3@ 0000000180047a50     ConvexHullLib.obj
 0002:00001ae4       __real@358637bd            0000000180047ae4     ConvexHullLib.obj
 0002:00001ae8       __real@3d4ccccd            0000000180047ae8     ConvexHullLib.obj
 0002:00001b10       ??_C@_0HA@JPODHGJF@C?3?2Users?2dh211628?4DHDOM1?2Downlo@ 0000000180047b10     ConvexHullUtils.obj
 0002:00001b80       __real@3e20d97c            0000000180047b80     ConvexHullUtils.obj
 0002:00001b90       __xmm@00800000008000000080000000800000 0000000180047b90     ConvexHullUtils.obj
 0002:00001ba0       __xmm@3f0000003f0000003f0000003f000000 0000000180047ba0     ConvexHullUtils.obj
 0002:00001bb0       __xmm@bf000000bf000000bf000000bf000000 0000000180047bb0     ConvexHullUtils.obj
 0002:00001be0       ??_C@_0DF@LLFJIJGM@Gu?3?3ConvexMesh?3?3loadFromDesc?3?5d@ 0000000180047be0     ConvexMeshBuilder.obj
 0002:00001c20       ??_C@_0HC@IEEDBOKB@C?3?2Users?2dh211628?4DHDOM1?2Downlo@ 0000000180047c20     ConvexMeshBuilder.obj
 0002:00001ca0       ??_C@_0HK@JOGKIEAA@Gu?3?3ConvexMesh?3?5Mesh?5has?5a?5nega@ 0000000180047ca0     ConvexMeshBuilder.obj
 0002:00001d20       ??_C@_0DH@NJPPHFFD@Gu?3?3ConvexMesh?3?5Error?5computing@ 0000000180047d20     ConvexMeshBuilder.obj
 0002:00001d58       ??_C@_0DJ@LJDLGLDJ@Gu?3?3ConvexMesh?3?3loadConvexHull?3@ 0000000180047d58     ConvexMeshBuilder.obj
 0002:00001da0       ??_C@_0HJ@KJANPPOE@ConvexMeshBuilder?3?3computeHullP@ 0000000180047da0     ConvexMeshBuilder.obj
 0002:00001e1c       ??_C@_06KDGGGLIJ@PxVec3@   0000000180047e1c     ConvexMeshBuilder.obj
 0002:00001e24       ??_C@_05LMJPANIN@PxU32@    0000000180047e24     ConvexMeshBuilder.obj
 0002:00001e30       ??_C@_0O@JMAGMMGG@PxHullPolygon@ 0000000180047e30     ConvexMeshBuilder.obj
 0002:00001e40       __real@33d6bf95            0000000180047e40     ConvexMeshBuilder.obj
 0002:00001e44       __real@3f13cd3a            0000000180047e44     ConvexMeshBuilder.obj
 0002:00001e48       __real@b3d6bf95            0000000180047e48     ConvexMeshBuilder.obj
 0002:00001e4c       __real@bf800000            0000000180047e4c     ConvexMeshBuilder.obj
 0002:00001e50       __xmm@80000000000000008000000000000000 0000000180047e50     ConvexMeshBuilder.obj
 0002:00001e60       ??_C@_0DP@PJBJBEGF@Meshmerizer?3?3extractHullPolygon@ 0000000180047e60     ConvexPolygonsBuilder.obj
 0002:00001ea0       ??_C@_0HG@CBGBACFC@C?3?2Users?2dh211628?4DHDOM1?2Downlo@ 0000000180047ea0     ConvexPolygonsBuilder.obj
 0002:00001f18       ??_C@_0DL@IAFKOCCK@ConvexHullBuilder?3?5convex?5hull?5@ 0000000180047f18     ConvexPolygonsBuilder.obj
 0002:00001f60       ??_C@_0GF@OJLJHAMH@ConvexHullBuilder?3?3CreateTriang@ 0000000180047f60     ConvexPolygonsBuilder.obj
 0002:00001fc8       __real@3ba3d70a            0000000180047fc8     ConvexPolygonsBuilder.obj
 0002:00001fd0       ??_7QuickHullConvexHullLib@physx@@6B@ 0000000180047fd0     QuickHullConvexHullLib.obj
 0002:00001ff0       ??_C@_0HH@GOMFHKMO@C?3?2Users?2dh211628?4DHDOM1?2Downlo@ 0000000180047ff0     QuickHullConvexHullLib.obj
 0002:00002070       ??_C@_0GA@EPPAEJPM@QuickHullConvexHullLib?3?3findSim@ 0000000180048070     QuickHullConvexHullLib.obj
 0002:000020d0       ??_C@_0FB@NEBIJMML@QuickHullConvexHullLib?3?3findSim@ 00000001800480d0     QuickHullConvexHullLib.obj
 0002:00002130       ??_C@_0FB@CLLCBEMM@QuickHullConvexHullLib?3?3findSim@ 0000000180048130     QuickHullConvexHullLib.obj
 0002:00002184       __real@34c00000            0000000180048184     QuickHullConvexHullLib.obj
 0002:00002188       __real@3e800000            0000000180048188     QuickHullConvexHullLib.obj
 0002:000021b0       __real@00000000            00000001800481b0     VolumeIntegration.obj
 0002:000021b8       __real@3fe0000000000000    00000001800481b8     VolumeIntegration.obj
 0002:000021c0       __real@3ff0000000000000    00000001800481c0     VolumeIntegration.obj
 0002:000021d0       __xmm@3c0888893c0888893c0888893c088889 00000001800481d0     VolumeIntegration.obj
 0002:000021e0       __xmm@3c8888893c8888893c8888893c888889 00000001800481e0     VolumeIntegration.obj
 0002:000021f0       __xmm@3d2aaaab3d2aaaab3d2aaaab3d2aaaab 00000001800481f0     VolumeIntegration.obj
 0002:00002200       __xmm@3e2aaaab3e2aaaab3e2aaaab3e2aaaab 0000000180048200     VolumeIntegration.obj
 0002:00002210       __xmm@3f811111111111113f81111111111111 0000000180048210     VolumeIntegration.obj
 0002:00002220       __xmm@3f811111111111113f91111111111111 0000000180048220     VolumeIntegration.obj
 0002:00002230       __xmm@3f911111111111113f91111111111111 0000000180048230     VolumeIntegration.obj
 0002:00002240       __xmm@3fa55555555555553fa5555555555555 0000000180048240     VolumeIntegration.obj
 0002:00002250       __xmm@3fa55555555555553fc5555555555555 0000000180048250     VolumeIntegration.obj
 0002:00002260       ??_C@_0BA@EGLNOO@PhysXFoundation@ 0000000180048260     WindowsCookingDelayLoadHook.obj
 0002:00002270       ??_C@_0M@ILKNCJKN@PhysXCommon@ 0000000180048270     WindowsCookingDelayLoadHook.obj
 0002:00002280       __sz_PhysXCommon_64_dll    0000000180048280     PhysXCommon_64:PhysXCommon_64.dll
 0002:000022a0       __sz_PhysXFoundation_64_dll 00000001800482a0     PhysXFoundation_64:PhysXFoundation_64.dll
 0002:000022b8       ??_C@_1BK@DBDEIDLH@?$AAK?$AAE?$AAR?$AAN?$AAE?$AAL?$AA3?$AA2?$AA?4?$AAD?$AAL?$AAL@ 00000001800482b8     Delayimp:delayhlp.obj
 0002:000022d8       ??_C@_0BI@OMNLIJDB@AcquireSRWLockExclusive@ 00000001800482d8     Delayimp:delayhlp.obj
 0002:000022f0       ??_C@_0BI@HMIEPCNJ@ReleaseSRWLockExclusive@ 00000001800482f0     Delayimp:delayhlp.obj
 0002:00002308       __pfnDliFailureHook2       0000000180048308     Delayimp:delayhk1.obj
 0002:00002318       ??_7type_info@@6B@         0000000180048318     LIBCMT:std_type_info_static.obj
 0002:00002380       _pRawDllMain               0000000180048380     LIBCMT:dll_dllmain.obj
 0002:00002380       _pDefaultRawDllMain        0000000180048380     LIBCMT:dll_dllmain.obj
 0002:00002390       _load_config_used          0000000180048390     LIBCMT:loadcfg.obj
 0002:000024d0       __xmm@ffffffffffffffffffffffffffffffff 00000001800484d0     LIBCMT:utility.obj
 0002:000024e0       _pDestructExceptionObject  00000001800484e0     libvcruntime:ehhelpers.obj
 0002:00002bf0       ??_C@_08EHJDFFNH@__based?$CI@ 0000000180048bf0     libvcruntime:undname.obj
 0002:00002c00       ??_C@_07KOLFKCDI@__cdecl@  0000000180048c00     libvcruntime:undname.obj
 0002:00002c08       ??_C@_08GHMPAG@__pascal@   0000000180048c08     libvcruntime:undname.obj
 0002:00002c18       ??_C@_09IFJBGAPI@__stdcall@ 0000000180048c18     libvcruntime:undname.obj
 0002:00002c28       ??_C@_0L@NPHFGOKO@__thiscall@ 0000000180048c28     libvcruntime:undname.obj
 0002:00002c38       ??_C@_0L@JMKHOMEK@__fastcall@ 0000000180048c38     libvcruntime:undname.obj
 0002:00002c48       ??_C@_0N@BCKKPABJ@__vectorcall@ 0000000180048c48     libvcruntime:undname.obj
 0002:00002c58       ??_C@_09HIJEGCPM@__clrcall@ 0000000180048c58     libvcruntime:undname.obj
 0002:00002c64       ??_C@_06GHPCKEAG@__eabi@   0000000180048c64     libvcruntime:undname.obj
 0002:00002c70       ??_C@_09IOPIDJLG@__swift_1@ 0000000180048c70     libvcruntime:undname.obj
 0002:00002c80       ??_C@_09KFNFGKHF@__swift_2@ 0000000180048c80     libvcruntime:undname.obj
 0002:00002c90       ??_C@_07JOMMBBKO@__ptr64@  0000000180048c90     libvcruntime:undname.obj
 0002:00002c98       ??_C@_0L@PILCLIHE@__restrict@ 0000000180048c98     libvcruntime:undname.obj
 0002:00002ca8       ??_C@_0M@GFIIJFMG@__unaligned@ 0000000180048ca8     libvcruntime:undname.obj
 0002:00002cb8       ??_C@_09DHDLOLLB@restrict?$CI@ 0000000180048cb8     libvcruntime:undname.obj
 0002:00002cc2       ??_C@_00CNPNBAHC@@         0000000180048cc2     libvcruntime:undname.obj
 0002:00002cc4       ??_C@_04NIHEBCM@?5new@     0000000180048cc4     libvcruntime:undname.obj
 0002:00002cd0       ??_C@_07FPCDHGMM@?5delete@ 0000000180048cd0     libvcruntime:undname.obj
 0002:00002cd8       ??_C@_01NEMOKFLO@?$DN@     0000000180048cd8     libvcruntime:undname.obj
 0002:00002cdc       ??_C@_02GPIOPFAK@?$DO?$DO@ 0000000180048cdc     libvcruntime:undname.obj
 0002:00002ce0       ??_C@_02FODMEDOG@?$DM?$DM@ 0000000180048ce0     libvcruntime:undname.obj
 0002:00002ce4       ??_C@_01DCLJPIOD@?$CB@     0000000180048ce4     libvcruntime:undname.obj
 0002:00002ce8       ??_C@_02EGOFBIJA@?$DN?$DN@ 0000000180048ce8     libvcruntime:undname.obj
 0002:00002cec       ??_C@_02FDNJECIE@?$CB?$DN@ 0000000180048cec     libvcruntime:undname.obj
 0002:00002cf0       ??_C@_02GPECMEKF@?$FL?$FN@ 0000000180048cf0     libvcruntime:undname.obj
 0002:00002cf8       ??_C@_08LHJFAFGD@operator@ 0000000180048cf8     libvcruntime:undname.obj
 0002:00002d04       ??_C@_02HBOOOICD@?9?$DO@   0000000180048d04     libvcruntime:undname.obj
 0002:00002d08       ??_C@_01NBENCBCI@?$CK@     0000000180048d08     libvcruntime:undname.obj
 0002:00002d0c       ??_C@_02ECNGHCIF@?$CL?$CL@ 0000000180048d0c     libvcruntime:undname.obj
 0002:00002d10       ??_C@_02BAABKJLB@?9?9@     0000000180048d10     libvcruntime:undname.obj
 0002:00002d14       ??_C@_01JOAMLHOP@?9@       0000000180048d14     libvcruntime:undname.obj
 0002:00002d18       ??_C@_01MIFGBAGJ@?$CL@     0000000180048d18     libvcruntime:undname.obj
 0002:00002d1c       ??_C@_01HNPIGOCE@?$CG@     0000000180048d1c     libvcruntime:undname.obj
 0002:00002d20       ??_C@_03MNHNFDLC@?9?$DO?$CK@ 0000000180048d20     libvcruntime:undname.obj
 0002:00002d24       ??_C@_01KMDKNFGN@?1@       0000000180048d24     libvcruntime:undname.obj
 0002:00002d28       ??_C@_01FGNFDNOH@?$CF@     0000000180048d28     libvcruntime:undname.obj
 0002:00002d2c       ??_C@_01MNNFJEPP@?$DM@     0000000180048d2c     libvcruntime:undname.obj
 0002:00002d30       ??_C@_02EHCHHCKH@?$DM?$DN@ 0000000180048d30     libvcruntime:undname.obj
 0002:00002d34       ??_C@_01PPODPGHN@?$DO@     0000000180048d34     libvcruntime:undname.obj
 0002:00002d38       ??_C@_02EEKDKGMJ@?$DO?$DN@ 0000000180048d38     libvcruntime:undname.obj
 0002:00002d3c       ??_C@_01IHBHIGKO@?0@       0000000180048d3c     libvcruntime:undname.obj
 0002:00002d40       ??_C@_02HCKGKOFO@?$CI?$CJ@ 0000000180048d40     libvcruntime:undname.obj
 0002:00002d44       ??_C@_01PJKLJHI@?$HO@      0000000180048d44     libvcruntime:undname.obj
 0002:00002d48       ??_C@_01JKBOJNNK@?$FO@     0000000180048d48     libvcruntime:undname.obj
 0002:00002d4c       ??_C@_01DNKMNLPK@?$HM@     0000000180048d4c     libvcruntime:undname.obj
 0002:00002d50       ??_C@_02PPKAJPJL@?$CG?$CG@ 0000000180048d50     libvcruntime:undname.obj
 0002:00002d54       ??_C@_02NONPIBCD@?$HM?$HM@ 0000000180048d54     libvcruntime:undname.obj
 0002:00002d58       ??_C@_02FPIMKNGF@?$CK?$DN@ 0000000180048d58     libvcruntime:undname.obj
 0002:00002d5c       ??_C@_02FOEOMHFC@?$CL?$DN@ 0000000180048d5c     libvcruntime:undname.obj
 0002:00002d60       ??_C@_02FKMDLLOA@?9?$DN@   0000000180048d60     libvcruntime:undname.obj
 0002:00002d64       ??_C@_02FJEHGPIO@?1?$DN@   0000000180048d64     libvcruntime:undname.obj
 0002:00002d68       ??_C@_02FENAOKFI@?$CF?$DN@ 0000000180048d68     libvcruntime:undname.obj
 0002:00002d6c       ??_C@_03IKFCCPFF@?$DO?$DO?$DN@ 0000000180048d6c     libvcruntime:undname.obj
 0002:00002d70       ??_C@_03CDNPDDLA@?$DM?$DM?$DN@ 0000000180048d70     libvcruntime:undname.obj
 0002:00002d74       ??_C@_02FGJGFEAB@?$CG?$DN@ 0000000180048d74     libvcruntime:undname.obj
 0002:00002d78       ??_C@_02DHLNPPGH@?$HM?$DN@ 0000000180048d78     libvcruntime:undname.obj
 0002:00002d7c       ??_C@_02MHEGNOJ@?$FO?$DN@  0000000180048d7c     libvcruntime:undname.obj
 0002:00002d80       ??_C@_09IFPLHPGF@?$GAvftable?8@ 0000000180048d80     libvcruntime:undname.obj
 0002:00002d90       ??_C@_09BLBHBJP@?$GAvbtable?8@ 0000000180048d90     libvcruntime:undname.obj
 0002:00002da0       ??_C@_07FEEIOKP@?$GAvcall?8@ 0000000180048da0     libvcruntime:undname.obj
 0002:00002da8       ??_C@_08LLFFHHDJ@?$GAtypeof?8@ 0000000180048da8     libvcruntime:undname.obj
 0002:00002db8       ??_C@_0BF@KDPPACIK@?$GAlocal?5static?5guard?8@ 0000000180048db8     libvcruntime:undname.obj
 0002:00002dd0       ??_C@_08OBABFOLI@?$GAstring?8@ 0000000180048dd0     libvcruntime:undname.obj
 0002:00002de0       ??_C@_0BD@JDLKDPAB@?$GAvbase?5destructor?8@ 0000000180048de0     libvcruntime:undname.obj
 0002:00002df8       ??_C@_0BN@DEGPLNFK@?$GAvector?5deleting?5destructor?8@ 0000000180048df8     libvcruntime:undname.obj
 0002:00002e18       ??_C@_0BO@OBMKPJIG@?$GAdefault?5constructor?5closure?8@ 0000000180048e18     libvcruntime:undname.obj
 0002:00002e38       ??_C@_0BN@IMDCHIKM@?$GAscalar?5deleting?5destructor?8@ 0000000180048e38     libvcruntime:undname.obj
 0002:00002e58       ??_C@_0BO@PFGOCPJJ@?$GAvector?5constructor?5iterator?8@ 0000000180048e58     libvcruntime:undname.obj
 0002:00002e78       ??_C@_0BN@LFPFMEDL@?$GAvector?5destructor?5iterator?8@ 0000000180048e78     libvcruntime:undname.obj
 0002:00002e98       ??_C@_0CE@IKBNEHA@?$GAvector?5vbase?5constructor?5itera@ 0000000180048e98     libvcruntime:undname.obj
 0002:00002ec0       ??_C@_0BL@NILFHHPC@?$GAvirtual?5displacement?5map?8@ 0000000180048ec0     libvcruntime:undname.obj
 0002:00002ee0       ??_C@_0CB@JONCMFFK@?$GAeh?5vector?5constructor?5iterator@ 0000000180048ee0     libvcruntime:undname.obj
 0002:00002f08       ??_C@_0CA@GCEOPDGL@?$GAeh?5vector?5destructor?5iterator?8@ 0000000180048f08     libvcruntime:undname.obj
 0002:00002f28       ??_C@_0CH@OOJPLCPH@?$GAeh?5vector?5vbase?5constructor?5it@ 0000000180048f28     libvcruntime:undname.obj
 0002:00002f50       ??_C@_0BL@LLKPOHJI@?$GAcopy?5constructor?5closure?8@ 0000000180048f50     libvcruntime:undname.obj
 0002:00002f70       ??_C@_0BA@KBCDOMBN@?$GAudt?5returning?8@ 0000000180048f70     libvcruntime:undname.obj
 0002:00002f80       ??_C@_03KLGMFNMG@?$GAEH@   0000000180048f80     libvcruntime:undname.obj
 0002:00002f84       ??_C@_05KHLCHHI@?$GARTTI@  0000000180048f84     libvcruntime:undname.obj
 0002:00002f90       ??_C@_0BA@KKLDJDLB@?$GAlocal?5vftable?8@ 0000000180048f90     libvcruntime:undname.obj
 0002:00002fa0       ??_C@_0CE@IIHCMGGL@?$GAlocal?5vftable?5constructor?5clos@ 0000000180048fa0     libvcruntime:undname.obj
 0002:00002fc4       ??_C@_06FHBGPFGH@?5new?$FL?$FN@ 0000000180048fc4     libvcruntime:undname.obj
 0002:00002fd0       ??_C@_09LBNFPBCA@?5delete?$FL?$FN@ 0000000180048fd0     libvcruntime:undname.obj
 0002:00002fe0       ??_C@_0P@HJKNJFNN@?$GAomni?5callsig?8@ 0000000180048fe0     libvcruntime:undname.obj
 0002:00002ff0       ??_C@_0BL@CNOONJFP@?$GAplacement?5delete?5closure?8@ 0000000180048ff0     libvcruntime:undname.obj
 0002:00003010       ??_C@_0BN@CKNJLHMB@?$GAplacement?5delete?$FL?$FN?5closure?8@ 0000000180049010     libvcruntime:undname.obj
 0002:00003030       ??_C@_0CG@CFDHKGGD@?$GAmanaged?5vector?5constructor?5ite@ 0000000180049030     libvcruntime:undname.obj
 0002:00003058       ??_C@_0CF@IMGKMJNO@?$GAmanaged?5vector?5destructor?5iter@ 0000000180049058     libvcruntime:undname.obj
 0002:00003080       ??_C@_0CG@HLDDJMAG@?$GAeh?5vector?5copy?5constructor?5ite@ 0000000180049080     libvcruntime:undname.obj
 0002:000030a8       ??_C@_0CM@FCBBDIGB@?$GAeh?5vector?5vbase?5copy?5construct@ 00000001800490a8     libvcruntime:undname.obj
 0002:000030d8       ??_C@_0BL@CLIPGLGB@?$GAdynamic?5initializer?5for?5?8@ 00000001800490d8     libvcruntime:undname.obj
 0002:000030f8       ??_C@_0CB@PDBIFEP@?$GAdynamic?5atexit?5destructor?5for?5@ 00000001800490f8     libvcruntime:undname.obj
 0002:00003120       ??_C@_0CD@CGAJBKEJ@?$GAvector?5copy?5constructor?5iterat@ 0000000180049120     libvcruntime:undname.obj
 0002:00003148       ??_C@_0CJ@GJELGAMM@?$GAvector?5vbase?5copy?5constructor?5@ 0000000180049148     libvcruntime:undname.obj
 0002:00003178       ??_C@_0CL@FGIJHLCE@?$GAmanaged?5vector?5copy?5constructo@ 0000000180049178     libvcruntime:undname.obj
 0002:000031a8       ??_C@_0BM@PMGGMLDN@?$GAlocal?5static?5thread?5guard?8@ 00000001800491a8     libvcruntime:undname.obj
 0002:000031c8       ??_C@_0N@BDNMDMOL@operator?5?$CC?$CC?5@ 00000001800491c8     libvcruntime:undname.obj
 0002:000031d8       ??_C@_0BC@GGEBGALA@operator?5co_await@ 00000001800491d8     libvcruntime:undname.obj
 0002:000031f0       ??_C@_0M@GAAIMMOH@operator?$DM?$DN?$DO@ 00000001800491f0     libvcruntime:undname.obj
 0002:00003200       ??_C@_0BC@DAFEJGAK@?5Type?5Descriptor?8@ 0000000180049200     libvcruntime:undname.obj
 0002:00003218       ??_C@_0BM@LDKODKLH@?5Base?5Class?5Descriptor?5at?5?$CI@ 0000000180049218     libvcruntime:undname.obj
 0002:00003238       ??_C@_0BD@LGICGFMM@?5Base?5Class?5Array?8@ 0000000180049238     libvcruntime:undname.obj
 0002:00003250       ??_C@_0BN@MECKDCOJ@?5Class?5Hierarchy?5Descriptor?8@ 0000000180049250     libvcruntime:undname.obj
 0002:00003270       ??_C@_0BK@CFCOFLF@?5Complete?5Object?5Locator?8@ 0000000180049270     libvcruntime:undname.obj
 0002:00003290       ??_C@_0BG@JNJLAMPM@?$GAanonymous?5namespace?8@ 0000000180049290     libvcruntime:undname.obj
 0002:000032a8       ??_C@_04HEJADOOB@CV?3?5@   00000001800492a8     libvcruntime:undname.obj
 0002:000032b0       ??_C@_02MOLJINC@?3?3@      00000001800492b0     libvcruntime:undname.obj
 0002:000032b8       ??_C@_0BE@JAEOCHPE@template?9parameter?9@ 00000001800492b8     libvcruntime:undname.obj
 0002:000032d0       ??_C@_0BF@LNLGBBNL@?$GAtemplate?9parameter?9@ 00000001800492d0     libvcruntime:undname.obj
 0002:000032e8       ??_C@_0O@KHGCOMHP@generic?9type?9@ 00000001800492e8     libvcruntime:undname.obj
 0002:000032f8       ??_C@_0P@ODDENDLM@?$GAgeneric?9type?9@ 00000001800492f8     libvcruntime:undname.obj
 0002:00003308       ??_C@_02OHHJMEON@?8?8@     0000000180049308     libvcruntime:undname.obj
 0002:00003310       ??_C@_0BN@IBLMMFAP@?$GAnon?9type?9template?9parameter@ 0000000180049310     libvcruntime:undname.obj
 0002:00003330       ??_C@_03DLDNIBIK@?$CFlf@   0000000180049330     libvcruntime:undname.obj
 0002:00003334       ??_C@_04OFALKAJ@?$DP?$DP_C@ 0000000180049334     libvcruntime:undname.obj
 0002:0000333c       ??_C@_03KHICJKCI@?4?4?4@   000000018004933c     libvcruntime:undname.obj
 0002:00003340       ??_C@_04HIBGFPH@NULL@      0000000180049340     libvcruntime:undname.obj
 0002:00003348       ??_C@_02DPKJAMEF@?$CFd@    0000000180049348     libvcruntime:undname.obj
 0002:00003350       ??_C@_0BK@IHCCFNEL@?$GAtemplate?9type?9parameter?9@ 0000000180049350     libvcruntime:undname.obj
 0002:00003370       ??_C@_0BK@OFCNNNKO@?$GAgeneric?9class?9parameter?9@ 0000000180049370     libvcruntime:undname.obj
 0002:00003390       ??_C@_0BL@NGJBLFIL@?$GAgeneric?9method?9parameter?9@ 0000000180049390     libvcruntime:undname.obj
 0002:000033b0       ??_C@_07OHNGEDJK@nullptr@  00000001800493b0     libvcruntime:undname.obj
 0002:000033b8       ??_C@_04GKJNKENE@void@     00000001800493b8     libvcruntime:undname.obj
 0002:000033c0       ??_C@_0BE@EODMJLIF@?$GAtemplate?9parameter@ 00000001800493c0     libvcruntime:undname.obj
 0002:000033d4       ??_C@_03OPGICMGF@?$HN?8?5@ 00000001800493d4     libvcruntime:undname.obj
 0002:000033d8       ??_C@_02IGFCGPIL@?$HN?8@   00000001800493d8     libvcruntime:undname.obj
 0002:000033e0       ??_C@_0N@CBHHHENL@?$GAvtordispex?$HL@ 00000001800493e0     libvcruntime:undname.obj
 0002:000033f0       ??_C@_0L@GHPFDFH@?$GAvtordisp?$HL@ 00000001800493f0     libvcruntime:undname.obj
 0002:00003400       ??_C@_0L@HNGCOGAE@?$GAadjustor?$HL@ 0000000180049400     libvcruntime:undname.obj
 0002:00003410       ??_C@_0CB@KJDOOODE@?$GAlocal?5static?5destructor?5helper@ 0000000180049410     libvcruntime:undname.obj
 0002:00003438       ??_C@_0DB@ILEFOCIJ@?$GAtemplate?5static?5data?5member?5co@ 0000000180049438     libvcruntime:undname.obj
 0002:00003470       ??_C@_0DA@HGFJFBBE@?$GAtemplate?5static?5data?5member?5de@ 0000000180049470     libvcruntime:undname.obj
 0002:000034a0       ??_C@_07PGOEDBHP@static?5@ 00000001800494a0     libvcruntime:undname.obj
 0002:000034a8       ??_C@_08NIEOINHE@virtual?5@ 00000001800494a8     libvcruntime:undname.obj
 0002:000034b8       ??_C@_09LAPHOOG@private?3?5@ 00000001800494b8     libvcruntime:undname.obj
 0002:000034c8       ??_C@_0M@GAIFPFIP@protected?3?5@ 00000001800494c8     libvcruntime:undname.obj
 0002:000034d8       ??_C@_08GPDDCMKI@public?3?5@ 00000001800494d8     libvcruntime:undname.obj
 0002:000034e8       ??_C@_08KJLFOPNE@?$FLthunk?$FN?3@ 00000001800494e8     libvcruntime:undname.obj
 0002:000034f8       ??_C@_0M@DHNBOJMP@extern?5?$CCC?$CC?5@ 00000001800494f8     libvcruntime:undname.obj
 0002:00003504       ??_C@_02KCKGHPCA@?$CJ?5@   0000000180049504     libvcruntime:undname.obj
 0002:00003508       ??_C@_05CIHEBHNO@char?5@   0000000180049508     libvcruntime:undname.obj
 0002:00003510       ??_C@_06EHJMALKF@short?5@  0000000180049510     libvcruntime:undname.obj
 0002:00003518       ??_C@_04LAHKHJMA@int?5@    0000000180049518     libvcruntime:undname.obj
 0002:00003520       ??_C@_05CJIMAING@long?5@   0000000180049520     libvcruntime:undname.obj
 0002:00003528       ??_C@_09EBBEKKIH@unsigned?5@ 0000000180049528     libvcruntime:undname.obj
 0002:00003534       ??_C@_05BEFAKPML@void?5@   0000000180049534     libvcruntime:undname.obj
 0002:00003540       ??_C@_09GAIEOBLP@volatile?5@ 0000000180049540     libvcruntime:undname.obj
 0002:00003550       ??_C@_08PABEKFH@volatile@  0000000180049550     libvcruntime:undname.obj
 0002:00003560       ??_C@_0BA@LKIJLKPP@std?3?3nullptr_t?5@ 0000000180049560     libvcruntime:undname.obj
 0002:00003570       ??_C@_0P@GCOCNKDM@std?3?3nullptr_t@ 0000000180049570     libvcruntime:undname.obj
 0002:00003580       ??_C@_0L@EGPHHEKN@?$DMellipsis?$DO@ 0000000180049580     libvcruntime:undname.obj
 0002:0000358c       ??_C@_04EENFHACM@?0?4?4?4@ 000000018004958c     libvcruntime:undname.obj
 0002:00003598       ??_C@_0M@ELJOJFFH@?0?$DMellipsis?$DO@ 0000000180049598     libvcruntime:undname.obj
 0002:000035a8       ??_C@_09DNHFEOJI@?5noexcept@ 00000001800495a8     libvcruntime:undname.obj
 0002:000035b4       ??_C@_03PBJBJNON@cpu@      00000001800495b4     libvcruntime:undname.obj
 0002:000035b8       ??_C@_03DCBBJBAA@amp@      00000001800495b8     libvcruntime:undname.obj
 0002:000035bc       ??_C@_02KEGNLNML@?0?5@     00000001800495bc     libvcruntime:undname.obj
 0002:000035c0       ??_C@_04ENMBGAPA@char@     00000001800495c0     libvcruntime:undname.obj
 0002:000035c8       ??_C@_05BFKKPKCG@short@    00000001800495c8     libvcruntime:undname.obj
 0002:000035d0       ??_C@_03JBIPMCLC@int@      00000001800495d0     libvcruntime:undname.obj
 0002:000035d4       ??_C@_04GOKPGOLB@long@     00000001800495d4     libvcruntime:undname.obj
 0002:000035dc       ??_C@_05KNFBNCOH@float@    00000001800495dc     libvcruntime:undname.obj
 0002:000035e4       ??_C@_06BNJCAIGJ@double@   00000001800495e4     libvcruntime:undname.obj
 0002:000035ec       ??_C@_04DDKJGDCM@bool@     00000001800495ec     libvcruntime:undname.obj
 0002:000035f4       ??_C@_06EBGKOKIG@__int8@   00000001800495f4     libvcruntime:undname.obj
 0002:00003600       ??_C@_07ICFHOGAF@__int16@  0000000180049600     libvcruntime:undname.obj
 0002:00003608       ??_C@_07OFLPPHGP@__int32@  0000000180049608     libvcruntime:undname.obj
 0002:00003610       ??_C@_07LFCOJCAC@__int64@  0000000180049610     libvcruntime:undname.obj
 0002:00003618       ??_C@_08GAHOLHEO@__int128@ 0000000180049618     libvcruntime:undname.obj
 0002:00003628       ??_C@_09EEKGDCPH@?$DMunknown?$DO@ 0000000180049628     libvcruntime:undname.obj
 0002:00003638       ??_C@_07CFHGOPCN@char8_t@  0000000180049638     libvcruntime:undname.obj
 0002:00003640       ??_C@_08HBIPOFJB@char16_t@ 0000000180049640     libvcruntime:undname.obj
 0002:00003650       ??_C@_08IECNCBKG@char32_t@ 0000000180049650     libvcruntime:undname.obj
 0002:00003660       ??_C@_07CLGGIAMF@wchar_t@  0000000180049660     libvcruntime:undname.obj
 0002:00003668       ??_C@_04HAPDLBFF@auto@     0000000180049668     libvcruntime:undname.obj
 0002:00003670       ??_C@_0P@LHCGKIGK@decltype?$CIauto?$CJ@ 0000000180049670     libvcruntime:undname.obj
 0002:00003680       ??_C@_06GCICPBLB@__w64?5@  0000000180049680     libvcruntime:undname.obj
 0002:00003688       ??_C@_07NFANNNEC@UNKNOWN@  0000000180049688     libvcruntime:undname.obj
 0002:00003690       ??_C@_07EDHNAJHC@signed?5@ 0000000180049690     libvcruntime:undname.obj
 0002:00003698       ??_C@_05BNCCCJPP@const@    0000000180049698     libvcruntime:undname.obj
 0002:000036a0       ??_C@_09EFNPDFFP@?5volatile@ 00000001800496a0     libvcruntime:undname.obj
 0002:000036b0       ??_C@_0P@GCIFDJCJ@?$GAunknown?5ecsu?8@ 00000001800496b0     libvcruntime:undname.obj
 0002:000036c0       ??_C@_06MOJHIBMG@union?5@  00000001800496c0     libvcruntime:undname.obj
 0002:000036c8       ??_C@_07DIBCDNGL@struct?5@ 00000001800496c8     libvcruntime:undname.obj
 0002:000036d0       ??_C@_06LJBABKPM@class?5@  00000001800496d0     libvcruntime:undname.obj
 0002:000036d8       ??_C@_08KOFANOFK@coclass?5@ 00000001800496d8     libvcruntime:undname.obj
 0002:000036e8       ??_C@_0N@DLIEFKNA@cointerface?5@ 00000001800496e8     libvcruntime:undname.obj
 0002:000036f8       ??_C@_05LJGMCFOG@enum?5@   00000001800496f8     libvcruntime:undname.obj
 0002:00003700       ??_C@_06LIJLOJAG@const?5@  0000000180049700     libvcruntime:undname.obj
 0002:00003708       ??_C@_02KJPKDIBN@?$CG?5@   0000000180049708     libvcruntime:undname.obj
 0002:0000370c       ??_C@_03PCKGMOPB@?$CG?$CG?5@ 000000018004970c     libvcruntime:undname.obj
 0002:00003710       ??_C@_0M@EALIELKG@cli?3?3array?$DM@ 0000000180049710     libvcruntime:undname.obj
 0002:00003720       ??_C@_0O@GKABPPIF@cli?3?3pin_ptr?$DM@ 0000000180049720     libvcruntime:undname.obj
 0002:00003730       ??_C@_02GOGNNPBN@?$CJ?$FL@ 0000000180049730     libvcruntime:undname.obj
 0002:00003734       ??_C@_06EEGAIFAK@?$HLflat?$HN@ 0000000180049734     libvcruntime:undname.obj
 0002:0000373c       ??_C@_05JIBOFOHK@?$HLfor?5@ 000000018004973c     libvcruntime:undname.obj
 0002:00003744       ??_C@_02MDINNEEG@s?5@      0000000180049744     libvcruntime:undname.obj
 0002:00003750       ??_7charNode@@6B@          0000000180049750     libvcruntime:undname.obj
 0002:00003778       ??_7pcharNode@@6B@         0000000180049778     libvcruntime:undname.obj
 0002:000037a0       ??_7pDNameNode@@6B@        00000001800497a0     libvcruntime:undname.obj
 0002:000037c8       ??_7DNameStatusNode@@6B@   00000001800497c8     libvcruntime:undname.obj
 0002:000037f0       ??_7pairNode@@6B@          00000001800497f0     libvcruntime:undname.obj
 0002:00003910       ??_C@_04OKOHEJBO@?5?$DP?$DP?5@ 0000000180049910     libvcruntime:undname.obj
 0002:00003920       ?nodes@?1??make@DNameStatusNode@@SAPEBV2@W4DNameStatus@@@Z@4QBV2@B 0000000180049920     libvcruntime:undname.obj
 0002:00003960       ?s_negLengthTab@FH4@@3QBCB 0000000180049960     libvcruntime:risctrnsctrl.obj
 0002:00003970       ?s_shiftTab@FH4@@3QBEB     0000000180049970     libvcruntime:risctrnsctrl.obj
 0002:00003a30       ??_C@_1DM@KHCHBNEB@?$AAa?$AAp?$AAi?$AA?9?$AAm?$AAs?$AA?9?$AAw?$AAi?$AAn?$AA?9?$AAc?$AAo?$AAr?$AAe@ 0000000180049a30     libvcruntime:winapi_downlevel.obj
 0002:00003a70       ??_C@_1DK@LPPGFMPP@?$AAa?$AAp?$AAi?$AA?9?$AAm?$AAs?$AA?9?$AAw?$AAi?$AAn?$AA?9?$AAc?$AAo?$AAr?$AAe@ 0000000180049a70     libvcruntime:winapi_downlevel.obj
 0002:00003ab0       ??_C@_1BC@GDMECMAK@?$AAk?$AAe?$AAr?$AAn?$AAe?$AAl?$AA3?$AA2@ 0000000180049ab0     libvcruntime:winapi_downlevel.obj
 0002:00003ac8       ??_C@_1BA@PFFKHIOG@?$AAa?$AAp?$AAi?$AA?9?$AAm?$AAs?$AA?9@ 0000000180049ac8     libvcruntime:winapi_downlevel.obj
 0002:00003ae0       ??_C@_08KNHFBNJ@FlsAlloc@  0000000180049ae0     libvcruntime:winapi_downlevel.obj
 0002:00003af8       ??_C@_07PEJMOBNF@FlsFree@  0000000180049af8     libvcruntime:winapi_downlevel.obj
 0002:00003b08       ??_C@_0M@GDNOONDI@FlsGetValue@ 0000000180049b08     libvcruntime:winapi_downlevel.obj
 0002:00003b20       ??_C@_0M@JCPCPOEF@FlsSetValue@ 0000000180049b20     libvcruntime:winapi_downlevel.obj
 0002:00003b38       ??_C@_0BM@HCFOFFN@InitializeCriticalSectionEx@ 0000000180049b38     libvcruntime:winapi_downlevel.obj
 0002:00003b60       ??_7exception@std@@6B@     0000000180049b60     libvcruntime:frame.obj
 0002:00003b70       ??_C@_0BC@EOODALEL@Unknown?5exception@ 0000000180049b70     libvcruntime:frame.obj
 0002:00003b90       ??_7bad_exception@std@@6B@ 0000000180049b90     libvcruntime:frame.obj
 0002:00003ba0       ??_C@_0O@DPKOEFFH@bad?5exception@ 0000000180049ba0     libvcruntime:frame.obj
 0002:00004338       __real@3f1a36e2eb1c432d    000000018004a338     libucrt:atan2f.obj
 0002:00004340       __real@3f490fdb            000000018004a340     libucrt:atan2f.obj
 0002:00004348       __real@3fb0000000000000    000000018004a348     libucrt:atan2f.obj
 0002:00004350       __real@3fc2492482bd6be1    000000018004a350     libucrt:atan2f.obj
 0002:00004358       __real@3fc90fdb            000000018004a358     libucrt:atan2f.obj
 0002:00004360       __real@3fc99999999643a3    000000018004a360     libucrt:atan2f.obj
 0002:00004368       __real@3fd5555555550877    000000018004a368     libucrt:atan2f.obj
 0002:00004370       __real@3fd5555555555538    000000018004a370     libucrt:atan2f.obj
 0002:00004378       __real@3ff921fb54442d18    000000018004a378     libucrt:atan2f.obj
 0002:00004380       __real@400921fb54442d18    000000018004a380     libucrt:atan2f.obj
 0002:00004388       __real@4016cbe4            000000018004a388     libucrt:atan2f.obj
 0002:0000438c       __real@40490fdb            000000018004a38c     libucrt:atan2f.obj
 0002:00004390       __real@4070000000000000    000000018004a390     libucrt:atan2f.obj
 0002:00004398       __real@80000000            000000018004a398     libucrt:atan2f.obj
 0002:0000439c       __real@bf490fdb            000000018004a39c     libucrt:atan2f.obj
 0002:000043a0       __real@bfc90fdb            000000018004a3a0     libucrt:atan2f.obj
 0002:000043a4       __real@c016cbe4            000000018004a3a4     libucrt:atan2f.obj
 0002:000043a8       __real@c0490fdb            000000018004a3a8     libucrt:atan2f.obj
 0002:00004600       __acrt_exception_action_table 000000018004a600     libucrt:exception_filter.obj
 0002:000046c0       __acrt_signal_action_table_count 000000018004a6c0     libucrt:exception_filter.obj
 0002:000046c8       __acrt_signal_action_first_fpe_index 000000018004a6c8     libucrt:exception_filter.obj
 0002:000046d0       __acrt_signal_action_fpe_count 000000018004a6d0     libucrt:exception_filter.obj
 0002:000046d8       ??_C@_1BI@BGOHAHKC@?$AAm?$AAs?$AAc?$AAo?$AAr?$AAe?$AAe?$AA?4?$AAd?$AAl?$AAl@ 000000018004a6d8     libucrt:exit.obj
 0002:000046f0       ??_C@_0P@MIGLKIOC@CorExitProcess@ 000000018004a6f0     libucrt:exit.obj
 0002:00004800       ?format_validation_lookup_table_spectre@__crt_stdio_output@@3V?$spectre_mitigated_lookup_table@Ustate_transition_pair@__crt_stdio_output@@$0IA@@1@B 000000018004a800     libucrt:output.obj
 0002:00004c00       ??_C@_1O@CEDCILHN@?$AA?$CI?$AAn?$AAu?$AAl?$AAl?$AA?$CJ@ 000000018004ac00     libucrt:output.obj
 0002:00004c10       ??_C@_06OJHGLDPL@?$CInull?$CJ@ 000000018004ac10     libucrt:output.obj
 0002:00004d90       ??_C@_04LAGPAAHP@sinf@     000000018004ad90     libucrt:sincos_special.obj
 0002:00004d98       ??_C@_04OBBKPIAC@cosf@     000000018004ad98     libucrt:sincos_special.obj
 0002:00004da0       __Lcosfarray               000000018004ada0     libucrt:lsincosf_array.obj
 0002:00004dd0       __Lsinfarray               000000018004add0     libucrt:lsincosf_array.obj
 0002:00004df0       __L_2_by_pi_bits           000000018004adf0     libucrt:l2_by_pi_bits.obj
 0002:000050c8       ??_C@_1M@HPNHIDJI@?$AAj?$AAa?$AA?9?$AAJ?$AAP@ 000000018004b0c8     libucrt:mbctype.obj
 0002:000050d8       ??_C@_1M@BIBDDEMK@?$AAz?$AAh?$AA?9?$AAC?$AAN@ 000000018004b0d8     libucrt:mbctype.obj
 0002:000050e8       ??_C@_1M@JLOOOEGK@?$AAk?$AAo?$AA?9?$AAK?$AAR@ 000000018004b0e8     libucrt:mbctype.obj
 0002:000050f8       ??_C@_1M@CLNBBOPM@?$AAz?$AAh?$AA?9?$AAT?$AAW@ 000000018004b0f8     libucrt:mbctype.obj
 0002:000051b0       ??_C@_1EA@JGEFHKEI@?$AAa?$AAp?$AAi?$AA?9?$AAm?$AAs?$AA?9?$AAw?$AAi?$AAn?$AA?9?$AAc?$AAo?$AAr?$AAe@ 000000018004b1b0     libucrt:winapi_thunks.obj
 0002:000051f0       ??_C@_1DI@IJCEHOCB@?$AAa?$AAp?$AAi?$AA?9?$AAm?$AAs?$AA?9?$AAw?$AAi?$AAn?$AA?9?$AAc?$AAo?$AAr?$AAe@ 000000018004b1f0     libucrt:winapi_thunks.obj
 0002:00005230       ??_C@_1EI@MPIAOHOC@?$AAa?$AAp?$AAi?$AA?9?$AAm?$AAs?$AA?9?$AAw?$AAi?$AAn?$AA?9?$AAc?$AAo?$AAr?$AAe@ 000000018004b230     libucrt:winapi_thunks.obj
 0002:00005280       ??_C@_1FK@FPHCKFIE@?$AAa?$AAp?$AAi?$AA?9?$AAm?$AAs?$AA?9?$AAw?$AAi?$AAn?$AA?9?$AAc?$AAo?$AAr?$AAe@ 000000018004b280     libucrt:winapi_thunks.obj
 0002:000052e0       ??_C@_1EM@DILCGIIO@?$AAa?$AAp?$AAi?$AA?9?$AAm?$AAs?$AA?9?$AAw?$AAi?$AAn?$AA?9?$AAc?$AAo?$AAr?$AAe@ 000000018004b2e0     libucrt:winapi_thunks.obj
 0002:00005330       ??_C@_1DM@LNCGDDPN@?$AAa?$AAp?$AAi?$AA?9?$AAm?$AAs?$AA?9?$AAw?$AAi?$AAn?$AA?9?$AAc?$AAo?$AAr?$AAe@ 000000018004b330     libucrt:winapi_thunks.obj
 0002:00005370       ??_C@_1DO@FPAPJEMD@?$AAa?$AAp?$AAi?$AA?9?$AAm?$AAs?$AA?9?$AAw?$AAi?$AAn?$AA?9?$AAc?$AAo?$AAr?$AAe@ 000000018004b370     libucrt:winapi_thunks.obj
 0002:000053b0       ??_C@_1DK@NDHNAHIO@?$AAa?$AAp?$AAi?$AA?9?$AAm?$AAs?$AA?9?$AAw?$AAi?$AAn?$AA?9?$AAc?$AAo?$AAr?$AAe@ 000000018004b3b0     libucrt:winapi_thunks.obj
 0002:000053f0       ??_C@_1DM@KGHDGBCM@?$AAa?$AAp?$AAi?$AA?9?$AAm?$AAs?$AA?9?$AAw?$AAi?$AAn?$AA?9?$AAc?$AAo?$AAr?$AAe@ 000000018004b3f0     libucrt:winapi_thunks.obj
 0002:00005430       ??_C@_1EO@IJIOEFOH@?$AAa?$AAp?$AAi?$AA?9?$AAm?$AAs?$AA?9?$AAw?$AAi?$AAn?$AA?9?$AAr?$AAt?$AAc?$AAo@ 000000018004b430     libucrt:winapi_thunks.obj
 0002:00005480       ??_C@_1FG@HHGEKANL@?$AAa?$AAp?$AAi?$AA?9?$AAm?$AAs?$AA?9?$AAw?$AAi?$AAn?$AA?9?$AAs?$AAe?$AAc?$AAu@ 000000018004b480     libucrt:winapi_thunks.obj
 0002:000054e0       ??_C@_1EG@DBIOJECG@?$AAe?$AAx?$AAt?$AA?9?$AAm?$AAs?$AA?9?$AAw?$AAi?$AAn?$AA?9?$AAn?$AAt?$AAu?$AAs@ 000000018004b4e0     libucrt:winapi_thunks.obj
 0002:00005530       ??_C@_1EO@FIHMJCLF@?$AAe?$AAx?$AAt?$AA?9?$AAm?$AAs?$AA?9?$AAw?$AAi?$AAn?$AA?9?$AAn?$AAt?$AAu?$AAs@ 000000018004b530     libucrt:winapi_thunks.obj
 0002:00005580       ??_C@_1BC@DNHGCMLG@?$AAa?$AAd?$AAv?$AAa?$AAp?$AAi?$AA3?$AA2@ 000000018004b580     libucrt:winapi_thunks.obj
 0002:00005598       ??_C@_1M@OAIMIKLP@?$AAn?$AAt?$AAd?$AAl?$AAl@ 000000018004b598     libucrt:winapi_thunks.obj
 0002:000055b0       ??_C@_1EG@DPGNFKGC@?$AAa?$AAp?$AAi?$AA?9?$AAm?$AAs?$AA?9?$AAw?$AAi?$AAn?$AA?9?$AAa?$AAp?$AAp?$AAm@ 000000018004b5b0     libucrt:winapi_thunks.obj
 0002:000055f8       ??_C@_1O@BCCLBEOE@?$AAu?$AAs?$AAe?$AAr?$AA3?$AA2@ 000000018004b5f8     libucrt:winapi_thunks.obj
 0002:00005608       ??_C@_1BA@IAIFMGEF@?$AAe?$AAx?$AAt?$AA?9?$AAm?$AAs?$AA?9@ 000000018004b608     libucrt:winapi_thunks.obj
 0002:00005620       ??_C@_0BA@FHFNEAED@AreFileApisANSI@ 000000018004b620     libucrt:winapi_thunks.obj
 0002:00005660       ??_C@_0O@KKBNKAPF@LCMapStringEx@ 000000018004b660     libucrt:winapi_thunks.obj
 0002:00005678       ??_C@_0BB@HBDEELFH@LocaleNameToLCID@ 000000018004b678     libucrt:winapi_thunks.obj
 0002:00005690       ??_C@_0CF@OJOFEIGO@AppPolicyGetProcessTerminationM@ 000000018004b690     libucrt:winapi_thunks.obj
 0002:000056c0       __lc_time_c                000000018004b6c0     libucrt:nlsdata.obj
 0002:00005980       ??_C@_03KOEHGMDN@Sun@      000000018004b980     libucrt:nlsdata.obj
 0002:00005984       ??_C@_03PDAGKDH@Mon@       000000018004b984     libucrt:nlsdata.obj
 0002:00005988       ??_C@_03NAGEINEP@Tue@      000000018004b988     libucrt:nlsdata.obj
 0002:0000598c       ??_C@_03MHOMLAJA@Wed@      000000018004b98c     libucrt:nlsdata.obj
 0002:00005990       ??_C@_03IOFIKPDN@Thu@      000000018004b990     libucrt:nlsdata.obj
 0002:00005994       ??_C@_03IDIOELNC@Fri@      000000018004b994     libucrt:nlsdata.obj
 0002:00005998       ??_C@_03FEFJNEK@Sat@       000000018004b998     libucrt:nlsdata.obj
 0002:0000599c       ??_C@_06OOPIFAJ@Sunday@    000000018004b99c     libucrt:nlsdata.obj
 0002:000059a4       ??_C@_06JLEDEDGH@Monday@   000000018004b9a4     libucrt:nlsdata.obj
 0002:000059b0       ??_C@_07BAAGCFCM@Tuesday@  000000018004b9b0     libucrt:nlsdata.obj
 0002:000059b8       ??_C@_09DLIGFAKA@Wednesday@ 000000018004b9b8     libucrt:nlsdata.obj
 0002:000059c8       ??_C@_08HACCIKIA@Thursday@ 000000018004b9c8     libucrt:nlsdata.obj
 0002:000059d4       ??_C@_06JECMNKMI@Friday@   000000018004b9d4     libucrt:nlsdata.obj
 0002:000059e0       ??_C@_08INBOOONO@Saturday@ 000000018004b9e0     libucrt:nlsdata.obj
 0002:000059ec       ??_C@_03JIHJHPIE@Jan@      000000018004b9ec     libucrt:nlsdata.obj
 0002:000059f0       ??_C@_03HJBDCHOM@Feb@      000000018004b9f0     libucrt:nlsdata.obj
 0002:000059f4       ??_C@_03ODNJBKGA@Mar@      000000018004b9f4     libucrt:nlsdata.obj
 0002:000059f8       ??_C@_03LEOLGMJP@Apr@      000000018004b9f8     libucrt:nlsdata.obj
 0002:000059fc       ??_C@_03CNMDKL@May@        000000018004b9fc     libucrt:nlsdata.obj
 0002:00005a00       ??_C@_03IDFGHECI@Jun@      000000018004ba00     libucrt:nlsdata.obj
 0002:00005a04       ??_C@_03LBGABGKK@Jul@      000000018004ba04     libucrt:nlsdata.obj
 0002:00005a08       ??_C@_03IFJFEIGA@Aug@      000000018004ba08     libucrt:nlsdata.obj
 0002:00005a0c       ??_C@_03GGCAPAJC@Sep@      000000018004ba0c     libucrt:nlsdata.obj
 0002:00005a10       ??_C@_03BMAOKBAD@Oct@      000000018004ba10     libucrt:nlsdata.obj
 0002:00005a14       ??_C@_03JPJOFNIA@Nov@      000000018004ba14     libucrt:nlsdata.obj
 0002:00005a18       ??_C@_03MKABNOCG@Dec@      000000018004ba18     libucrt:nlsdata.obj
 0002:00005a20       ??_C@_07CGJPFGJA@January@  000000018004ba20     libucrt:nlsdata.obj
 0002:00005a28       ??_C@_08GNJGEPFN@February@ 000000018004ba28     libucrt:nlsdata.obj
 0002:00005a34       ??_C@_05HPCKOFNC@March@    000000018004ba34     libucrt:nlsdata.obj
 0002:00005a3c       ??_C@_05DMJDNLEJ@April@    000000018004ba3c     libucrt:nlsdata.obj
 0002:00005a44       ??_C@_04CNLMGBGM@June@     000000018004ba44     libucrt:nlsdata.obj
 0002:00005a4c       ??_C@_04MIEPOIFP@July@     000000018004ba4c     libucrt:nlsdata.obj
 0002:00005a54       ??_C@_06LBBHFDDG@August@   000000018004ba54     libucrt:nlsdata.obj
 0002:00005a60       ??_C@_09BHHEALKD@September@ 000000018004ba60     libucrt:nlsdata.obj
 0002:00005a70       ??_C@_07JJNFCEND@October@  000000018004ba70     libucrt:nlsdata.obj
 0002:00005a78       ??_C@_08HCHEGEOA@November@ 000000018004ba78     libucrt:nlsdata.obj
 0002:00005a88       ??_C@_08EDHMEBNP@December@ 000000018004ba88     libucrt:nlsdata.obj
 0002:00005a94       ??_C@_02DEDBPAFC@AM@       000000018004ba94     libucrt:nlsdata.obj
 0002:00005a98       ??_C@_02CJNFDJBF@PM@       000000018004ba98     libucrt:nlsdata.obj
 0002:00005aa0       ??_C@_08BPBNCDIB@MM?1dd?1yy@ 000000018004baa0     libucrt:nlsdata.obj
 0002:00005ab0       ??_C@_0BE@CKGJFCPC@dddd?0?5MMMM?5dd?0?5yyyy@ 000000018004bab0     libucrt:nlsdata.obj
 0002:00005ac8       ??_C@_08JCCMCCIL@HH?3mm?3ss@ 000000018004bac8     libucrt:nlsdata.obj
 0002:00005ad8       ??_C@_17MBGCMIPB@?$AAS?$AAu?$AAn@ 000000018004bad8     libucrt:nlsdata.obj
 0002:00005ae0       ??_C@_17KBOMKBF@?$AAM?$AAo?$AAn@ 000000018004bae0     libucrt:nlsdata.obj
 0002:00005ae8       ??_C@_17BMKGEGOJ@?$AAT?$AAu?$AAe@ 000000018004bae8     libucrt:nlsdata.obj
 0002:00005af0       ??_C@_17CJEDCEPE@?$AAW?$AAe?$AAd@ 000000018004baf0     libucrt:nlsdata.obj
 0002:00005af8       ??_C@_17PDPHAADD@?$AAT?$AAh?$AAu@ 000000018004baf8     libucrt:nlsdata.obj
 0002:00005b00       ??_C@_17HFOLPPLP@?$AAF?$AAr?$AAi@ 000000018004bb00     libucrt:nlsdata.obj
 0002:00005b08       ??_C@_17GGIBDPIH@?$AAS?$AAa?$AAt@ 000000018004bb08     libucrt:nlsdata.obj
 0002:00005b10       ??_C@_1O@IHNHDHPB@?$AAS?$AAu?$AAn?$AAd?$AAa?$AAy@ 000000018004bb10     libucrt:nlsdata.obj
 0002:00005b20       ??_C@_1O@MMNBFLIA@?$AAM?$AAo?$AAn?$AAd?$AAa?$AAy@ 000000018004bb20     libucrt:nlsdata.obj
 0002:00005b30       ??_C@_1BA@ENFBFFEK@?$AAT?$AAu?$AAe?$AAs?$AAd?$AAa?$AAy@ 000000018004bb30     libucrt:nlsdata.obj
 0002:00005b40       ??_C@_1BE@EBOGMDOH@?$AAW?$AAe?$AAd?$AAn?$AAe?$AAs?$AAd?$AAa?$AAy@ 000000018004bb40     libucrt:nlsdata.obj
 0002:00005b58       ??_C@_1BC@HHMNLIHE@?$AAT?$AAh?$AAu?$AAr?$AAs?$AAd?$AAa?$AAy@ 000000018004bb58     libucrt:nlsdata.obj
 0002:00005b70       ??_C@_1O@PDICJHAG@?$AAF?$AAr?$AAi?$AAd?$AAa?$AAy@ 000000018004bb70     libucrt:nlsdata.obj
 0002:00005b80       ??_C@_1BC@ENMNNPAJ@?$AAS?$AAa?$AAt?$AAu?$AAr?$AAd?$AAa?$AAy@ 000000018004bb80     libucrt:nlsdata.obj
 0002:00005b98       ??_C@_17DKNBKCHM@?$AAJ?$AAa?$AAn@ 000000018004bb98     libucrt:nlsdata.obj
 0002:00005ba0       ??_C@_17LMDJEKJN@?$AAF?$AAe?$AAb@ 000000018004bba0     libucrt:nlsdata.obj
 0002:00005ba8       ??_C@_17CKNLEDEC@?$AAM?$AAa?$AAr@ 000000018004bba8     libucrt:nlsdata.obj
 0002:00005bb0       ??_C@_17LFPOIHDD@?$AAA?$AAp?$AAr@ 000000018004bbb0     libucrt:nlsdata.obj
 0002:00005bb8       ??_C@_17PNNKMEED@?$AAM?$AAa?$AAy@ 000000018004bbb8     libucrt:nlsdata.obj
 0002:00005bc0       ??_C@_17KCJGOCPB@?$AAJ?$AAu?$AAn@ 000000018004bbc0     libucrt:nlsdata.obj
 0002:00005bc8       ??_C@_17IJPCKHK@?$AAJ?$AAu?$AAl@ 000000018004bbc8     libucrt:nlsdata.obj
 0002:00005bd0       ??_C@_17ICPELBCN@?$AAA?$AAu?$AAg@ 000000018004bbd0     libucrt:nlsdata.obj
 0002:00005bd8       ??_C@_17HCHCOKMG@?$AAS?$AAe?$AAp@ 000000018004bbd8     libucrt:nlsdata.obj
 0002:00005be0       ??_C@_17FNLKOI@?$AAO?$AAc?$AAt@ 000000018004bbe0     libucrt:nlsdata.obj
 0002:00005be8       ??_C@_17BBDMLCIG@?$AAN?$AAo?$AAv@ 000000018004bbe8     libucrt:nlsdata.obj
 0002:00005bf0       ??_C@_17EGKACKIF@?$AAD?$AAe?$AAc@ 000000018004bbf0     libucrt:nlsdata.obj
 0002:00005bf8       ??_C@_1BA@EFMEIEBA@?$AAJ?$AAa?$AAn?$AAu?$AAa?$AAr?$AAy@ 000000018004bbf8     libucrt:nlsdata.obj
 0002:00005c08       ??_C@_1BC@JGDDFFAM@?$AAF?$AAe?$AAb?$AAr?$AAu?$AAa?$AAr?$AAy@ 000000018004bc08     libucrt:nlsdata.obj
 0002:00005c20       ??_C@_1M@IKEENEDF@?$AAM?$AAa?$AAr?$AAc?$AAh@ 000000018004bc20     libucrt:nlsdata.obj
 0002:00005c30       ??_C@_1M@GJNLMHFD@?$AAA?$AAp?$AAr?$AAi?$AAl@ 000000018004bc30     libucrt:nlsdata.obj
 0002:00005c40       ??_C@_19EPFLPGAP@?$AAJ?$AAu?$AAn?$AAe@ 000000018004bc40     libucrt:nlsdata.obj
 0002:00005c50       ??_C@_19BIFMLPCD@?$AAJ?$AAu?$AAl?$AAy@ 000000018004bc50     libucrt:nlsdata.obj
 0002:00005c60       ??_C@_1O@PAHLKOAC@?$AAA?$AAu?$AAg?$AAu?$AAs?$AAt@ 000000018004bc60     libucrt:nlsdata.obj
 0002:00005c70       ??_C@_1BE@DKAAMBJL@?$AAS?$AAe?$AAp?$AAt?$AAe?$AAm?$AAb?$AAe?$AAr@ 000000018004bc70     libucrt:nlsdata.obj
 0002:00005c88       ??_C@_1BA@EPANDLNG@?$AAO?$AAc?$AAt?$AAo?$AAb?$AAe?$AAr@ 000000018004bc88     libucrt:nlsdata.obj
 0002:00005c98       ??_C@_1BC@BGLIFPF@?$AAN?$AAo?$AAv?$AAe?$AAm?$AAb?$AAe?$AAr@ 000000018004bc98     libucrt:nlsdata.obj
 0002:00005cb0       ??_C@_1BC@FEMKIFH@?$AAD?$AAe?$AAc?$AAe?$AAm?$AAb?$AAe?$AAr@ 000000018004bcb0     libucrt:nlsdata.obj
 0002:00005cc4       ??_C@_15ODEHAHHF@?$AAA?$AAM@ 000000018004bcc4     libucrt:nlsdata.obj
 0002:00005ccc       ??_C@_15CLMNNGEL@?$AAP?$AAM@ 000000018004bccc     libucrt:nlsdata.obj
 0002:00005cd8       ??_C@_1BC@IEBCMHCM@?$AAM?$AAM?$AA?1?$AAd?$AAd?$AA?1?$AAy?$AAy@ 000000018004bcd8     libucrt:nlsdata.obj
 0002:00005cf0       ??_C@_1CI@KNAKOEBC@?$AAd?$AAd?$AAd?$AAd?$AA?0?$AA?5?$AAM?$AAM?$AAM?$AAM?$AA?5?$AAd?$AAd?$AA?0?$AA?5@ 000000018004bcf0     libucrt:nlsdata.obj
 0002:00005d18       ??_C@_1BC@GDGBMEMK@?$AAH?$AAH?$AA?3?$AAm?$AAm?$AA?3?$AAs?$AAs@ 000000018004bd18     libucrt:nlsdata.obj
 0002:00005d30       ??_C@_1M@BMHNFIME@?$AAe?$AAn?$AA?9?$AAU?$AAS@ 000000018004bd30     libucrt:nlsdata.obj
 0002:00005dc0       ??_C@_03OEIAHPBN@INF@      000000018004bdc0     libucrt:cvt.obj
 0002:00005dc4       ??_C@_03OJHLLCGB@inf@      000000018004bdc4     libucrt:cvt.obj
 0002:00005dc8       ??_C@_03LKNCIKJB@NAN@      000000018004bdc8     libucrt:cvt.obj
 0002:00005dcc       ??_C@_03LHCJEHON@nan@      000000018004bdcc     libucrt:cvt.obj
 0002:00005dd0       ??_C@_09OFJJIMPC@NAN?$CISNAN?$CJ@ 000000018004bdd0     libucrt:cvt.obj
 0002:00005de0       ??_C@_09IPFBKMDL@nan?$CIsnan?$CJ@ 000000018004bde0     libucrt:cvt.obj
 0002:00005df0       ??_C@_08IKHNHAJ@NAN?$CIIND?$CJ@ 000000018004bdf0     libucrt:cvt.obj
 0002:00005e00       ??_C@_08OFCDMILK@nan?$CIind?$CJ@ 000000018004be00     libucrt:cvt.obj
 0002:00005e0c       ??_C@_05KLBDPFGC@e?$CL000@ 000000018004be0c     libucrt:cvt.obj
 0002:00005e20       __newctype                 000000018004be20     libucrt:ctype.obj
 0002:00006120       __newclmap                 000000018004c120     libucrt:ctype.obj
 0002:000062a0       __newcumap                 000000018004c2a0     libucrt:ctype.obj
 0002:00006430       ??_C@_05HGHHAHAP@log10@    000000018004c430     libucrt:fpexcept.obj
 0002:00007280       ??_C@_15EMKDOKLE@?$AAa?$AAr@ 000000018004d280     libucrt:lcidtoname_downlevel.obj
 0002:00007288       ??_C@_15KNPADPLH@?$AAb?$AAg@ 000000018004d288     libucrt:lcidtoname_downlevel.obj
 0002:00007290       ??_C@_15EDMHLDMO@?$AAc?$AAa@ 000000018004d290     libucrt:lcidtoname_downlevel.obj
 0002:00007298       ??_C@_1O@BPEAJADD@?$AAz?$AAh?$AA?9?$AAC?$AAH?$AAS@ 000000018004d298     libucrt:lcidtoname_downlevel.obj
 0002:000072a8       ??_C@_15LJNHCMNK@?$AAc?$AAs@ 000000018004d2a8     libucrt:lcidtoname_downlevel.obj
 0002:000072b0       ??_C@_15FOMCIDHG@?$AAd?$AAa@ 000000018004d2b0     libucrt:lcidtoname_downlevel.obj
 0002:000072b8       ??_C@_15NBKABECB@?$AAd?$AAe@ 000000018004d2b8     libucrt:lcidtoname_downlevel.obj
 0002:000072c0       ??_C@_15GHPEIIAO@?$AAe?$AAl@ 000000018004d2c0     libucrt:lcidtoname_downlevel.obj
 0002:000072c8       ??_C@_15MNPNEAIF@?$AAe?$AAn@ 000000018004d2c8     libucrt:lcidtoname_downlevel.obj
 0002:000072d0       ??_C@_15GPIOMPMH@?$AAe?$AAs@ 000000018004d2d0     libucrt:lcidtoname_downlevel.obj
 0002:000072d8       ??_C@_15NGLOAKJC@?$AAf?$AAi@ 000000018004d2d8     libucrt:lcidtoname_downlevel.obj
 0002:000072e0       ??_C@_15FBKGNKAM@?$AAf?$AAr@ 000000018004d2e0     libucrt:lcidtoname_downlevel.obj
 0002:000072e8       ??_C@_15KGGCNEFK@?$AAh?$AAe@ 000000018004d2e8     libucrt:lcidtoname_downlevel.obj
 0002:000072f0       ??_C@_15PGHLIDMF@?$AAh?$AAu@ 000000018004d2f0     libucrt:lcidtoname_downlevel.obj
 0002:000072f8       ??_C@_15BIEMAPLM@?$AAi?$AAs@ 000000018004d2f8     libucrt:lcidtoname_downlevel.obj
 0002:00007300       ??_C@_15IFJLDHAF@?$AAi?$AAt@ 000000018004d300     libucrt:lcidtoname_downlevel.obj
 0002:00007308       ??_C@_15GEMIOCAG@?$AAj?$AAa@ 000000018004d308     libucrt:lcidtoname_downlevel.obj
 0002:00007310       ??_C@_15EPELEGJA@?$AAk?$AAo@ 000000018004d310     libucrt:lcidtoname_downlevel.obj
 0002:00007318       ??_C@_15NDDHIMN@?$AAn?$AAl@ 000000018004d318     libucrt:lcidtoname_downlevel.obj
 0002:00007320       ??_C@_15BPIGNHCD@?$AAn?$AAo@ 000000018004d320     libucrt:lcidtoname_downlevel.obj
 0002:00007328       ??_C@_15DEOPBLCG@?$AAp?$AAl@ 000000018004d328     libucrt:lcidtoname_downlevel.obj
 0002:00007330       ??_C@_15KBECGEFG@?$AAp?$AAt@ 000000018004d330     libucrt:lcidtoname_downlevel.obj
 0002:00007338       ??_C@_15GLJCBFMD@?$AAr?$AAo@ 000000018004d338     libucrt:lcidtoname_downlevel.obj
 0002:00007340       ??_C@_15FEDGKCDI@?$AAr?$AAu@ 000000018004d340     libucrt:lcidtoname_downlevel.obj
 0002:00007348       ??_C@_15GLKMLLHM@?$AAh?$AAr@ 000000018004d348     libucrt:lcidtoname_downlevel.obj
 0002:00007350       ??_C@_15CPKMFBDB@?$AAs?$AAk@ 000000018004d350     libucrt:lcidtoname_downlevel.obj
 0002:00007358       ??_C@_15BAAIOGMK@?$AAs?$AAq@ 000000018004d358     libucrt:lcidtoname_downlevel.obj
 0002:00007360       ??_C@_15INNPNOHD@?$AAs?$AAv@ 000000018004d360     libucrt:lcidtoname_downlevel.obj
 0002:00007368       ??_C@_15CABMMOGH@?$AAt?$AAh@ 000000018004d368     libucrt:lcidtoname_downlevel.obj
 0002:00007370       ??_C@_15BPLIHJJM@?$AAt?$AAr@ 000000018004d370     libucrt:lcidtoname_downlevel.obj
 0002:00007378       ??_C@_15NEOEKKDJ@?$AAu?$AAr@ 000000018004d378     libucrt:lcidtoname_downlevel.obj
 0002:00007380       ??_C@_15NFICGAJK@?$AAi?$AAd@ 000000018004d380     libucrt:lcidtoname_downlevel.obj
 0002:00007388       ??_C@_15PJPFLCCM@?$AAu?$AAk@ 000000018004d388     libucrt:lcidtoname_downlevel.obj
 0002:00007390       ??_C@_15HPJPHDM@?$AAb?$AAe@ 000000018004d390     libucrt:lcidtoname_downlevel.obj
 0002:00007398       ??_C@_15LCHLGJII@?$AAs?$AAl@ 000000018004d398     libucrt:lcidtoname_downlevel.obj
 0002:000073a0       ??_C@_15PCFJPHHO@?$AAe?$AAt@ 000000018004d3a0     libucrt:lcidtoname_downlevel.obj
 0002:000073a8       ??_C@_15HPFPGODN@?$AAl?$AAv@ 000000018004d3a8     libucrt:lcidtoname_downlevel.obj
 0002:000073b0       ??_C@_15NFFGKGLG@?$AAl?$AAt@ 000000018004d3b0     libucrt:lcidtoname_downlevel.obj
 0002:000073b8       ??_C@_15BDAKCCHN@?$AAf?$AAa@ 000000018004d3b8     libucrt:lcidtoname_downlevel.obj
 0002:000073c0       ??_C@_15NFGIAIAJ@?$AAv?$AAi@ 000000018004d3c0     libucrt:lcidtoname_downlevel.obj
 0002:000073c8       ??_C@_15LMKNDMHN@?$AAh?$AAy@ 000000018004d3c8     libucrt:lcidtoname_downlevel.obj
 0002:000073d0       ??_C@_15IJBHMCFL@?$AAa?$AAz@ 000000018004d3d0     libucrt:lcidtoname_downlevel.obj
 0002:000073d8       ??_C@_15EKOFJABL@?$AAe?$AAu@ 000000018004d3d8     libucrt:lcidtoname_downlevel.obj
 0002:000073e0       ??_C@_15BGHADCNK@?$AAm?$AAk@ 000000018004d3e0     libucrt:lcidtoname_downlevel.obj
 0002:000073e8       ??_C@_15JDNICKHM@?$AAa?$AAf@ 000000018004d3e8     libucrt:lcidtoname_downlevel.obj
 0002:000073f0       ??_C@_15KPJEDBKD@?$AAk?$AAa@ 000000018004d3f0     libucrt:lcidtoname_downlevel.obj
 0002:000073f8       ??_C@_15PDNFFFEO@?$AAf?$AAo@ 000000018004d3f8     libucrt:lcidtoname_downlevel.obj
 0002:00007400       ??_C@_15OMLEGLOC@?$AAh?$AAi@ 000000018004d400     libucrt:lcidtoname_downlevel.obj
 0002:00007408       ??_C@_15IDNNENKK@?$AAm?$AAs@ 000000018004d408     libucrt:lcidtoname_downlevel.obj
 0002:00007410       ??_C@_15MACJNBMH@?$AAk?$AAk@ 000000018004d410     libucrt:lcidtoname_downlevel.obj
 0002:00007418       ??_C@_15DKDJEOND@?$AAk?$AAy@ 000000018004d418     libucrt:lcidtoname_downlevel.obj
 0002:00007420       ??_C@_15DFGDLJBG@?$AAs?$AAw@ 000000018004d420     libucrt:lcidtoname_downlevel.obj
 0002:00007428       ??_C@_15BBFAICNG@?$AAu?$AAz@ 000000018004d428     libucrt:lcidtoname_downlevel.obj
 0002:00007430       ??_C@_15DKNDCGEA@?$AAt?$AAt@ 000000018004d430     libucrt:lcidtoname_downlevel.obj
 0002:00007438       ??_C@_15MGIFMDPL@?$AAp?$AAa@ 000000018004d438     libucrt:lcidtoname_downlevel.obj
 0002:00007440       ??_C@_15HCNDBBA@?$AAg?$AAu@ 000000018004d440     libucrt:lcidtoname_downlevel.obj
 0002:00007448       ??_C@_15FNBEIBON@?$AAt?$AAa@ 000000018004d448     libucrt:lcidtoname_downlevel.obj
 0002:00007450       ??_C@_15NCHGBGLK@?$AAt?$AAe@ 000000018004d450     libucrt:lcidtoname_downlevel.obj
 0002:00007458       ??_C@_15PHPHCBPF@?$AAk?$AAn@ 000000018004d458     libucrt:lcidtoname_downlevel.obj
 0002:00007460       ??_C@_15DLGBCKMP@?$AAm?$AAr@ 000000018004d460     libucrt:lcidtoname_downlevel.obj
 0002:00007468       ??_C@_15EABBLBFF@?$AAs?$AAa@ 000000018004d468     libucrt:lcidtoname_downlevel.obj
 0002:00007470       ??_C@_15CBKOMCOI@?$AAm?$AAn@ 000000018004d470     libucrt:lcidtoname_downlevel.obj
 0002:00007478       ??_C@_15CKDMCJAF@?$AAg?$AAl@ 000000018004d478     libucrt:lcidtoname_downlevel.obj
 0002:00007480       ??_C@_17CNJFBPG@?$AAk?$AAo?$AAk@ 000000018004d480     libucrt:lcidtoname_downlevel.obj
 0002:00007488       ??_C@_17FFBJICPL@?$AAs?$AAy?$AAr@ 000000018004d488     libucrt:lcidtoname_downlevel.obj
 0002:00007490       ??_C@_17KPNDCPAF@?$AAd?$AAi?$AAv@ 000000018004d490     libucrt:lcidtoname_downlevel.obj
 0002:00007498       ??_C@_11LOCGONAA@@         000000018004d498     libucrt:lcidtoname_downlevel.obj
 0002:000074a0       ??_C@_1M@OKAHONE@?$AAa?$AAr?$AA?9?$AAS?$AAA@ 000000018004d4a0     libucrt:lcidtoname_downlevel.obj
 0002:000074b0       ??_C@_1M@FFFIGIGK@?$AAb?$AAg?$AA?9?$AAB?$AAG@ 000000018004d4b0     libucrt:lcidtoname_downlevel.obj
 0002:000074c0       ??_C@_1M@BJNKEDC@?$AAc?$AAa?$AA?9?$AAE?$AAS@ 000000018004d4c0     libucrt:lcidtoname_downlevel.obj
 0002:000074d0       ??_C@_1M@IJJHFJHA@?$AAc?$AAs?$AA?9?$AAC?$AAZ@ 000000018004d4d0     libucrt:lcidtoname_downlevel.obj
 0002:000074e0       ??_C@_1M@CLPEOBGI@?$AAd?$AAa?$AA?9?$AAD?$AAK@ 000000018004d4e0     libucrt:lcidtoname_downlevel.obj
 0002:000074f0       ??_C@_1M@MCMADGCB@?$AAd?$AAe?$AA?9?$AAD?$AAE@ 000000018004d4f0     libucrt:lcidtoname_downlevel.obj
 0002:00007500       ??_C@_1M@OOCKEMAM@?$AAe?$AAl?$AA?9?$AAG?$AAR@ 000000018004d500     libucrt:lcidtoname_downlevel.obj
 0002:00007510       ??_C@_1M@DDNJFGID@?$AAf?$AAi?$AA?9?$AAF?$AAI@ 000000018004d510     libucrt:lcidtoname_downlevel.obj
 0002:00007520       ??_C@_1M@GLIPPMAC@?$AAf?$AAr?$AA?9?$AAF?$AAR@ 000000018004d520     libucrt:lcidtoname_downlevel.obj
 0002:00007530       ??_C@_1M@GFMCHPE@?$AAh?$AAe?$AA?9?$AAI?$AAL@ 000000018004d530     libucrt:lcidtoname_downlevel.obj
 0002:00007540       ??_C@_1M@MHLPGNKM@?$AAh?$AAu?$AA?9?$AAH?$AAU@ 000000018004d540     libucrt:lcidtoname_downlevel.obj
 0002:00007550       ??_C@_1M@LPDDNNPN@?$AAi?$AAs?$AA?9?$AAI?$AAS@ 000000018004d550     libucrt:lcidtoname_downlevel.obj
 0002:00007560       ??_C@_1M@MADIPODN@?$AAi?$AAt?$AA?9?$AAI?$AAT@ 000000018004d560     libucrt:lcidtoname_downlevel.obj
 0002:00007570       ??_C@_1M@IHBJJGG@?$AAn?$AAl?$AA?9?$AAN?$AAL@ 000000018004d570     libucrt:lcidtoname_downlevel.obj
 0002:00007580       ??_C@_1M@EANAGDL@?$AAn?$AAb?$AA?9?$AAN?$AAO@ 000000018004d580     libucrt:lcidtoname_downlevel.obj
 0002:00007590       ??_C@_1M@NEIEMEGP@?$AAp?$AAl?$AA?9?$AAP?$AAL@ 000000018004d590     libucrt:lcidtoname_downlevel.obj
 0002:000075a0       ??_C@_1M@BOCFIGEP@?$AAp?$AAt?$AA?9?$AAB?$AAR@ 000000018004d5a0     libucrt:lcidtoname_downlevel.obj
 0002:000075b0       ??_C@_1M@IMPFOPBG@?$AAr?$AAo?$AA?9?$AAR?$AAO@ 000000018004d5b0     libucrt:lcidtoname_downlevel.obj
 0002:000075c0       ??_C@_1M@IDNNEJMM@?$AAr?$AAu?$AA?9?$AAR?$AAU@ 000000018004d5c0     libucrt:lcidtoname_downlevel.obj
 0002:000075d0       ??_C@_1M@LILEEOGM@?$AAh?$AAr?$AA?9?$AAH?$AAR@ 000000018004d5d0     libucrt:lcidtoname_downlevel.obj
 0002:000075e0       ??_C@_1M@FKIFEHPB@?$AAs?$AAk?$AA?9?$AAS?$AAK@ 000000018004d5e0     libucrt:lcidtoname_downlevel.obj
 0002:000075f0       ??_C@_1M@LJMAMNPJ@?$AAs?$AAq?$AA?9?$AAA?$AAL@ 000000018004d5f0     libucrt:lcidtoname_downlevel.obj
 0002:00007600       ??_C@_1M@GIAKDKJK@?$AAs?$AAv?$AA?9?$AAS?$AAE@ 000000018004d600     libucrt:lcidtoname_downlevel.obj
 0002:00007610       ??_C@_1M@MKJKIKCL@?$AAt?$AAh?$AA?9?$AAT?$AAH@ 000000018004d610     libucrt:lcidtoname_downlevel.obj
 0002:00007620       ??_C@_1M@MFLCCMPB@?$AAt?$AAr?$AA?9?$AAT?$AAR@ 000000018004d620     libucrt:lcidtoname_downlevel.obj
 0002:00007630       ??_C@_1M@OIJHDKJN@?$AAu?$AAr?$AA?9?$AAP?$AAK@ 000000018004d630     libucrt:lcidtoname_downlevel.obj
 0002:00007640       ??_C@_1M@LHIPCIEK@?$AAi?$AAd?$AA?9?$AAI?$AAD@ 000000018004d640     libucrt:lcidtoname_downlevel.obj
 0002:00007650       ??_C@_1M@MFMOBGI@?$AAu?$AAk?$AA?9?$AAU?$AAA@ 000000018004d650     libucrt:lcidtoname_downlevel.obj
 0002:00007660       ??_C@_1M@OBGLJIPL@?$AAb?$AAe?$AA?9?$AAB?$AAY@ 000000018004d660     libucrt:lcidtoname_downlevel.obj
 0002:00007670       ??_C@_1M@BCFAJEAD@?$AAs?$AAl?$AA?9?$AAS?$AAI@ 000000018004d670     libucrt:lcidtoname_downlevel.obj
 0002:00007680       ??_C@_1M@FKFFEDDN@?$AAe?$AAt?$AA?9?$AAE?$AAE@ 000000018004d680     libucrt:lcidtoname_downlevel.obj
 0002:00007690       ??_C@_1M@KGKKAACI@?$AAl?$AAv?$AA?9?$AAL?$AAV@ 000000018004d690     libucrt:lcidtoname_downlevel.obj
 0002:000076a0       ??_C@_1M@IFGBIJO@?$AAl?$AAt?$AA?9?$AAL?$AAT@ 000000018004d6a0     libucrt:lcidtoname_downlevel.obj
 0002:000076b0       ??_C@_1M@FGEAHEDM@?$AAf?$AAa?$AA?9?$AAI?$AAR@ 000000018004d6b0     libucrt:lcidtoname_downlevel.obj
 0002:000076c0       ??_C@_1M@KBMAIBFN@?$AAv?$AAi?$AA?9?$AAV?$AAN@ 000000018004d6c0     libucrt:lcidtoname_downlevel.obj
 0002:000076d0       ??_C@_1M@GPCBKDJK@?$AAh?$AAy?$AA?9?$AAA?$AAM@ 000000018004d6d0     libucrt:lcidtoname_downlevel.obj
 0002:000076e0       ??_C@_1BG@BECMDDJB@?$AAa?$AAz?$AA?9?$AAA?$AAZ?$AA?9?$AAL?$AAa?$AAt?$AAn@ 000000018004d6e0     libucrt:lcidtoname_downlevel.obj
 0002:000076f8       ??_C@_1M@MAOFCAEA@?$AAe?$AAu?$AA?9?$AAE?$AAS@ 000000018004d6f8     libucrt:lcidtoname_downlevel.obj
 0002:00007708       ??_C@_1M@IGHABKPI@?$AAm?$AAk?$AA?9?$AAM?$AAK@ 000000018004d708     libucrt:lcidtoname_downlevel.obj
 0002:00007718       ??_C@_1M@IAIGNEJG@?$AAt?$AAn?$AA?9?$AAZ?$AAA@ 000000018004d718     libucrt:lcidtoname_downlevel.obj
 0002:00007728       ??_C@_1M@IIJCOJFA@?$AAx?$AAh?$AA?9?$AAZ?$AAA@ 000000018004d728     libucrt:lcidtoname_downlevel.obj
 0002:00007738       ??_C@_1M@LGPJHNJH@?$AAz?$AAu?$AA?9?$AAZ?$AAA@ 000000018004d738     libucrt:lcidtoname_downlevel.obj
 0002:00007748       ??_C@_1M@HOKAOIO@?$AAa?$AAf?$AA?9?$AAZ?$AAA@ 000000018004d748     libucrt:lcidtoname_downlevel.obj
 0002:00007758       ??_C@_1M@DPCLHLIE@?$AAk?$AAa?$AA?9?$AAG?$AAE@ 000000018004d758     libucrt:lcidtoname_downlevel.obj
 0002:00007768       ??_C@_1M@BLKMHJBI@?$AAf?$AAo?$AA?9?$AAF?$AAO@ 000000018004d768     libucrt:lcidtoname_downlevel.obj
 0002:00007778       ??_C@_1M@LGGJAPPB@?$AAh?$AAi?$AA?9?$AAI?$AAN@ 000000018004d778     libucrt:lcidtoname_downlevel.obj
 0002:00007788       ??_C@_1M@FIKPIHFE@?$AAm?$AAt?$AA?9?$AAM?$AAT@ 000000018004d788     libucrt:lcidtoname_downlevel.obj
 0002:00007798       ??_C@_1M@HEGGPBFA@?$AAs?$AAe?$AA?9?$AAN?$AAO@ 000000018004d798     libucrt:lcidtoname_downlevel.obj
 0002:000077a8       ??_C@_1M@EIBJEEPA@?$AAm?$AAs?$AA?9?$AAM?$AAY@ 000000018004d7a8     libucrt:lcidtoname_downlevel.obj
 0002:000077b8       ??_C@_1M@FHLBGMPP@?$AAk?$AAk?$AA?9?$AAK?$AAZ@ 000000018004d7b8     libucrt:lcidtoname_downlevel.obj
 0002:000077c8       ??_C@_1M@NGJJLCGI@?$AAk?$AAy?$AA?9?$AAK?$AAG@ 000000018004d7c8     libucrt:lcidtoname_downlevel.obj
 0002:000077d8       ??_C@_1M@GIENNBFC@?$AAs?$AAw?$AA?9?$AAK?$AAE@ 000000018004d7d8     libucrt:lcidtoname_downlevel.obj
 0002:000077e8       ??_C@_1BG@NDGMJIMJ@?$AAu?$AAz?$AA?9?$AAU?$AAZ?$AA?9?$AAL?$AAa?$AAt?$AAn@ 000000018004d7e8     libucrt:lcidtoname_downlevel.obj
 0002:00007800       ??_C@_1M@IDCCIHBC@?$AAt?$AAt?$AA?9?$AAR?$AAU@ 000000018004d800     libucrt:lcidtoname_downlevel.obj
 0002:00007810       ??_C@_1M@LOICPMOJ@?$AAb?$AAn?$AA?9?$AAI?$AAN@ 000000018004d810     libucrt:lcidtoname_downlevel.obj
 0002:00007820       ??_C@_1M@KPKKNEAH@?$AAp?$AAa?$AA?9?$AAI?$AAN@ 000000018004d820     libucrt:lcidtoname_downlevel.obj
 0002:00007830       ??_C@_1M@PJGPPBOG@?$AAg?$AAu?$AA?9?$AAI?$AAN@ 000000018004d830     libucrt:lcidtoname_downlevel.obj
 0002:00007840       ??_C@_1M@KMKMOPHI@?$AAt?$AAa?$AA?9?$AAI?$AAN@ 000000018004d840     libucrt:lcidtoname_downlevel.obj
 0002:00007850       ??_C@_1M@KFEHEPAC@?$AAt?$AAe?$AA?9?$AAI?$AAN@ 000000018004d850     libucrt:lcidtoname_downlevel.obj
 0002:00007860       ??_C@_1M@CDCLMGHI@?$AAk?$AAn?$AA?9?$AAI?$AAN@ 000000018004d860     libucrt:lcidtoname_downlevel.obj
 0002:00007870       ??_C@_1M@MIODLDKF@?$AAm?$AAl?$AA?9?$AAI?$AAN@ 000000018004d870     libucrt:lcidtoname_downlevel.obj
 0002:00007880       ??_C@_1M@PBIEACPO@?$AAm?$AAr?$AA?9?$AAI?$AAN@ 000000018004d880     libucrt:lcidtoname_downlevel.obj
 0002:00007890       ??_C@_1M@NIDEAGPH@?$AAs?$AAa?$AA?9?$AAI?$AAN@ 000000018004d890     libucrt:lcidtoname_downlevel.obj
 0002:000078a0       ??_C@_1M@FHIHCBIO@?$AAm?$AAn?$AA?9?$AAM?$AAN@ 000000018004d8a0     libucrt:lcidtoname_downlevel.obj
 0002:000078b0       ??_C@_1M@JAIJPENP@?$AAc?$AAy?$AA?9?$AAG?$AAB@ 000000018004d8b0     libucrt:lcidtoname_downlevel.obj
 0002:000078c0       ??_C@_1M@PHGFBEPN@?$AAg?$AAl?$AA?9?$AAE?$AAS@ 000000018004d8c0     libucrt:lcidtoname_downlevel.obj
 0002:000078d0       ??_C@_1O@KPIPDNCP@?$AAk?$AAo?$AAk?$AA?9?$AAI?$AAN@ 000000018004d8d0     libucrt:lcidtoname_downlevel.obj
 0002:000078e0       ??_C@_1O@KNHJLDJA@?$AAs?$AAy?$AAr?$AA?9?$AAS?$AAY@ 000000018004d8e0     libucrt:lcidtoname_downlevel.obj
 0002:000078f0       ??_C@_1O@MKEKBLAH@?$AAd?$AAi?$AAv?$AA?9?$AAM?$AAV@ 000000018004d8f0     libucrt:lcidtoname_downlevel.obj
 0002:00007900       ??_C@_1O@OHDCKDDF@?$AAq?$AAu?$AAz?$AA?9?$AAB?$AAO@ 000000018004d900     libucrt:lcidtoname_downlevel.obj
 0002:00007910       ??_C@_1M@LEPJNLFD@?$AAn?$AAs?$AA?9?$AAZ?$AAA@ 000000018004d910     libucrt:lcidtoname_downlevel.obj
 0002:00007920       ??_C@_1M@OMLEIIJB@?$AAm?$AAi?$AA?9?$AAN?$AAZ@ 000000018004d920     libucrt:lcidtoname_downlevel.obj
 0002:00007930       ??_C@_1M@PMPEAILG@?$AAa?$AAr?$AA?9?$AAI?$AAQ@ 000000018004d930     libucrt:lcidtoname_downlevel.obj
 0002:00007940       ??_C@_1M@CNKPNOEE@?$AAd?$AAe?$AA?9?$AAC?$AAH@ 000000018004d940     libucrt:lcidtoname_downlevel.obj
 0002:00007950       ??_C@_1M@LKMGMLKO@?$AAe?$AAn?$AA?9?$AAG?$AAB@ 000000018004d950     libucrt:lcidtoname_downlevel.obj
 0002:00007960       ??_C@_1M@PGKJFFGL@?$AAe?$AAs?$AA?9?$AAM?$AAX@ 000000018004d960     libucrt:lcidtoname_downlevel.obj
 0002:00007970       ??_C@_1M@DNNANBDC@?$AAf?$AAr?$AA?9?$AAB?$AAE@ 000000018004d970     libucrt:lcidtoname_downlevel.obj
 0002:00007980       ??_C@_1M@HLGMDFHM@?$AAi?$AAt?$AA?9?$AAC?$AAH@ 000000018004d980     libucrt:lcidtoname_downlevel.obj
 0002:00007990       ??_C@_1M@CLLBGJH@?$AAn?$AAl?$AA?9?$AAB?$AAE@ 000000018004d990     libucrt:lcidtoname_downlevel.obj
 0002:000079a0       ??_C@_1M@BODBOGLF@?$AAn?$AAn?$AA?9?$AAN?$AAO@ 000000018004d9a0     libucrt:lcidtoname_downlevel.obj
 0002:000079b0       ??_C@_1M@HFFAHKAD@?$AAp?$AAt?$AA?9?$AAP?$AAT@ 000000018004d9b0     libucrt:lcidtoname_downlevel.obj
 0002:000079c0       ??_C@_1BG@LNOAKHIE@?$AAs?$AAr?$AA?9?$AAS?$AAP?$AA?9?$AAL?$AAa?$AAt?$AAn@ 000000018004d9c0     libucrt:lcidtoname_downlevel.obj
 0002:000079d8       ??_C@_1M@HBMHBGAK@?$AAs?$AAv?$AA?9?$AAF?$AAI@ 000000018004d9d8     libucrt:lcidtoname_downlevel.obj
 0002:000079e8       ??_C@_1BG@DGCJGJBE@?$AAa?$AAz?$AA?9?$AAA?$AAZ?$AA?9?$AAC?$AAy?$AAr?$AAl@ 000000018004d9e8     libucrt:lcidtoname_downlevel.obj
 0002:00007a00       ??_C@_1M@KEJDAAHB@?$AAs?$AAe?$AA?9?$AAS?$AAE@ 000000018004da00     libucrt:lcidtoname_downlevel.obj
 0002:00007a10       ??_C@_1M@HEIBJJAD@?$AAm?$AAs?$AA?9?$AAB?$AAN@ 000000018004da10     libucrt:lcidtoname_downlevel.obj
 0002:00007a20       ??_C@_1BG@PBGJMCEM@?$AAu?$AAz?$AA?9?$AAU?$AAZ?$AA?9?$AAC?$AAy?$AAr?$AAl@ 000000018004da20     libucrt:lcidtoname_downlevel.obj
 0002:00007a38       ??_C@_1O@LAOBCMDF@?$AAq?$AAu?$AAz?$AA?9?$AAE?$AAC@ 000000018004da38     libucrt:lcidtoname_downlevel.obj
 0002:00007a48       ??_C@_1M@POEEMAIO@?$AAa?$AAr?$AA?9?$AAE?$AAG@ 000000018004da48     libucrt:lcidtoname_downlevel.obj
 0002:00007a58       ??_C@_1M@EFAKDEDL@?$AAz?$AAh?$AA?9?$AAH?$AAK@ 000000018004da58     libucrt:lcidtoname_downlevel.obj
 0002:00007a68       ??_C@_1M@HKKIJHGI@?$AAd?$AAe?$AA?9?$AAA?$AAT@ 000000018004da68     libucrt:lcidtoname_downlevel.obj
 0002:00007a78       ??_C@_1M@KBFBEHJF@?$AAe?$AAn?$AA?9?$AAA?$AAU@ 000000018004da78     libucrt:lcidtoname_downlevel.obj
 0002:00007a88       ??_C@_1M@MNPLFAAH@?$AAe?$AAs?$AA?9?$AAE?$AAS@ 000000018004da88     libucrt:lcidtoname_downlevel.obj
 0002:00007a98       ??_C@_1M@HJOOJFMA@?$AAf?$AAr?$AA?9?$AAC?$AAA@ 000000018004da98     libucrt:lcidtoname_downlevel.obj
 0002:00007aa8       ??_C@_1BG@JPOFPNAB@?$AAs?$AAr?$AA?9?$AAS?$AAP?$AA?9?$AAC?$AAy?$AAr?$AAl@ 000000018004daa8     libucrt:lcidtoname_downlevel.obj
 0002:00007ac0       ??_C@_1M@LNFOCMOB@?$AAs?$AAe?$AA?9?$AAF?$AAI@ 000000018004dac0     libucrt:lcidtoname_downlevel.obj
 0002:00007ad0       ??_C@_1O@MGJBOAMB@?$AAq?$AAu?$AAz?$AA?9?$AAP?$AAE@ 000000018004dad0     libucrt:lcidtoname_downlevel.obj
 0002:00007ae0       ??_C@_1M@GJINLBOK@?$AAa?$AAr?$AA?9?$AAL?$AAY@ 000000018004dae0     libucrt:lcidtoname_downlevel.obj
 0002:00007af0       ??_C@_1M@GGMNHJNL@?$AAz?$AAh?$AA?9?$AAS?$AAG@ 000000018004daf0     libucrt:lcidtoname_downlevel.obj
 0002:00007b00       ??_C@_1M@HOIKODND@?$AAd?$AAe?$AA?9?$AAL?$AAU@ 000000018004db00     libucrt:lcidtoname_downlevel.obj
 0002:00007b10       ??_C@_1M@DDOCCGFG@?$AAe?$AAn?$AA?9?$AAC?$AAA@ 000000018004db10     libucrt:lcidtoname_downlevel.obj
 0002:00007b20       ??_C@_1M@BNOEMJLF@?$AAe?$AAs?$AA?9?$AAG?$AAT@ 000000018004db20     libucrt:lcidtoname_downlevel.obj
 0002:00007b30       ??_C@_1M@EOGNKEK@?$AAf?$AAr?$AA?9?$AAC?$AAH@ 000000018004db30     libucrt:lcidtoname_downlevel.obj
 0002:00007b40       ??_C@_1M@FLIDJFHL@?$AAh?$AAr?$AA?9?$AAB?$AAA@ 000000018004db40     libucrt:lcidtoname_downlevel.obj
 0002:00007b50       ??_C@_1O@FMCELNAJ@?$AAs?$AAm?$AAj?$AA?9?$AAN?$AAO@ 000000018004db50     libucrt:lcidtoname_downlevel.obj
 0002:00007b60       ??_C@_1M@JHGLJMGJ@?$AAa?$AAr?$AA?9?$AAD?$AAZ@ 000000018004db60     libucrt:lcidtoname_downlevel.obj
 0002:00007b70       ??_C@_1M@JKKFDCNP@?$AAz?$AAh?$AA?9?$AAM?$AAO@ 000000018004db70     libucrt:lcidtoname_downlevel.obj
 0002:00007b80       ??_C@_1M@GEEFALPE@?$AAd?$AAe?$AA?9?$AAL?$AAI@ 000000018004db80     libucrt:lcidtoname_downlevel.obj
 0002:00007b90       ??_C@_1M@IGEOFBG@?$AAe?$AAn?$AA?9?$AAN?$AAZ@ 000000018004db90     libucrt:lcidtoname_downlevel.obj
 0002:00007ba0       ??_C@_1M@KDBONEHP@?$AAe?$AAs?$AA?9?$AAC?$AAR@ 000000018004dba0     libucrt:lcidtoname_downlevel.obj
 0002:00007bb0       ??_C@_1M@FHMDOHNN@?$AAf?$AAr?$AA?9?$AAL?$AAU@ 000000018004dbb0     libucrt:lcidtoname_downlevel.obj
 0002:00007bc0       ??_C@_1BG@NFKKMAFG@?$AAb?$AAs?$AA?9?$AAB?$AAA?$AA?9?$AAL?$AAa?$AAt?$AAn@ 000000018004dbc0     libucrt:lcidtoname_downlevel.obj
 0002:00007bd8       ??_C@_1O@IMNBEMCI@?$AAs?$AAm?$AAj?$AA?9?$AAS?$AAE@ 000000018004dbd8     libucrt:lcidtoname_downlevel.obj
 0002:00007be8       ??_C@_1M@DHHMBNDP@?$AAa?$AAr?$AA?9?$AAM?$AAA@ 000000018004dbe8     libucrt:lcidtoname_downlevel.obj
 0002:00007bf8       ??_C@_1M@BNBLJCGH@?$AAe?$AAn?$AA?9?$AAI?$AAE@ 000000018004dbf8     libucrt:lcidtoname_downlevel.obj
 0002:00007c08       ??_C@_1M@GEPAFMDL@?$AAe?$AAs?$AA?9?$AAP?$AAA@ 000000018004dc08     libucrt:lcidtoname_downlevel.obj
 0002:00007c18       ??_C@_1M@OJONDMDL@?$AAf?$AAr?$AA?9?$AAM?$AAC@ 000000018004dc18     libucrt:lcidtoname_downlevel.obj
 0002:00007c28       ??_C@_1BG@OBCNFJB@?$AAs?$AAr?$AA?9?$AAB?$AAA?$AA?9?$AAL?$AAa?$AAt?$AAn@ 000000018004dc28     libucrt:lcidtoname_downlevel.obj
 0002:00007c40       ??_C@_1O@KEMEEGPO@?$AAs?$AAm?$AAa?$AA?9?$AAN?$AAO@ 000000018004dc40     libucrt:lcidtoname_downlevel.obj
 0002:00007c50       ??_C@_1M@ELMGFODK@?$AAa?$AAr?$AA?9?$AAT?$AAN@ 000000018004dc50     libucrt:lcidtoname_downlevel.obj
 0002:00007c60       ??_C@_1M@BHDLHFAF@?$AAe?$AAn?$AA?9?$AAZ?$AAA@ 000000018004dc60     libucrt:lcidtoname_downlevel.obj
 0002:00007c70       ??_C@_1M@BMGIGLIF@?$AAe?$AAs?$AA?9?$AAD?$AAO@ 000000018004dc70     libucrt:lcidtoname_downlevel.obj
 0002:00007c80       ??_C@_1BG@CMBHIPBE@?$AAs?$AAr?$AA?9?$AAB?$AAA?$AA?9?$AAC?$AAy?$AAr?$AAl@ 000000018004dc80     libucrt:lcidtoname_downlevel.obj
 0002:00007c98       ??_C@_1O@HEDBLHNP@?$AAs?$AAm?$AAa?$AA?9?$AAS?$AAE@ 000000018004dc98     libucrt:lcidtoname_downlevel.obj
 0002:00007ca8       ??_C@_1M@DAGCADIM@?$AAa?$AAr?$AA?9?$AAO?$AAM@ 000000018004dca8     libucrt:lcidtoname_downlevel.obj
 0002:00007cb8       ??_C@_1M@FODLMICG@?$AAe?$AAn?$AA?9?$AAJ?$AAM@ 000000018004dcb8     libucrt:lcidtoname_downlevel.obj
 0002:00007cc8       ??_C@_1M@DNMLCIHB@?$AAe?$AAs?$AA?9?$AAV?$AAE@ 000000018004dcc8     libucrt:lcidtoname_downlevel.obj
 0002:00007cd8       ??_C@_1O@EOKHMKJK@?$AAs?$AAm?$AAs?$AA?9?$AAF?$AAI@ 000000018004dcd8     libucrt:lcidtoname_downlevel.obj
 0002:00007ce8       ??_C@_1M@CAFJMKOF@?$AAa?$AAr?$AA?9?$AAY?$AAE@ 000000018004dce8     libucrt:lcidtoname_downlevel.obj
 0002:00007cf8       ??_C@_1M@CBFHIJLI@?$AAe?$AAn?$AA?9?$AAC?$AAB@ 000000018004dcf8     libucrt:lcidtoname_downlevel.obj
 0002:00007d08       ??_C@_1M@BGNFLDN@?$AAe?$AAs?$AA?9?$AAC?$AAO@ 000000018004dd08     libucrt:lcidtoname_downlevel.obj
 0002:00007d18       ??_C@_1O@JMPHMAMC@?$AAs?$AAm?$AAn?$AA?9?$AAF?$AAI@ 000000018004dd18     libucrt:lcidtoname_downlevel.obj
 0002:00007d28       ??_C@_1M@JLANABKE@?$AAa?$AAr?$AA?9?$AAS?$AAY@ 000000018004dd28     libucrt:lcidtoname_downlevel.obj
 0002:00007d38       ??_C@_1M@HPKGCFGN@?$AAe?$AAn?$AA?9?$AAB?$AAZ@ 000000018004dd38     libucrt:lcidtoname_downlevel.obj
 0002:00007d48       ??_C@_1M@OLJCMLGM@?$AAe?$AAs?$AA?9?$AAP?$AAE@ 000000018004dd48     libucrt:lcidtoname_downlevel.obj
 0002:00007d58       ??_C@_1M@MKKGFKLE@?$AAa?$AAr?$AA?9?$AAJ?$AAO@ 000000018004dd58     libucrt:lcidtoname_downlevel.obj
 0002:00007d68       ??_C@_1M@EKPGLDNI@?$AAe?$AAn?$AA?9?$AAT?$AAT@ 000000018004dd68     libucrt:lcidtoname_downlevel.obj
 0002:00007d78       ??_C@_1M@OONGHFHE@?$AAe?$AAs?$AA?9?$AAA?$AAR@ 000000018004dd78     libucrt:lcidtoname_downlevel.obj
 0002:00007d88       ??_C@_1M@OOJFGBHE@?$AAa?$AAr?$AA?9?$AAL?$AAB@ 000000018004dd88     libucrt:lcidtoname_downlevel.obj
 0002:00007d98       ??_C@_1M@GCEJHNEG@?$AAe?$AAn?$AA?9?$AAZ?$AAW@ 000000018004dd98     libucrt:lcidtoname_downlevel.obj
 0002:00007da8       ??_C@_1M@JNOCAHJI@?$AAe?$AAs?$AA?9?$AAE?$AAC@ 000000018004dda8     libucrt:lcidtoname_downlevel.obj
 0002:00007db8       ??_C@_1M@JEFHPGGB@?$AAa?$AAr?$AA?9?$AAK?$AAW@ 000000018004ddb8     libucrt:lcidtoname_downlevel.obj
 0002:00007dc8       ??_C@_1M@MLKIBJOJ@?$AAe?$AAn?$AA?9?$AAP?$AAH@ 000000018004ddc8     libucrt:lcidtoname_downlevel.obj
 0002:00007dd8       ??_C@_1M@BDNIPEND@?$AAe?$AAs?$AA?9?$AAC?$AAL@ 000000018004ddd8     libucrt:lcidtoname_downlevel.obj
 0002:00007de8       ??_C@_1M@MPNMEKBD@?$AAa?$AAr?$AA?9?$AAA?$AAE@ 000000018004dde8     libucrt:lcidtoname_downlevel.obj
 0002:00007df8       ??_C@_1M@KBJALCPI@?$AAe?$AAs?$AA?9?$AAU?$AAY@ 000000018004ddf8     libucrt:lcidtoname_downlevel.obj
 0002:00007e08       ??_C@_1M@LLCCOAGA@?$AAa?$AAr?$AA?9?$AAB?$AAH@ 000000018004de08     libucrt:lcidtoname_downlevel.obj
 0002:00007e18       ??_C@_1M@PBFNCDEL@?$AAe?$AAs?$AA?9?$AAP?$AAY@ 000000018004de18     libucrt:lcidtoname_downlevel.obj
 0002:00007e28       ??_C@_1M@EDGINPNP@?$AAa?$AAr?$AA?9?$AAQ?$AAA@ 000000018004de28     libucrt:lcidtoname_downlevel.obj
 0002:00007e38       ??_C@_1M@MKDBIIJI@?$AAe?$AAs?$AA?9?$AAB?$AAO@ 000000018004de38     libucrt:lcidtoname_downlevel.obj
 0002:00007e48       ??_C@_1M@CPKKEBLD@?$AAe?$AAs?$AA?9?$AAS?$AAV@ 000000018004de48     libucrt:lcidtoname_downlevel.obj
 0002:00007e58       ??_C@_1M@NDBGMMJL@?$AAe?$AAs?$AA?9?$AAH?$AAN@ 000000018004de58     libucrt:lcidtoname_downlevel.obj
 0002:00007e68       ??_C@_1M@JIJIBHDP@?$AAe?$AAs?$AA?9?$AAN?$AAI@ 000000018004de68     libucrt:lcidtoname_downlevel.obj
 0002:00007e78       ??_C@_1M@CGFMKEEK@?$AAe?$AAs?$AA?9?$AAP?$AAR@ 000000018004de78     libucrt:lcidtoname_downlevel.obj
 0002:00007e88       ??_C@_1O@ICJHKIIK@?$AAz?$AAh?$AA?9?$AAC?$AAH?$AAT@ 000000018004de88     libucrt:lcidtoname_downlevel.obj
 0002:00007e98       ??_C@_15CLNEJCE@?$AAs?$AAr@ 000000018004de98     libucrt:lcidtoname_downlevel.obj
 0002:00008ce0       ??_C@_1M@KAHEKEIG@?$AAa?$AAf?$AA?9?$AAz?$AAa@ 000000018004ece0     libucrt:lcidtoname_downlevel.obj
 0002:00008cf0       ??_C@_1M@GIECOABL@?$AAa?$AAr?$AA?9?$AAa?$AAe@ 000000018004ecf0     libucrt:lcidtoname_downlevel.obj
 0002:00008d00       ??_C@_1M@BMLMEKGI@?$AAa?$AAr?$AA?9?$AAb?$AAh@ 000000018004ed00     libucrt:lcidtoname_downlevel.obj
 0002:00008d10       ??_C@_1M@DAPFDGGB@?$AAa?$AAr?$AA?9?$AAd?$AAz@ 000000018004ed10     libucrt:lcidtoname_downlevel.obj
 0002:00008d20       ??_C@_1M@FJNKGKIG@?$AAa?$AAr?$AA?9?$AAe?$AAg@ 000000018004ed20     libucrt:lcidtoname_downlevel.obj
 0002:00008d30       ??_C@_1M@FLGKKCLO@?$AAa?$AAr?$AA?9?$AAi?$AAq@ 000000018004ed30     libucrt:lcidtoname_downlevel.obj
 0002:00008d40       ??_C@_1M@GNDIPALM@?$AAa?$AAr?$AA?9?$AAj?$AAo@ 000000018004ed40     libucrt:lcidtoname_downlevel.obj
 0002:00008d50       ??_C@_1M@DDMJFMGJ@?$AAa?$AAr?$AA?9?$AAk?$AAw@ 000000018004ed50     libucrt:lcidtoname_downlevel.obj
 0002:00008d60       ??_C@_1M@EJALMLHM@?$AAa?$AAr?$AA?9?$AAl?$AAb@ 000000018004ed60     libucrt:lcidtoname_downlevel.obj
 0002:00008d70       ??_C@_1M@MOBDBLOC@?$AAa?$AAr?$AA?9?$AAl?$AAy@ 000000018004ed70     libucrt:lcidtoname_downlevel.obj
 0002:00008d80       ??_C@_1M@JAOCLHDH@?$AAa?$AAr?$AA?9?$AAm?$AAa@ 000000018004ed80     libucrt:lcidtoname_downlevel.obj
 0002:00008d90       ??_C@_1M@JHPMKJIE@?$AAa?$AAr?$AA?9?$AAo?$AAm@ 000000018004ed90     libucrt:lcidtoname_downlevel.obj
 0002:00008da0       ??_C@_1M@OEPGHFNH@?$AAa?$AAr?$AA?9?$AAq?$AAa@ 000000018004eda0     libucrt:lcidtoname_downlevel.obj
 0002:00008db0       ??_C@_1M@KJDONENM@?$AAa?$AAr?$AA?9?$AAs?$AAa@ 000000018004edb0     libucrt:lcidtoname_downlevel.obj
 0002:00008dc0       ??_C@_1M@DMJDKLKM@?$AAa?$AAr?$AA?9?$AAs?$AAy@ 000000018004edc0     libucrt:lcidtoname_downlevel.obj
 0002:00008dd0       ??_C@_1M@OMFIPEDC@?$AAa?$AAr?$AA?9?$AAt?$AAn@ 000000018004edd0     libucrt:lcidtoname_downlevel.obj
 0002:00008de0       ??_C@_1M@IHMHGAON@?$AAa?$AAr?$AA?9?$AAy?$AAe@ 000000018004ede0     libucrt:lcidtoname_downlevel.obj
 0002:00008df0       ??_C@_1BG@KDCPGJGB@?$AAa?$AAz?$AA?9?$AAa?$AAz?$AA?9?$AAc?$AAy?$AAr?$AAl@ 000000018004edf0     libucrt:lcidtoname_downlevel.obj
 0002:00008e08       ??_C@_1BG@IBCKDDOE@?$AAa?$AAz?$AA?9?$AAa?$AAz?$AA?9?$AAl?$AAa?$AAt?$AAn@ 000000018004ee08     libucrt:lcidtoname_downlevel.obj
 0002:00008e20       ??_C@_1M@EGPFDCPD@?$AAb?$AAe?$AA?9?$AAb?$AAy@ 000000018004ee20     libucrt:lcidtoname_downlevel.obj
 0002:00008e30       ??_C@_1M@PCMGMCGC@?$AAb?$AAg?$AA?9?$AAb?$AAg@ 000000018004ee30     libucrt:lcidtoname_downlevel.obj
 0002:00008e40       ??_C@_1M@BJBMFGOB@?$AAb?$AAn?$AA?9?$AAi?$AAn@ 000000018004ee40     libucrt:lcidtoname_downlevel.obj
 0002:00008e50       ??_C@_1BG@EAKMMACD@?$AAb?$AAs?$AA?9?$AAb?$AAa?$AA?9?$AAl?$AAa?$AAt?$AAn@ 000000018004ee50     libucrt:lcidtoname_downlevel.obj
 0002:00008e68       ??_C@_1M@KGADAODK@?$AAc?$AAa?$AA?9?$AAe?$AAs@ 000000018004ee68     libucrt:lcidtoname_downlevel.obj
 0002:00008e78       ??_C@_1M@COAJPDHI@?$AAc?$AAs?$AA?9?$AAc?$AAz@ 000000018004ee78     libucrt:lcidtoname_downlevel.obj
 0002:00008e88       ??_C@_1M@DHBHFONH@?$AAc?$AAy?$AA?9?$AAg?$AAb@ 000000018004ee88     libucrt:lcidtoname_downlevel.obj
 0002:00008e98       ??_C@_1M@IMGKELGA@?$AAd?$AAa?$AA?9?$AAd?$AAk@ 000000018004ee98     libucrt:lcidtoname_downlevel.obj
 0002:00008ea8       ??_C@_1M@NNDGDNGA@?$AAd?$AAe?$AA?9?$AAa?$AAt@ 000000018004eea8     libucrt:lcidtoname_downlevel.obj
 0002:00008eb8       ??_C@_1M@IKDBHEEM@?$AAd?$AAe?$AA?9?$AAc?$AAh@ 000000018004eeb8     libucrt:lcidtoname_downlevel.obj
 0002:00008ec8       ??_C@_1M@GFFOJMCJ@?$AAd?$AAe?$AA?9?$AAd?$AAe@ 000000018004eec8     libucrt:lcidtoname_downlevel.obj
 0002:00008ed8       ??_C@_1M@MDNLKBPM@?$AAd?$AAe?$AA?9?$AAl?$AAi@ 000000018004eed8     libucrt:lcidtoname_downlevel.obj
 0002:00008ee8       ??_C@_1M@NJBEEJNL@?$AAd?$AAe?$AA?9?$AAl?$AAu@ 000000018004eee8     libucrt:lcidtoname_downlevel.obj
 0002:00008ef8       ??_C@_1O@GNNELBAP@?$AAd?$AAi?$AAv?$AA?9?$AAm?$AAv@ 000000018004eef8     libucrt:lcidtoname_downlevel.obj
 0002:00008f08       ??_C@_1M@EJLEOGAE@?$AAe?$AAl?$AA?9?$AAg?$AAr@ 000000018004ef08     libucrt:lcidtoname_downlevel.obj
 0002:00008f18       ??_C@_1M@GMPONJN@?$AAe?$AAn?$AA?9?$AAa?$AAu@ 000000018004ef18     libucrt:lcidtoname_downlevel.obj
 0002:00008f28       ??_C@_1M@NIDIIPGF@?$AAe?$AAn?$AA?9?$AAb?$AAz@ 000000018004ef28     libucrt:lcidtoname_downlevel.obj
 0002:00008f38       ??_C@_1M@JEHMIMFO@?$AAe?$AAn?$AA?9?$AAc?$AAa@ 000000018004ef38     libucrt:lcidtoname_downlevel.obj
 0002:00008f48       ??_C@_1M@IGMJCDLA@?$AAe?$AAn?$AA?9?$AAc?$AAb@ 000000018004ef48     libucrt:lcidtoname_downlevel.obj
 0002:00008f58       ??_C@_1M@BNFIGBKG@?$AAe?$AAn?$AA?9?$AAg?$AAb@ 000000018004ef58     libucrt:lcidtoname_downlevel.obj
 0002:00008f68       ??_C@_1M@LKIFDIGP@?$AAe?$AAn?$AA?9?$AAi?$AAe@ 000000018004ef68     libucrt:lcidtoname_downlevel.obj
 0002:00008f78       ??_C@_1M@PJKFGCCO@?$AAe?$AAn?$AA?9?$AAj?$AAm@ 000000018004ef78     libucrt:lcidtoname_downlevel.obj
 0002:00008f88       ??_C@_1M@KPPKEPBO@?$AAe?$AAn?$AA?9?$AAn?$AAz@ 000000018004ef88     libucrt:lcidtoname_downlevel.obj
 0002:00008f98       ??_C@_1M@GMDGLDOB@?$AAe?$AAn?$AA?9?$AAp?$AAh@ 000000018004ef98     libucrt:lcidtoname_downlevel.obj
 0002:00008fa8       ??_C@_1M@ONGIBJNA@?$AAe?$AAn?$AA?9?$AAt?$AAt@ 000000018004efa8     libucrt:lcidtoname_downlevel.obj
 0002:00008fb8       ??_C@_1M@LLODPCMM@?$AAe?$AAn?$AA?9?$AAu?$AAs@ 000000018004efb8     libucrt:lcidtoname_downlevel.obj
 0002:00008fc8       ??_C@_1M@LAKFNPAN@?$AAe?$AAn?$AA?9?$AAz?$AAa@ 000000018004efc8     libucrt:lcidtoname_downlevel.obj
 0002:00008fd8       ??_C@_1M@MFNHNHEO@?$AAe?$AAn?$AA?9?$AAz?$AAw@ 000000018004efd8     libucrt:lcidtoname_downlevel.obj
 0002:00008fe8       ??_C@_1M@EJEINPHM@?$AAe?$AAs?$AA?9?$AAa?$AAr@ 000000018004efe8     libucrt:lcidtoname_downlevel.obj
 0002:00008ff8       ??_C@_1M@GNKPCCJA@?$AAe?$AAs?$AA?9?$AAb?$AAo@ 000000018004eff8     libucrt:lcidtoname_downlevel.obj
 0002:00009008       ??_C@_1M@LEEGFONL@?$AAe?$AAs?$AA?9?$AAc?$AAl@ 000000018004f008     libucrt:lcidtoname_downlevel.obj
 0002:00009018       ??_C@_1M@KGPDPBDF@?$AAe?$AAs?$AA?9?$AAc?$AAo@ 000000018004f018     libucrt:lcidtoname_downlevel.obj
 0002:00009028       ??_C@_1M@EIAHOHH@?$AAe?$AAs?$AA?9?$AAc?$AAr@ 000000018004f028     libucrt:lcidtoname_downlevel.obj
 0002:00009038       ??_C@_1M@LLPGMBIN@?$AAe?$AAs?$AA?9?$AAd?$AAo@ 000000018004f038     libucrt:lcidtoname_downlevel.obj
 0002:00009048       ??_C@_1M@DKHMKNJA@?$AAe?$AAs?$AA?9?$AAe?$AAc@ 000000018004f048     libucrt:lcidtoname_downlevel.obj
 0002:00009058       ??_C@_1M@GKGFPKAP@?$AAe?$AAs?$AA?9?$AAe?$AAs@ 000000018004f058     libucrt:lcidtoname_downlevel.obj
 0002:00009068       ??_C@_1M@LKHKGDLN@?$AAe?$AAs?$AA?9?$AAg?$AAt@ 000000018004f068     libucrt:lcidtoname_downlevel.obj
 0002:00009078       ??_C@_1M@HEIIGGJD@?$AAe?$AAs?$AA?9?$AAh?$AAn@ 000000018004f078     libucrt:lcidtoname_downlevel.obj
 0002:00009088       ??_C@_1M@FBDHPPGD@?$AAe?$AAs?$AA?9?$AAm?$AAx@ 000000018004f088     libucrt:lcidtoname_downlevel.obj
 0002:00009098       ??_C@_1M@DPAGLNDH@?$AAe?$AAs?$AA?9?$AAn?$AAi@ 000000018004f098     libucrt:lcidtoname_downlevel.obj
 0002:000090a8       ??_C@_1M@MDGOPGDD@?$AAe?$AAs?$AA?9?$AAp?$AAa@ 000000018004f0a8     libucrt:lcidtoname_downlevel.obj
 0002:000090b8       ??_C@_1M@EMAMGBGE@?$AAe?$AAs?$AA?9?$AAp?$AAe@ 000000018004f0b8     libucrt:lcidtoname_downlevel.obj
 0002:000090c8       ??_C@_1M@IBMCAOEC@?$AAe?$AAs?$AA?9?$AAp?$AAr@ 000000018004f0c8     libucrt:lcidtoname_downlevel.obj
 0002:000090d8       ??_C@_1M@FGMDIJED@?$AAe?$AAs?$AA?9?$AAp?$AAy@ 000000018004f0d8     libucrt:lcidtoname_downlevel.obj
 0002:000090e8       ??_C@_1M@IIDEOLLL@?$AAe?$AAs?$AA?9?$AAs?$AAv@ 000000018004f0e8     libucrt:lcidtoname_downlevel.obj
 0002:000090f8       ??_C@_1M@GAOBIPA@?$AAe?$AAs?$AA?9?$AAu?$AAy@ 000000018004f0f8     libucrt:lcidtoname_downlevel.obj
 0002:00009108       ??_C@_1M@JKFFICHJ@?$AAe?$AAs?$AA?9?$AAv?$AAe@ 000000018004f108     libucrt:lcidtoname_downlevel.obj
 0002:00009118       ??_C@_1M@PNMLOJDF@?$AAe?$AAt?$AA?9?$AAe?$AAe@ 000000018004f118     libucrt:lcidtoname_downlevel.obj
 0002:00009128       ??_C@_1M@GHHLIKEI@?$AAe?$AAu?$AA?9?$AAe?$AAs@ 000000018004f128     libucrt:lcidtoname_downlevel.obj
 0002:00009138       ??_C@_1M@PBNONODE@?$AAf?$AAa?$AA?9?$AAi?$AAr@ 000000018004f138     libucrt:lcidtoname_downlevel.obj
 0002:00009148       ??_C@_1M@JEEHPMIL@?$AAf?$AAi?$AA?9?$AAf?$AAi@ 000000018004f148     libucrt:lcidtoname_downlevel.obj
 0002:00009158       ??_C@_1M@LMDCNDBA@?$AAf?$AAo?$AA?9?$AAf?$AAo@ 000000018004f158     libucrt:lcidtoname_downlevel.obj
 0002:00009168       ??_C@_1M@JKEOHLDK@?$AAf?$AAr?$AA?9?$AAb?$AAe@ 000000018004f168     libucrt:lcidtoname_downlevel.obj
 0002:00009178       ??_C@_1M@NOHADPMI@?$AAf?$AAr?$AA?9?$AAc?$AAa@ 000000018004f178     libucrt:lcidtoname_downlevel.obj
 0002:00009188       ??_C@_1M@KDHIHAEC@?$AAf?$AAr?$AA?9?$AAc?$AAh@ 000000018004f188     libucrt:lcidtoname_downlevel.obj
 0002:00009198       ??_C@_1M@MMBBFGAK@?$AAf?$AAr?$AA?9?$AAf?$AAr@ 000000018004f198     libucrt:lcidtoname_downlevel.obj
 0002:000091a8       ??_C@_1M@PAFNENNF@?$AAf?$AAr?$AA?9?$AAl?$AAu@ 000000018004f1a8     libucrt:lcidtoname_downlevel.obj
 0002:000091b8       ??_C@_1M@EOHDJGDD@?$AAf?$AAr?$AA?9?$AAm?$AAc@ 000000018004f1b8     libucrt:lcidtoname_downlevel.obj
 0002:000091c8       ??_C@_1M@FAPLLOPF@?$AAg?$AAl?$AA?9?$AAe?$AAs@ 000000018004f1c8     libucrt:lcidtoname_downlevel.obj
 0002:000091d8       ??_C@_1M@FOPBFLOO@?$AAg?$AAu?$AA?9?$AAi?$AAn@ 000000018004f1d8     libucrt:lcidtoname_downlevel.obj
 0002:000091e8       ??_C@_1M@KBMCINPM@?$AAh?$AAe?$AA?9?$AAi?$AAl@ 000000018004f1e8     libucrt:lcidtoname_downlevel.obj
 0002:000091f8       ??_C@_1M@BBPHKFPJ@?$AAh?$AAi?$AA?9?$AAi?$AAn@ 000000018004f1f8     libucrt:lcidtoname_downlevel.obj
 0002:00009208       ??_C@_1M@PMBNDPHD@?$AAh?$AAr?$AA?9?$AAb?$AAa@ 000000018004f208     libucrt:lcidtoname_downlevel.obj
 0002:00009218       ??_C@_1M@BPCKOEGE@?$AAh?$AAr?$AA?9?$AAh?$AAr@ 000000018004f218     libucrt:lcidtoname_downlevel.obj
 0002:00009228       ??_C@_1M@GACBMHKE@?$AAh?$AAu?$AA?9?$AAh?$AAu@ 000000018004f228     libucrt:lcidtoname_downlevel.obj
 0002:00009238       ??_C@_1M@MILPAJJC@?$AAh?$AAy?$AA?9?$AAa?$AAm@ 000000018004f238     libucrt:lcidtoname_downlevel.obj
 0002:00009248       ??_C@_1M@BABBICEC@?$AAi?$AAd?$AA?9?$AAi?$AAd@ 000000018004f248     libucrt:lcidtoname_downlevel.obj
 0002:00009258       ??_C@_1M@BIKNHHPF@?$AAi?$AAs?$AA?9?$AAi?$AAs@ 000000018004f258     libucrt:lcidtoname_downlevel.obj
 0002:00009268       ??_C@_1M@NMPCJPHE@?$AAi?$AAt?$AA?9?$AAc?$AAh@ 000000018004f268     libucrt:lcidtoname_downlevel.obj
 0002:00009278       ??_C@_1M@GHKGFEDF@?$AAi?$AAt?$AA?9?$AAi?$AAt@ 000000018004f278     libucrt:lcidtoname_downlevel.obj
 0002:00009288       ??_C@_1M@NIEJCJJA@?$AAj?$AAa?$AA?9?$AAj?$AAp@ 000000018004f288     libucrt:lcidtoname_downlevel.obj
 0002:00009298       ??_C@_1M@JILFNBIM@?$AAk?$AAa?$AA?9?$AAg?$AAe@ 000000018004f298     libucrt:lcidtoname_downlevel.obj
 0002:000092a8       ??_C@_1M@PACPMGPH@?$AAk?$AAk?$AA?9?$AAk?$AAz@ 000000018004f2a8     libucrt:lcidtoname_downlevel.obj
 0002:000092b8       ??_C@_1M@IELFGMHA@?$AAk?$AAn?$AA?9?$AAi?$AAn@ 000000018004f2b8     libucrt:lcidtoname_downlevel.obj
 0002:000092c8       ??_C@_1O@IBBJHCH@?$AAk?$AAo?$AAk?$AA?9?$AAi?$AAn@ 000000018004f2c8     libucrt:lcidtoname_downlevel.obj
 0002:000092d8       ??_C@_1M@DMHAEOGC@?$AAk?$AAo?$AA?9?$AAk?$AAr@ 000000018004f2d8     libucrt:lcidtoname_downlevel.obj
 0002:000092e8       ??_C@_1M@HBAHBIGA@?$AAk?$AAy?$AA?9?$AAk?$AAg@ 000000018004f2e8     libucrt:lcidtoname_downlevel.obj
 0002:000092f8       ??_C@_1M@KPMILCJG@?$AAl?$AAt?$AA?9?$AAl?$AAt@ 000000018004f2f8     libucrt:lcidtoname_downlevel.obj
 0002:00009308       ??_C@_1M@BDEKKCA@?$AAl?$AAv?$AA?9?$AAl?$AAv@ 000000018004f308     libucrt:lcidtoname_downlevel.obj
 0002:00009318       ??_C@_1M@ELCKCCJJ@?$AAm?$AAi?$AA?9?$AAn?$AAz@ 000000018004f318     libucrt:lcidtoname_downlevel.obj
 0002:00009328       ??_C@_1M@CBOOLAPA@?$AAm?$AAk?$AA?9?$AAm?$AAk@ 000000018004f328     libucrt:lcidtoname_downlevel.obj
 0002:00009338       ??_C@_1M@GPHNBJKN@?$AAm?$AAl?$AA?9?$AAi?$AAn@ 000000018004f338     libucrt:lcidtoname_downlevel.obj
 0002:00009348       ??_C@_1M@PABJILIG@?$AAm?$AAn?$AA?9?$AAm?$AAn@ 000000018004f348     libucrt:lcidtoname_downlevel.obj
 0002:00009358       ??_C@_1M@FGBKKIPG@?$AAm?$AAr?$AA?9?$AAi?$AAn@ 000000018004f358     libucrt:lcidtoname_downlevel.obj
 0002:00009368       ??_C@_1M@NDBPDDAL@?$AAm?$AAs?$AA?9?$AAb?$AAn@ 000000018004f368     libucrt:lcidtoname_downlevel.obj
 0002:00009378       ??_C@_1M@OPIHOOPI@?$AAm?$AAs?$AA?9?$AAm?$AAy@ 000000018004f378     libucrt:lcidtoname_downlevel.obj
 0002:00009388       ??_C@_1M@PPDBCNFM@?$AAm?$AAt?$AA?9?$AAm?$AAt@ 000000018004f388     libucrt:lcidtoname_downlevel.obj
 0002:00009398       ??_C@_1M@KDJDKMDD@?$AAn?$AAb?$AA?9?$AAn?$AAo@ 000000018004f398     libucrt:lcidtoname_downlevel.obj
 0002:000093a8       ??_C@_1M@KFCFLMJP@?$AAn?$AAl?$AA?9?$AAb?$AAe@ 000000018004f3a8     libucrt:lcidtoname_downlevel.obj
 0002:000093b8       ??_C@_1M@KPOPDDGO@?$AAn?$AAl?$AA?9?$AAn?$AAl@ 000000018004f3b8     libucrt:lcidtoname_downlevel.obj
 0002:000093c8       ??_C@_1M@LJKPEMLN@?$AAn?$AAn?$AA?9?$AAn?$AAo@ 000000018004f3c8     libucrt:lcidtoname_downlevel.obj
 0002:000093d8       ??_C@_1M@BDGHHBFL@?$AAn?$AAs?$AA?9?$AAz?$AAa@ 000000018004f3d8     libucrt:lcidtoname_downlevel.obj
 0002:000093e8       ??_C@_1M@IDEHOAP@?$AAp?$AAa?$AA?9?$AAi?$AAn@ 000000018004f3e8     libucrt:lcidtoname_downlevel.obj
 0002:000093f8       ??_C@_1M@HDBKGOGH@?$AAp?$AAl?$AA?9?$AAp?$AAl@ 000000018004f3f8     libucrt:lcidtoname_downlevel.obj
 0002:00009408       ??_C@_1M@LJLLCMEH@?$AAp?$AAt?$AA?9?$AAb?$AAr@ 000000018004f408     libucrt:lcidtoname_downlevel.obj
 0002:00009418       ??_C@_1M@NCMONAAL@?$AAp?$AAt?$AA?9?$AAp?$AAt@ 000000018004f418     libucrt:lcidtoname_downlevel.obj
 0002:00009428       ??_C@_1O@EAKMAJDN@?$AAq?$AAu?$AAz?$AA?9?$AAb?$AAo@ 000000018004f428     libucrt:lcidtoname_downlevel.obj
 0002:00009438       ??_C@_1O@BHHPIGDN@?$AAq?$AAu?$AAz?$AA?9?$AAe?$AAc@ 000000018004f438     libucrt:lcidtoname_downlevel.obj
 0002:00009448       ??_C@_1O@GBAPEKMJ@?$AAq?$AAu?$AAz?$AA?9?$AAp?$AAe@ 000000018004f448     libucrt:lcidtoname_downlevel.obj
 0002:00009458       ??_C@_1M@CLGLEFBO@?$AAr?$AAo?$AA?9?$AAr?$AAo@ 000000018004f458     libucrt:lcidtoname_downlevel.obj
 0002:00009468       ??_C@_1M@CEEDODME@?$AAr?$AAu?$AA?9?$AAr?$AAu@ 000000018004f468     libucrt:lcidtoname_downlevel.obj
 0002:00009478       ??_C@_1M@HPKKKMPP@?$AAs?$AAa?$AA?9?$AAi?$AAn@ 000000018004f478     libucrt:lcidtoname_downlevel.obj
 0002:00009488       ??_C@_1M@BKMAIGOJ@?$AAs?$AAe?$AA?9?$AAf?$AAi@ 000000018004f488     libucrt:lcidtoname_downlevel.obj
 0002:00009498       ??_C@_1M@NDPIFLFI@?$AAs?$AAe?$AA?9?$AAn?$AAo@ 000000018004f498     libucrt:lcidtoname_downlevel.obj
 0002:000094a8       ??_C@_1M@DANKKHJ@?$AAs?$AAe?$AA?9?$AAs?$AAe@ 000000018004f4a8     libucrt:lcidtoname_downlevel.obj
 0002:000094b8       ??_C@_1M@PNBLONPJ@?$AAs?$AAk?$AA?9?$AAs?$AAk@ 000000018004f4b8     libucrt:lcidtoname_downlevel.obj
 0002:000094c8       ??_C@_1M@LFMODOAL@?$AAs?$AAl?$AA?9?$AAs?$AAi@ 000000018004f4c8     libucrt:lcidtoname_downlevel.obj
 0002:000094d8       ??_C@_1O@DFKOMPG@?$AAs?$AAm?$AAa?$AA?9?$AAn?$AAo@ 000000018004f4d8     libucrt:lcidtoname_downlevel.obj
 0002:000094e8       ??_C@_1O@NDKPBNNH@?$AAs?$AAm?$AAa?$AA?9?$AAs?$AAe@ 000000018004f4e8     libucrt:lcidtoname_downlevel.obj
 0002:000094f8       ??_C@_1O@PLLKBHAB@?$AAs?$AAm?$AAj?$AA?9?$AAn?$AAo@ 000000018004f4f8     libucrt:lcidtoname_downlevel.obj
 0002:00009508       ??_C@_1O@CLEPOGCA@?$AAs?$AAm?$AAj?$AA?9?$AAs?$AAe@ 000000018004f508     libucrt:lcidtoname_downlevel.obj
 0002:00009518       ??_C@_1O@DLGJGKMK@?$AAs?$AAm?$AAn?$AA?9?$AAf?$AAi@ 000000018004f518     libucrt:lcidtoname_downlevel.obj
 0002:00009528       ??_C@_1O@OJDJGAJC@?$AAs?$AAm?$AAs?$AA?9?$AAf?$AAi@ 000000018004f528     libucrt:lcidtoname_downlevel.obj
 0002:00009538       ??_C@_1M@BOFOGHPB@?$AAs?$AAq?$AA?9?$AAa?$AAl@ 000000018004f538     libucrt:lcidtoname_downlevel.obj
 0002:00009548       ??_C@_1BG@LJBBIPGB@?$AAs?$AAr?$AA?9?$AAb?$AAa?$AA?9?$AAc?$AAy?$AAr?$AAl@ 000000018004f548     libucrt:lcidtoname_downlevel.obj
 0002:00009560       ??_C@_1BG@JLBENFOE@?$AAs?$AAr?$AA?9?$AAb?$AAa?$AA?9?$AAl?$AAa?$AAt?$AAn@ 000000018004f560     libucrt:lcidtoname_downlevel.obj
 0002:00009578       ??_C@_1BG@KODPNHE@?$AAs?$AAr?$AA?9?$AAs?$AAp?$AA?9?$AAc?$AAy?$AAr?$AAl@ 000000018004f578     libucrt:lcidtoname_downlevel.obj
 0002:00009590       ??_C@_1BG@CIOGKHPB@?$AAs?$AAr?$AA?9?$AAs?$AAp?$AA?9?$AAl?$AAa?$AAt?$AAn@ 000000018004f590     libucrt:lcidtoname_downlevel.obj
 0002:000095a8       ??_C@_1M@NGFJLMAC@?$AAs?$AAv?$AA?9?$AAf?$AAi@ 000000018004f5a8     libucrt:lcidtoname_downlevel.obj
 0002:000095b8       ??_C@_1M@MPJEJAJC@?$AAs?$AAv?$AA?9?$AAs?$AAe@ 000000018004f5b8     libucrt:lcidtoname_downlevel.obj
 0002:000095c8       ??_C@_1M@MPNDHLFK@?$AAs?$AAw?$AA?9?$AAk?$AAe@ 000000018004f5c8     libucrt:lcidtoname_downlevel.obj
 0002:000095d8       ??_C@_1O@KOHBJJI@?$AAs?$AAy?$AAr?$AA?9?$AAs?$AAy@ 000000018004f5d8     libucrt:lcidtoname_downlevel.obj
 0002:000095e8       ??_C@_1M@LDCEFHA@?$AAt?$AAa?$AA?9?$AAi?$AAn@ 000000018004f5e8     libucrt:lcidtoname_downlevel.obj
 0002:000095f8       ??_C@_1M@CNJOFAK@?$AAt?$AAe?$AA?9?$AAi?$AAn@ 000000018004f5f8     libucrt:lcidtoname_downlevel.obj
 0002:00009608       ??_C@_1M@GNAECACD@?$AAt?$AAh?$AA?9?$AAt?$AAh@ 000000018004f608     libucrt:lcidtoname_downlevel.obj
 0002:00009618       ??_C@_1M@CHBIHOJO@?$AAt?$AAn?$AA?9?$AAz?$AAa@ 000000018004f618     libucrt:lcidtoname_downlevel.obj
 0002:00009628       ??_C@_1M@GCCMIGPJ@?$AAt?$AAr?$AA?9?$AAt?$AAr@ 000000018004f628     libucrt:lcidtoname_downlevel.obj
 0002:00009638       ??_C@_1M@CELMCNBK@?$AAt?$AAt?$AA?9?$AAr?$AAu@ 000000018004f638     libucrt:lcidtoname_downlevel.obj
 0002:00009648       ??_C@_1M@KLMCELGA@?$AAu?$AAk?$AA?9?$AAu?$AAa@ 000000018004f648     libucrt:lcidtoname_downlevel.obj
 0002:00009658       ??_C@_1M@EPAJJAJF@?$AAu?$AAr?$AA?9?$AAp?$AAk@ 000000018004f658     libucrt:lcidtoname_downlevel.obj
 0002:00009668       ??_C@_1BG@GEGPMCDJ@?$AAu?$AAz?$AA?9?$AAu?$AAz?$AA?9?$AAc?$AAy?$AAr?$AAl@ 000000018004f668     libucrt:lcidtoname_downlevel.obj
 0002:00009680       ??_C@_1BG@EGGKJILM@?$AAu?$AAz?$AA?9?$AAu?$AAz?$AA?9?$AAl?$AAa?$AAt?$AAn@ 000000018004f680     libucrt:lcidtoname_downlevel.obj
 0002:00009698       ??_C@_1M@GFOCLFF@?$AAv?$AAi?$AA?9?$AAv?$AAn@ 000000018004f698     libucrt:lcidtoname_downlevel.obj
 0002:000096a8       ??_C@_1M@CPAMEDFI@?$AAx?$AAh?$AA?9?$AAz?$AAa@ 000000018004f6a8     libucrt:lcidtoname_downlevel.obj
 0002:000096b8       ??_C@_1O@EBKIFIGN@?$AAz?$AAh?$AA?9?$AAc?$AAh?$AAs@ 000000018004f6b8     libucrt:lcidtoname_downlevel.obj
 0002:000096c8       ??_C@_1O@NMHPGANE@?$AAz?$AAh?$AA?9?$AAc?$AAh?$AAt@ 000000018004f6c8     libucrt:lcidtoname_downlevel.obj
 0002:000096d8       ??_C@_1M@LPINJOMC@?$AAz?$AAh?$AA?9?$AAc?$AAn@ 000000018004f6d8     libucrt:lcidtoname_downlevel.obj
 0002:000096e8       ??_C@_1M@OCJEJODD@?$AAz?$AAh?$AA?9?$AAh?$AAk@ 000000018004f6e8     libucrt:lcidtoname_downlevel.obj
 0002:000096f8       ??_C@_1M@DNDLJINH@?$AAz?$AAh?$AA?9?$AAm?$AAo@ 000000018004f6f8     libucrt:lcidtoname_downlevel.obj
 0002:00009708       ??_C@_1M@MBFDNDND@?$AAz?$AAh?$AA?9?$AAs?$AAg@ 000000018004f708     libucrt:lcidtoname_downlevel.obj
 0002:00009718       ??_C@_1M@IMEPLEPE@?$AAz?$AAh?$AA?9?$AAt?$AAw@ 000000018004f718     libucrt:lcidtoname_downlevel.obj
 0002:00009728       ??_C@_1M@BBGHNHJP@?$AAz?$AAu?$AA?9?$AAz?$AAa@ 000000018004f728     libucrt:lcidtoname_downlevel.obj
 0002:00009740       ?large_power_data@?1??multiply_by_power_of_ten@__crt_strtox@@YA_NAEAUbig_integer@2@I@Z@4QBIB 000000018004f740     libucrt:cfout.obj
 0002:0000a050       ?large_power_indices@?1??multiply_by_power_of_ten@__crt_strtox@@YA_NAEAUbig_integer@2@I@Z@4QBUunpack_index@?1??12@YA_N0I@Z@B 0000000180050050     libucrt:cfout.obj
 0002:0000a0e8       ?small_powers_of_ten@?1??multiply_by_power_of_ten@__crt_strtox@@YA_NAEAUbig_integer@2@I@Z@4QBIB 00000001800500e8     libucrt:cfout.obj
 0002:0000a10c       ??_C@_01GBGANLPD@0@        000000018005010c     libucrt:cfout.obj
 0002:0000a110       ??_C@_05DNEBIAHO@1?$CDINF@ 0000000180050110     libucrt:cfout.obj
 0002:0000a118       ??_C@_06IMKFLFPG@1?$CDQNAN@ 0000000180050118     libucrt:cfout.obj
 0002:0000a120       ??_C@_06PGGFOGJG@1?$CDSNAN@ 0000000180050120     libucrt:cfout.obj
 0002:0000a128       ??_C@_05PHHOCPM@1?$CDIND@  0000000180050128     libucrt:cfout.obj
 0002:0000a380       ??_C@_1BA@BALFACEM@?$AAC?$AAO?$AAN?$AAO?$AAU?$AAT?$AA$@ 0000000180050380     libucrt:initcon.obj
 0002:0000a390       __log10_256_lead           0000000180050390     libucrt:log10_256_lead_tail_table.obj
 0002:0000aba0       __log10_256_tail           0000000180050ba0     libucrt:log10_256_lead_tail_table.obj
 0002:0000b3b0       __log_F_inv_qword          00000001800513b0     libucrt:log_f_inv_qword_table.obj
 0002:0000bc80       ??_R4type_info@@6B@        0000000180051c80     LIBCMT:std_type_info_static.obj
 0002:0000bca8       ??_R3type_info@@8          0000000180051ca8     LIBCMT:std_type_info_static.obj
 0002:0000bcc0       ??_R2type_info@@8          0000000180051cc0     LIBCMT:std_type_info_static.obj
 0002:0000bcd0       ??_R1A@?0A@EA@type_info@@8 0000000180051cd0     LIBCMT:std_type_info_static.obj
 0002:0000bcf8       ??_R3DNameNode@@8          0000000180051cf8     libvcruntime:undname.obj
 0002:0000bd10       ??_R2DNameNode@@8          0000000180051d10     libvcruntime:undname.obj
 0002:0000bd20       ??_R1A@?0A@EA@DNameNode@@8 0000000180051d20     libvcruntime:undname.obj
 0002:0000bd48       ??_R4charNode@@6B@         0000000180051d48     libvcruntime:undname.obj
 0002:0000bd70       ??_R3charNode@@8           0000000180051d70     libvcruntime:undname.obj
 0002:0000bd88       ??_R2charNode@@8           0000000180051d88     libvcruntime:undname.obj
 0002:0000bda0       ??_R1A@?0A@EA@charNode@@8  0000000180051da0     libvcruntime:undname.obj
 0002:0000bdc8       ??_R4pcharNode@@6B@        0000000180051dc8     libvcruntime:undname.obj
 0002:0000bdf0       ??_R3pcharNode@@8          0000000180051df0     libvcruntime:undname.obj
 0002:0000be08       ??_R2pcharNode@@8          0000000180051e08     libvcruntime:undname.obj
 0002:0000be20       ??_R1A@?0A@EA@pcharNode@@8 0000000180051e20     libvcruntime:undname.obj
 0002:0000be48       ??_R4pDNameNode@@6B@       0000000180051e48     libvcruntime:undname.obj
 0002:0000be70       ??_R3pDNameNode@@8         0000000180051e70     libvcruntime:undname.obj
 0002:0000be88       ??_R2pDNameNode@@8         0000000180051e88     libvcruntime:undname.obj
 0002:0000bea0       ??_R1A@?0A@EA@pDNameNode@@8 0000000180051ea0     libvcruntime:undname.obj
 0002:0000bec8       ??_R4DNameStatusNode@@6B@  0000000180051ec8     libvcruntime:undname.obj
 0002:0000bef0       ??_R3DNameStatusNode@@8    0000000180051ef0     libvcruntime:undname.obj
 0002:0000bf08       ??_R2DNameStatusNode@@8    0000000180051f08     libvcruntime:undname.obj
 0002:0000bf20       ??_R1A@?0A@EA@DNameStatusNode@@8 0000000180051f20     libvcruntime:undname.obj
 0002:0000bf48       ??_R4pairNode@@6B@         0000000180051f48     libvcruntime:undname.obj
 0002:0000bf70       ??_R3pairNode@@8           0000000180051f70     libvcruntime:undname.obj
 0002:0000bf88       ??_R2pairNode@@8           0000000180051f88     libvcruntime:undname.obj
 0002:0000bfa0       ??_R1A@?0A@EA@pairNode@@8  0000000180051fa0     libvcruntime:undname.obj
 0002:0000bfc8       ??_R4exception@std@@6B@    0000000180051fc8     libvcruntime:frame.obj
 0002:0000bff0       ??_R3exception@std@@8      0000000180051ff0     libvcruntime:frame.obj
 0002:0000c008       ??_R2exception@std@@8      0000000180052008     libvcruntime:frame.obj
 0002:0000c018       ??_R1A@?0A@EA@exception@std@@8 0000000180052018     libvcruntime:frame.obj
 0002:0000c040       ??_R4bad_exception@std@@6B@ 0000000180052040     libvcruntime:frame.obj
 0002:0000c068       ??_R3bad_exception@std@@8  0000000180052068     libvcruntime:frame.obj
 0002:0000c080       ??_R2bad_exception@std@@8  0000000180052080     libvcruntime:frame.obj
 0002:0000c098       ??_R1A@?0A@EA@bad_exception@std@@8 0000000180052098     libvcruntime:frame.obj
 0002:0000c0bc       __volatile_metadata        00000001800520bc     <linker-defined>
 0002:0000c510       __rtc_iaa                  0000000180052510     LIBCMT:initsect.obj
 0002:0000c518       __rtc_izz                  0000000180052518     LIBCMT:initsect.obj
 0002:0000c520       __rtc_taa                  0000000180052520     LIBCMT:initsect.obj
 0002:0000c528       __rtc_tzz                  0000000180052528     LIBCMT:initsect.obj
 0002:00010320       _TI2?AVbad_exception@std@@ 0000000180056320     libvcruntime:frame.obj
 0002:00010340       _CTA2?AVbad_exception@std@@ 0000000180056340     libvcruntime:frame.obj
 0002:00010358       _CT??_R0?AVbad_exception@std@@@8??0bad_exception@std@@QEAA@AEBV01@@Z24 0000000180056358     libvcruntime:frame.obj
 0002:00010380       _CT??_R0?AVexception@std@@@8??0exception@std@@QEAA@AEBV01@@Z24 0000000180056380     libvcruntime:frame.obj
 0002:000103a4       __DELAY_IMPORT_DESCRIPTOR_physxcommon_64_dll 00000001800563a4     PhysXCommon_64:PhysXCommon_64.dll
 0002:000103c4       __DELAY_IMPORT_DESCRIPTOR_physxfoundation_64_dll 00000001800563c4     PhysXFoundation_64:PhysXFoundation_64.dll
 0002:000103e4       __NULL_DELAY_IMPORT_DESCRIPTOR 00000001800563e4     PhysXCommon_64:PhysXCommon_64.dll
 0002:00010528       \177PhysXCommon_64_NULL_THUNK_DATA_DLN 0000000180056528     PhysXCommon_64:PhysXCommon_64.dll
 0002:00010588       \177PhysXFoundation_64_NULL_THUNK_DATA_DLN 0000000180056588     PhysXFoundation_64:PhysXFoundation_64.dll
 0002:00010ee8       \177PhysXCommon_64_NULL_THUNK_DATA_DLB 0000000180056ee8     PhysXCommon_64:PhysXCommon_64.dll
 0002:00011010       \177PhysXFoundation_64_NULL_THUNK_DATA_DLB 0000000180057010     PhysXFoundation_64:PhysXFoundation_64.dll
 0002:00012d70       __IMPORT_DESCRIPTOR_KERNEL32 0000000180058d70     kernel32:KERNEL32.dll
 0002:00012d84       __NULL_IMPORT_DESCRIPTOR   0000000180058d84     kernel32:KERNEL32.dll
 0003:00000008       __pfnDliNotifyHook2        000000018005a008     WindowsCookingDelayLoadHook.obj
 0003:00000010       _fltused                   000000018005a010     LIBCMT:fltused.obj
 0003:00000020       __isa_available            000000018005a020     LIBCMT:cpu_disp.obj
 0003:00000024       __isa_enabled              000000018005a024     LIBCMT:cpu_disp.obj
 0003:00000028       __memcpy_nt_iters          000000018005a028     LIBCMT:cpu_disp.obj
 0003:00000030       __memset_nt_iters          000000018005a030     LIBCMT:cpu_disp.obj
 0003:00000040       __scrt_native_dllmain_reason 000000018005a040     LIBCMT:utility.obj
 0003:00000048       __security_cookie_complement 000000018005a048     LIBCMT:gs_cookie.obj
 0003:00000050       __security_cookie          000000018005a050     LIBCMT:gs_cookie.obj
 0003:00000080       __abort_behavior           000000018005a080     libucrt:abort.obj
 0003:000000b0       __acrt_initial_multibyte_data 000000018005a0b0     libucrt:mbctype.obj
 0003:000005f0       __acrt_initial_locale_data 000000018005a5f0     libucrt:nlsdata.obj
 0003:00000748       __acrt_initial_locale_pointers 000000018005a748     libucrt:nlsdata.obj
 0003:00000758       __acrt_wide_c_locale_string 000000018005a758     libucrt:nlsdata.obj
 0003:00000760       _iob                       000000018005a760     libucrt:_file.obj
 0003:00000870       __globallocalestatus       000000018005a870     libucrt:glstatus.obj
 0003:00000880       __acrt_lconv_c             000000018005a880     libucrt:localeconv.obj
 0003:00000918       __acrt_lconv_static_decimal 000000018005a918     libucrt:localeconv.obj
 0003:0000091c       __acrt_lconv_static_W_decimal 000000018005a91c     libucrt:localeconv.obj
 0003:00000920       _lookuptrailbytes          000000018005a920     libucrt:read.obj
 0003:00000a30       ??_R0?AVAdjEdge@@@8        000000018005aa30     Adjacencies.obj
 0003:00000a50       ??_R0I@8                   000000018005aa50     Adjacencies.obj
 0003:00000a68       ??_R0?AVAdjTriangle@physx@@@8 000000018005aa68     Adjacencies.obj
 0003:00000a90       ??_R0?AVCooking@physx@@@8  000000018005aa90     Cooking.obj
 0003:00000ab8       ??_R0?AVHeightField@Gu@physx@@@8 000000018005aab8     Cooking.obj
 0003:00000ae8       ??_R0?AVQuickHullConvexHullLib@physx@@@8 000000018005aae8     Cooking.obj
 0003:00000b20       ??_R0?AUPxDebugLine@physx@@@8 000000018005ab20     Cooking.obj
 0003:00000b48       ??_R0M@8                   000000018005ab48     CookingUtils.obj
 0003:00000b60       ??_R0?AUEdgeData@Gu@physx@@@8 000000018005ab60     EdgeList.obj
 0003:00000b88       ??_R0?AUEdgeTriangleData@Gu@physx@@@8 000000018005ab88     EdgeList.obj
 0003:00000bb8       ??_R0?AVQuantizerImpl@@@8  000000018005abb8     Quantizer.obj
 0003:00000be0       ??_R0?AVPxVec3@physx@@@8   000000018005abe0     Quantizer.obj
 0003:00000c08       ??_R0?AUSlab@NodeAllocator@Gu@physx@@@8 000000018005ac08     BVHStructureBuilder.obj
 0003:00000c40       ??_R0?AUInterval@physx@@@8 000000018005ac40     RTreeCooking.obj
 0003:00000c68       ??_R0?AURTreeNodeQ@Gu@physx@@@8 000000018005ac68     RTreeCooking.obj
 0003:00000c98       ??_R0?AURTreeNodeNQ@physx@@@8 000000018005ac98     RTreeCooking.obj
 0003:00000cc0       ??_R0?AUPxBounds3V@physx@@@8 000000018005acc0     RTreeCooking.obj
 0003:00000ce8       ??_R0?AVEdgeListBuilder@Gu@physx@@@8 000000018005ace8     TriangleMeshBuilder.obj
 0003:00000d18       ??_R0?AVBV32Tree@Gu@physx@@@8 000000018005ad18     TriangleMeshBuilder.obj
 0003:00000d40       ??_R0E@8                   000000018005ad40     TriangleMeshBuilder.obj
 0003:00000d58       ??_R0G@8                   000000018005ad58     TriangleMeshBuilder.obj
 0003:00000d70       ??_R0?AUEdgeTriLookup@physx@@@8 000000018005ad70     TriangleMeshBuilder.obj
 0003:00000da0       ??_R0?AUEdgeDescData@Gu@physx@@@8 000000018005ada0     ConvexHullBuilder.obj
 0003:00000dd0       ??_R0_N@8                  000000018005add0     ConvexHullBuilder.obj
 0003:00000de8       ??_R0?AVConvexHull@physx@@@8 000000018005ade8     ConvexHullUtils.obj
 0003:00000e10       ??_R0?AVPxPlane@physx@@@8  000000018005ae10     ConvexHullUtils.obj
 0003:00000e38       ??_R0?AVHalfEdge@ConvexHull@physx@@@8 000000018005ae38     ConvexHullUtils.obj
 0003:00000e68       ??_R0?AVBigConvexData@physx@@@8 000000018005ae68     ConvexMeshBuilder.obj
 0003:00000e98       ??_R0?AUHullTriangleData@physx@@@8 000000018005ae98     ConvexPolygonsBuilder.obj
 0003:00000ec8       ??_R0?AVPair@@@8           000000018005aec8     ConvexPolygonsBuilder.obj
 0003:00000ee8       ??_R0?AVQuickHull@local@@@8 000000018005aee8     QuickHullConvexHullLib.obj
 0003:00000f10       ??_R0?AUExpandPoint@local@@@8 000000018005af10     QuickHullConvexHullLib.obj
 0003:00000f38       ??_R0PEAUQuickHullVertex@local@@@8 000000018005af38     QuickHullConvexHullLib.obj
 0003:00000f68       ??_R0PEAUQuickHullFace@local@@@8 000000018005af68     QuickHullConvexHullLib.obj
 0003:00000f98       ??_R0PEAUQuickHullHalfEdge@local@@@8 000000018005af98     QuickHullConvexHullLib.obj
 0003:00000fc8       ??_R0?AVbad_exception@std@@@8 000000018005afc8     libvcruntime:frame.obj
 0003:00000ff0       ??_R0?AVexception@std@@@8  000000018005aff0     libvcruntime:frame.obj
 0003:00001018       ??_R0?AVtype_info@@@8      000000018005b018     LIBCMT:std_type_info_static.obj
 0003:00001038       ??_R0?AVDNameNode@@@8      000000018005b038     libvcruntime:undname.obj
 0003:00001058       ??_R0?AVcharNode@@@8       000000018005b058     libvcruntime:undname.obj
 0003:00001078       ??_R0?AVpcharNode@@@8      000000018005b078     libvcruntime:undname.obj
 0003:00001098       ??_R0?AVpDNameNode@@@8     000000018005b098     libvcruntime:undname.obj
 0003:000010c0       ??_R0?AVDNameStatusNode@@@8 000000018005b0c0     libvcruntime:undname.obj
 0003:000010e8       ??_R0?AVpairNode@@@8       000000018005b0e8     libvcruntime:undname.obj
 0003:00001108       __imp_??0RadixSortBuffered@Cm@physx@@QEAA@XZ 000000018005b108     PhysXCommon_64:PhysXCommon_64.dll
 0003:00001110       __imp_??1BigConvexData@physx@@QEAA@XZ 000000018005b110     PhysXCommon_64:PhysXCommon_64.dll
 0003:00001118       __imp_??1RadixSortBuffered@Cm@physx@@UEAA@XZ 000000018005b118     PhysXCommon_64:PhysXCommon_64.dll
 0003:00001120       __imp_?Sort@RadixSortBuffered@Cm@physx@@QEAAAEAV123@PEBIIW4RadixHint@23@@Z 000000018005b120     PhysXCommon_64:PhysXCommon_64.dll
 0003:00001128       __imp_??0HeightField@Gu@physx@@QEAA@PEAVGuMeshFactory@2@@Z 000000018005b128     PhysXCommon_64:PhysXCommon_64.dll
 0003:00001130       __imp_?loadFromDesc@HeightField@Gu@physx@@QEAA_NAEBVPxHeightFieldDesc@3@@Z 000000018005b130     PhysXCommon_64:PhysXCommon_64.dll
 0003:00001138       __imp_?computeCellCoordinates@HeightField@Gu@physx@@QEBAIMMAEAM0@Z 000000018005b138     PhysXCommon_64:PhysXCommon_64.dll
 0003:00001140       __imp_?releaseMemory@HeightField@Gu@physx@@QEAAXXZ 000000018005b140     PhysXCommon_64:PhysXCommon_64.dll
 0003:00001148       __imp_??1HeightField@Gu@physx@@UEAA@XZ 000000018005b148     PhysXCommon_64:PhysXCommon_64.dll
 0003:00001150       __imp_??0NodeAllocator@Gu@physx@@QEAA@XZ 000000018005b150     PhysXCommon_64:PhysXCommon_64.dll
 0003:00001158       __imp_??1NodeAllocator@Gu@physx@@QEAA@XZ 000000018005b158     PhysXCommon_64:PhysXCommon_64.dll
 0003:00001160       __imp_?release@NodeAllocator@Gu@physx@@QEAAXXZ 000000018005b160     PhysXCommon_64:PhysXCommon_64.dll
 0003:00001168       __imp_?buildAABBTree@Gu@physx@@YA_NAEAVAABBTreeBuildParams@12@AEAVNodeAllocator@12@AEAUBuildStats@12@AEAPEAI@Z 000000018005b168     PhysXCommon_64:PhysXCommon_64.dll
 0003:00001170       __imp_?writeDword@physx@@YAXI_NAEAVPxOutputStream@1@@Z 000000018005b170     PhysXCommon_64:PhysXCommon_64.dll
 0003:00001178       __imp_?writeFloatBuffer@physx@@YAXPEBMI_NAEAVPxOutputStream@1@@Z 000000018005b178     PhysXCommon_64:PhysXCommon_64.dll
 0003:00001180       __imp_?writeHeader@physx@@YA_NCCCCI_NAEAVPxOutputStream@1@@Z 000000018005b180     PhysXCommon_64:PhysXCommon_64.dll
 0003:00001188       __imp_?writeWord@physx@@YAXG_NAEAVPxOutputStream@1@@Z 000000018005b188     PhysXCommon_64:PhysXCommon_64.dll
 0003:00001190       __imp_?writeFloat@physx@@YAXM_NAEAVPxOutputStream@1@@Z 000000018005b190     PhysXCommon_64:PhysXCommon_64.dll
 0003:00001198       __imp_?computeBoundsAroundVertices@Gu@physx@@YAXAEAVPxBounds3@2@IPEIBVPxVec3@2@@Z 000000018005b198     PhysXCommon_64:PhysXCommon_64.dll
 0003:000011a0       __imp_??0SourceMesh@Gu@physx@@QEAA@XZ 000000018005b1a0     PhysXCommon_64:PhysXCommon_64.dll
 0003:000011a8       __imp_??1SourceMesh@Gu@physx@@QEAA@XZ 000000018005b1a8     PhysXCommon_64:PhysXCommon_64.dll
 0003:000011b0       __imp_??0BV4Tree@Gu@physx@@QEAA@XZ 000000018005b1b0     PhysXCommon_64:PhysXCommon_64.dll
 0003:000011b8       __imp_??1BV4Tree@Gu@physx@@QEAA@XZ 000000018005b1b8     PhysXCommon_64:PhysXCommon_64.dll
 0003:000011c0       __imp_??0BV32Tree@Gu@physx@@QEAA@XZ 000000018005b1c0     PhysXCommon_64:PhysXCommon_64.dll
 0003:000011c8       __imp_??1BV32Tree@Gu@physx@@QEAA@XZ 000000018005b1c8     PhysXCommon_64:PhysXCommon_64.dll
 0003:000011d0       __imp_?writeWordBuffer@physx@@YAXPEBGI_NAEAVPxOutputStream@1@@Z 000000018005b1d0     PhysXCommon_64:PhysXCommon_64.dll
 0003:000011d8       __imp_?computeMaxIndex@physx@@YAIPEBII@Z 000000018005b1d8     PhysXCommon_64:PhysXCommon_64.dll
 0003:000011e0       __imp_?storeIndices@physx@@YAXIIPEBIAEAVPxOutputStream@1@_N@Z 000000018005b1e0     PhysXCommon_64:PhysXCommon_64.dll
 0003:000011e8       __imp_?BuildBV4Ex@Gu@physx@@YA_NAEAVBV4Tree@12@AEAVSourceMesh@12@MI@Z 000000018005b1e8     PhysXCommon_64:PhysXCommon_64.dll
 0003:000011f0       __imp_?BuildBV32Ex@Gu@physx@@YA_NAEAVBV32Tree@12@AEAVSourceMesh@12@MI@Z 000000018005b1f0     PhysXCommon_64:PhysXCommon_64.dll
 0003:000011f8       __imp_?computeMaxIndex@physx@@YAGPEBGI@Z 000000018005b1f8     PhysXCommon_64:PhysXCommon_64.dll
 0003:00001200       __imp_?WriteHeader@Gu@physx@@YA_NEEEEI_NAEAVPxOutputStream@2@@Z 000000018005b200     PhysXCommon_64:PhysXCommon_64.dll
 0003:00001208       __imp_?StoreIndices@Gu@physx@@YAXGIPEBGAEAVPxOutputStream@2@_N@Z 000000018005b208     PhysXCommon_64:PhysXCommon_64.dll
 0003:00001210       __imp_?CreateOffsets@BigConvexData@physx@@IEAAXXZ 000000018005b210     PhysXCommon_64:PhysXCommon_64.dll
 0003:00001218       __imp_?computeOBBPoints@Gu@physx@@YAXPEIAVPxVec3@2@AEBV32@1111@Z 000000018005b218     PhysXCommon_64:PhysXCommon_64.dll
 0003:00001220       __imp_??0BigConvexData@physx@@QEAA@XZ 000000018005b220     PhysXCommon_64:PhysXCommon_64.dll
 0003:00001228       \177PhysXCommon_64_NULL_THUNK_DATA_DLA 000000018005b228     PhysXCommon_64:PhysXCommon_64.dll
 0003:00001230       __imp_PxGetFoundation      000000018005b230     PhysXFoundation_64:PhysXFoundation_64.dll
 0003:00001238       __imp_?deallocate@TempAllocator@shdfnd@physx@@QEAAXPEAX@Z 000000018005b238     PhysXFoundation_64:PhysXFoundation_64.dll
 0003:00001240       __imp_?getAllocator@shdfnd@physx@@YAAEAVPxAllocatorCallback@2@XZ 000000018005b240     PhysXFoundation_64:PhysXFoundation_64.dll
 0003:00001248       __imp_?getInstance@Foundation@shdfnd@physx@@SAAEAV123@XZ 000000018005b248     PhysXFoundation_64:PhysXFoundation_64.dll
 0003:00001250       __imp_?error@Foundation@shdfnd@physx@@QEAAXW4Enum@PxErrorCode@3@PEBDH1ZZ 000000018005b250     PhysXFoundation_64:PhysXFoundation_64.dll
 0003:00001258       __imp_?incRefCount@Foundation@shdfnd@physx@@SAXXZ 000000018005b258     PhysXFoundation_64:PhysXFoundation_64.dll
 0003:00001260       __imp_?decRefCount@Foundation@shdfnd@physx@@SAXXZ 000000018005b260     PhysXFoundation_64:PhysXFoundation_64.dll
 0003:00001268       __imp_??0FPUGuard@shdfnd@physx@@QEAA@XZ 000000018005b268     PhysXFoundation_64:PhysXFoundation_64.dll
 0003:00001270       __imp_??1FPUGuard@shdfnd@physx@@QEAA@XZ 000000018005b270     PhysXFoundation_64:PhysXFoundation_64.dll
 0003:00001278       __imp_?allocate@TempAllocator@shdfnd@physx@@QEAAPEAX_KPEBDH@Z 000000018005b278     PhysXFoundation_64:PhysXFoundation_64.dll
 0003:00001280       __imp_?PxDiagonalize@physx@@YA?AVPxVec3@1@AEBVPxMat33@1@AEAVPxQuat@1@@Z 000000018005b280     PhysXFoundation_64:PhysXFoundation_64.dll
 0003:00001288       \177PhysXFoundation_64_NULL_THUNK_DATA_DLA 000000018005b288     PhysXFoundation_64:PhysXFoundation_64.dll
 0003:00001658       __hmod__PhysXCommon_64_dll 000000018005b658     PhysXCommon_64:PhysXCommon_64.dll
 0003:00001660       __hmod__PhysXFoundation_64_dll 000000018005b660     PhysXFoundation_64:PhysXFoundation_64.dll
 0003:00001668       ?DloadKernel32@@3PEAUHINSTANCE__@@EA 000000018005b668     Delayimp:delayhlp.obj
 0003:00001670       ?DloadAcquireSRWLockExclusive@@3P6AXPEA_K@ZEA 000000018005b670     Delayimp:delayhlp.obj
 0003:00001678       ?DloadReleaseSRWLockExclusive@@3P6AXPEA_K@ZEA 000000018005b678     Delayimp:delayhlp.obj
 0003:00001680       ?DloadSrwLock@@3_KA        000000018005b680     Delayimp:delayhlp.obj
 0003:00001688       ?DloadSectionLockCount@@3KA 000000018005b688     Delayimp:delayhlp.obj
 0003:0000168c       ?DloadSectionOldProtection@@3KA 000000018005b68c     Delayimp:delayhlp.obj
 0003:00001690       ?DloadSectionCommitPermanent@@3KA 000000018005b690     Delayimp:delayhlp.obj
 0003:000016a0       ?__type_info_root_node@@3U__type_info_node@@A 000000018005b6a0     LIBCMT:tncleanup.obj
 0003:000016b8       __castguard_check_failure_os_handled_fptr 000000018005b6b8     LIBCMT:guard_support.obj
 0003:000016c0       __favor                    000000018005b6c0     LIBCMT:cpu_disp.obj
 0003:000016c8       ?_OptionsStorage@?1??__local_stdio_printf_options@@9@4_KA 000000018005b6c8     LIBCMT:default_local_stdio_options.obj
 0003:000016d0       ?_OptionsStorage@?1??__local_stdio_scanf_options@@9@4_KA 000000018005b6d0     LIBCMT:default_local_stdio_options.obj
 0003:000016d8       __scrt_current_native_startup_state 000000018005b6d8     LIBCMT:utility.obj
 0003:000016e0       __scrt_native_startup_lock 000000018005b6e0     LIBCMT:utility.obj
 0003:00001720       __scrt_debugger_hook_flag  000000018005b720     LIBCMT:utility_desktop.obj
 0003:00001728       ?__WinRTOutOfMemoryExceptionCallback@@3P6APEAXXZEA 000000018005b728     libvcruntime:ehhelpers.obj
 0003:00001730       __pPurecall                000000018005b730     libvcruntime:purevirt_data.obj
 0003:00001738       ?pArgList@UnDecorator@@0PEAVReplicator@@EA 000000018005b738     libvcruntime:undname.obj
 0003:00001740       ?pZNameList@UnDecorator@@0PEAVReplicator@@EA 000000018005b740     libvcruntime:undname.obj
 0003:00001748       ?pTemplateArgList@UnDecorator@@0PEAVReplicator@@EA 000000018005b748     libvcruntime:undname.obj
 0003:00001750       ?gName@UnDecorator@@0PEBDEB 000000018005b750     libvcruntime:undname.obj
 0003:00001758       ?name@UnDecorator@@0PEBDEB 000000018005b758     libvcruntime:undname.obj
 0003:00001760       ?disableFlags@UnDecorator@@0KA 000000018005b760     libvcruntime:undname.obj
 0003:00001764       ?fExplicitTemplateParams@UnDecorator@@0_NA 000000018005b764     libvcruntime:undname.obj
 0003:00001765       ?fGetTemplateArgumentList@UnDecorator@@0_NA 000000018005b765     libvcruntime:undname.obj
 0003:00001768       ?m_pGetParameter@UnDecorator@@0P6APEADJ@ZEA 000000018005b768     libvcruntime:undname.obj
 0003:00001770       ?m_CHPENameOffset@UnDecorator@@0KA 000000018005b770     libvcruntime:undname.obj
 0003:00001774       ?m_recursionLevel@UnDecorator@@0KA 000000018005b774     libvcruntime:undname.obj
 0003:000018a0       ?c_exit_complete@?1???R<lambda_6e4b09c48022b2350581041d5f6b0c4c>@@QEBA@XZ@4_NA 000000018005b8a0     libucrt:exit.obj
 0003:000019b8       _environ_table             000000018005b9b8     libucrt:environment_initialization.obj
 0003:000019c0       _wenviron_table            000000018005b9c0     libucrt:environment_initialization.obj
 0003:000019c8       __dcrt_initial_wide_environment 000000018005b9c8     libucrt:environment_initialization.obj
 0003:000019d0       __dcrt_initial_narrow_environment 000000018005b9d0     libucrt:environment_initialization.obj
 0003:000019d8       __acrt_atexit_table        000000018005b9d8     libucrt:onexit.obj
 0003:000019f0       __acrt_at_quick_exit_table 000000018005b9f0     libucrt:onexit.obj
 0003:00001a08       __fma3_is_available        000000018005ba08     libucrt:fma3_available.obj
 0003:00001a0c       __use_fma3_lib             000000018005ba0c     libucrt:fma3_available.obj
 0003:00001c50       _mbctype                   000000018005bc50     libucrt:mbctype.obj
 0003:00001c58       _mbcasemap                 000000018005bc58     libucrt:mbctype.obj
 0003:00001c60       __acrt_current_multibyte_data 000000018005bc60     libucrt:mbctype.obj
 0003:00001c70       _pgmptr                    000000018005bc70     libucrt:argv_data.obj
 0003:00001c78       __argc                     000000018005bc78     libucrt:argv_data.obj
 0003:00001c80       __argv                     000000018005bc80     libucrt:argv_data.obj
 0003:00001c88       __wargv                    000000018005bc88     libucrt:argv_data.obj
 0003:00001c90       _acmdln                    000000018005bc90     libucrt:argv_data.obj
 0003:00001c98       _wcmdln                    000000018005bc98     libucrt:argv_data.obj
 0003:00001e50       __acrt_heap                000000018005be50     libucrt:heap_handle.obj
 0003:00001e60       __pioinfo                  000000018005be60     libucrt:ioinit.obj
 0003:00002260       _nhandle                   000000018005c260     libucrt:ioinit.obj
 0003:00002298       __acrt_current_locale_data 000000018005c298     libucrt:nlsdata.obj
 0003:000022a0       _nstream                   000000018005c2a0     libucrt:_file.obj
 0003:000022a8       __piob                     000000018005c2a8     libucrt:_file.obj
 0003:000022b0       __acrt_stdout_buffer       000000018005c2b0     libucrt:_sftbuf.obj
 0003:000022b8       __acrt_stderr_buffer       000000018005c2b8     libucrt:_sftbuf.obj
 0003:000022d0       __acrt_locale_changed_data 000000018005c2d0     libucrt:wsetlocale.obj
 0003:000022d8       __acrt_lconv_static_null   000000018005c2d8     libucrt:localeconv.obj
 0003:000022dc       __acrt_lconv_static_W_null 000000018005c2dc     libucrt:localeconv.obj
 0003:00002860       __scrt_ucrt_dll_is_in_use  000000018005c860     <common>
 0003:00002868       __dyn_tls_init_callback    000000018005c868     <common>
 0005:00000100       __common_ssin_reduction_data 0000000180061100     LIBCMT:svml_s_sin_data.obj
 0005:00000d00       __common_ssin_data         0000000180061d00     LIBCMT:svml_s_sin_data.obj

 entry point at        0001:00027880

 Static symbols

 0000:fff9a000       .debug$S                   0000000180000000     PhysXCooking_64.exp
 0000:fff9a000       .debug$S                   0000000180000000     kernel32:KERNEL32.dll
 0000:fff9a000       .debug$S                   0000000180000000     kernel32:KERNEL32.dll
 0000:fff9a000       .debug$S                   0000000180000000     kernel32:KERNEL32.dll
 0000:fff9a000       .debug$S                   0000000180000000     kernel32:KERNEL32.dll
 0000:fff9a000       .debug$S                   0000000180000000     kernel32:KERNEL32.dll
 0000:fff9a000       .debug$S                   0000000180000000     kernel32:KERNEL32.dll
 0000:fff9a000       .debug$S                   0000000180000000     kernel32:KERNEL32.dll
 0000:fff9a000       .debug$S                   0000000180000000     kernel32:KERNEL32.dll
 0000:fff9a000       .debug$S                   0000000180000000     kernel32:KERNEL32.dll
 0000:fff9a000       .debug$S                   0000000180000000     kernel32:KERNEL32.dll
 0000:fff9a000       .debug$S                   0000000180000000     kernel32:KERNEL32.dll
 0000:fff9a000       .debug$S                   0000000180000000     kernel32:KERNEL32.dll
 0000:fff9a000       .debug$S                   0000000180000000     kernel32:KERNEL32.dll
 0000:fff9a000       .debug$S                   0000000180000000     kernel32:KERNEL32.dll
 0000:fff9a000       .debug$S                   0000000180000000     kernel32:KERNEL32.dll
 0000:fff9a000       .debug$S                   0000000180000000     kernel32:KERNEL32.dll
 0000:fff9a000       .debug$S                   0000000180000000     kernel32:KERNEL32.dll
 0000:fff9a000       .debug$S                   0000000180000000     kernel32:KERNEL32.dll
 0000:fff9a000       .debug$S                   0000000180000000     kernel32:KERNEL32.dll
 0000:fff9a000       .debug$S                   0000000180000000     kernel32:KERNEL32.dll
 0000:fff9a000       .debug$S                   0000000180000000     kernel32:KERNEL32.dll
 0000:fff9a000       .debug$S                   0000000180000000     kernel32:KERNEL32.dll
 0000:fff9a000       .debug$S                   0000000180000000     kernel32:KERNEL32.dll
 0000:fff9a000       .debug$S                   0000000180000000     kernel32:KERNEL32.dll
 0000:fff9a000       .debug$S                   0000000180000000     kernel32:KERNEL32.dll
 0000:fff9a000       .debug$S                   0000000180000000     kernel32:KERNEL32.dll
 0000:fff9a000       .debug$S                   0000000180000000     kernel32:KERNEL32.dll
 0000:fff9a000       .debug$S                   0000000180000000     kernel32:KERNEL32.dll
 0000:fff9a000       .debug$S                   0000000180000000     kernel32:KERNEL32.dll
 0000:fff9a000       .debug$S                   0000000180000000     kernel32:KERNEL32.dll
 0000:fff9a000       .debug$S                   0000000180000000     kernel32:KERNEL32.dll
 0000:fff9a000       .debug$S                   0000000180000000     kernel32:KERNEL32.dll
 0000:fff9a000       .debug$S                   0000000180000000     kernel32:KERNEL32.dll
 0000:fff9a000       .debug$S                   0000000180000000     kernel32:KERNEL32.dll
 0000:fff9a000       .debug$S                   0000000180000000     kernel32:KERNEL32.dll
 0000:fff9a000       .debug$S                   0000000180000000     kernel32:KERNEL32.dll
 0000:fff9a000       .debug$S                   0000000180000000     kernel32:KERNEL32.dll
 0000:fff9a000       .debug$S                   0000000180000000     kernel32:KERNEL32.dll
 0000:fff9a000       .debug$S                   0000000180000000     kernel32:KERNEL32.dll
 0000:fff9a000       .debug$S                   0000000180000000     kernel32:KERNEL32.dll
 0000:fff9a000       .debug$S                   0000000180000000     kernel32:KERNEL32.dll
 0000:fff9a000       .debug$S                   0000000180000000     kernel32:KERNEL32.dll
 0000:fff9a000       .debug$S                   0000000180000000     kernel32:KERNEL32.dll
 0000:fff9a000       .debug$S                   0000000180000000     kernel32:KERNEL32.dll
 0000:fff9a000       .debug$S                   0000000180000000     kernel32:KERNEL32.dll
 0000:fff9a000       .debug$S                   0000000180000000     kernel32:KERNEL32.dll
 0000:fff9a000       .debug$S                   0000000180000000     kernel32:KERNEL32.dll
 0000:fff9a000       .debug$S                   0000000180000000     kernel32:KERNEL32.dll
 0000:fff9a000       .debug$S                   0000000180000000     kernel32:KERNEL32.dll
 0000:fff9a000       .debug$S                   0000000180000000     kernel32:KERNEL32.dll
 0000:fff9a000       .debug$S                   0000000180000000     kernel32:KERNEL32.dll
 0000:fff9a000       .debug$S                   0000000180000000     kernel32:KERNEL32.dll
 0000:fff9a000       .debug$S                   0000000180000000     kernel32:KERNEL32.dll
 0000:fff9a000       .debug$S                   0000000180000000     kernel32:KERNEL32.dll
 0000:fff9a000       .debug$S                   0000000180000000     kernel32:KERNEL32.dll
 0000:fff9a000       .debug$S                   0000000180000000     kernel32:KERNEL32.dll
 0000:fff9a000       .debug$S                   0000000180000000     kernel32:KERNEL32.dll
 0000:fff9a000       .debug$S                   0000000180000000     kernel32:KERNEL32.dll
 0000:fff9a000       .debug$S                   0000000180000000     kernel32:KERNEL32.dll
 0000:fff9a000       .debug$S                   0000000180000000     kernel32:KERNEL32.dll
 0000:fff9a000       .debug$S                   0000000180000000     kernel32:KERNEL32.dll
 0000:fff9a000       .debug$S                   0000000180000000     kernel32:KERNEL32.dll
 0000:fff9a000       .debug$S                   0000000180000000     kernel32:KERNEL32.dll
 0000:fff9a000       .debug$S                   0000000180000000     kernel32:KERNEL32.dll
 0000:fff9a000       .debug$S                   0000000180000000     kernel32:KERNEL32.dll
 0000:fff9a000       .debug$S                   0000000180000000     kernel32:KERNEL32.dll
 0000:fff9a000       .debug$S                   0000000180000000     kernel32:KERNEL32.dll
 0000:fff9a000       .debug$S                   0000000180000000     kernel32:KERNEL32.dll
 0000:fff9a000       .debug$S                   0000000180000000     kernel32:KERNEL32.dll
 0000:fff9a000       .debug$S                   0000000180000000     kernel32:KERNEL32.dll
 0000:fff9a000       .debug$S                   0000000180000000     kernel32:KERNEL32.dll
 0000:fff9a000       .debug$S                   0000000180000000     kernel32:KERNEL32.dll
 0000:fff9a000       .debug$S                   0000000180000000     kernel32:KERNEL32.dll
 0000:fff9a000       .debug$S                   0000000180000000     kernel32:KERNEL32.dll
 0000:fff9a000       .debug$S                   0000000180000000     kernel32:KERNEL32.dll
 0000:fff9a000       .debug$S                   0000000180000000     kernel32:KERNEL32.dll
 0000:fff9a000       .debug$S                   0000000180000000     kernel32:KERNEL32.dll
 0000:fff9a000       .debug$S                   0000000180000000     kernel32:KERNEL32.dll
 0000:fff9a000       .debug$S                   0000000180000000     kernel32:KERNEL32.dll
 0000:fff9a000       .debug$S                   0000000180000000     kernel32:KERNEL32.dll
 0000:fff9a000       .debug$S                   0000000180000000     kernel32:KERNEL32.dll
 0000:fff9a000       .debug$S                   0000000180000000     kernel32:KERNEL32.dll
 0000:fff9a000       .debug$S                   0000000180000000     kernel32:KERNEL32.dll
 0000:fff9a000       .debug$S                   0000000180000000     kernel32:KERNEL32.dll
 0000:fff9a000       .debug$S                   0000000180000000     kernel32:KERNEL32.dll
 0000:fff9a000       .debug$S                   0000000180000000     kernel32:KERNEL32.dll
 0000:fff9a000       .debug$S                   0000000180000000     kernel32:KERNEL32.dll
 0000:fff9a000       .debug$S                   0000000180000000     kernel32:KERNEL32.dll
 0000:fff9a000       .debug$S                   0000000180000000     kernel32:KERNEL32.dll
 0000:fff9a000       .debug$S                   0000000180000000     PhysXCommon_64:PhysXCommon_64.dll
 0000:fff9a000       .debug$S                   0000000180000000     PhysXCommon_64:PhysXCommon_64.dll
 0000:fff9a000       .debug$S                   0000000180000000     PhysXCommon_64:PhysXCommon_64.dll
 0000:fff9a000       .debug$S                   0000000180000000     PhysXCommon_64:PhysXCommon_64.dll
 0000:fff9a000       .debug$S                   0000000180000000     PhysXCommon_64:PhysXCommon_64.dll
 0000:fff9a000       .debug$S                   0000000180000000     PhysXCommon_64:PhysXCommon_64.dll
 0000:fff9a000       .debug$S                   0000000180000000     PhysXCommon_64:PhysXCommon_64.dll
 0000:fff9a000       .debug$S                   0000000180000000     PhysXCommon_64:PhysXCommon_64.dll
 0000:fff9a000       .debug$S                   0000000180000000     PhysXCommon_64:PhysXCommon_64.dll
 0000:fff9a000       .debug$S                   0000000180000000     PhysXCommon_64:PhysXCommon_64.dll
 0000:fff9a000       .debug$S                   0000000180000000     PhysXCommon_64:PhysXCommon_64.dll
 0000:fff9a000       .debug$S                   0000000180000000     PhysXCommon_64:PhysXCommon_64.dll
 0000:fff9a000       .debug$S                   0000000180000000     PhysXCommon_64:PhysXCommon_64.dll
 0000:fff9a000       .debug$S                   0000000180000000     PhysXCommon_64:PhysXCommon_64.dll
 0000:fff9a000       .debug$S                   0000000180000000     PhysXCommon_64:PhysXCommon_64.dll
 0000:fff9a000       .debug$S                   0000000180000000     PhysXCommon_64:PhysXCommon_64.dll
 0000:fff9a000       .debug$S                   0000000180000000     PhysXCommon_64:PhysXCommon_64.dll
 0000:fff9a000       .debug$S                   0000000180000000     PhysXCommon_64:PhysXCommon_64.dll
 0000:fff9a000       .debug$S                   0000000180000000     PhysXCommon_64:PhysXCommon_64.dll
 0000:fff9a000       .debug$S                   0000000180000000     PhysXCommon_64:PhysXCommon_64.dll
 0000:fff9a000       .debug$S                   0000000180000000     PhysXCommon_64:PhysXCommon_64.dll
 0000:fff9a000       .debug$S                   0000000180000000     PhysXCommon_64:PhysXCommon_64.dll
 0000:fff9a000       .debug$S                   0000000180000000     PhysXCommon_64:PhysXCommon_64.dll
 0000:fff9a000       .debug$S                   0000000180000000     PhysXCommon_64:PhysXCommon_64.dll
 0000:fff9a000       .debug$S                   0000000180000000     PhysXCommon_64:PhysXCommon_64.dll
 0000:fff9a000       .debug$S                   0000000180000000     PhysXCommon_64:PhysXCommon_64.dll
 0000:fff9a000       .debug$S                   0000000180000000     PhysXCommon_64:PhysXCommon_64.dll
 0000:fff9a000       .debug$S                   0000000180000000     PhysXCommon_64:PhysXCommon_64.dll
 0000:fff9a000       .debug$S                   0000000180000000     PhysXCommon_64:PhysXCommon_64.dll
 0000:fff9a000       .debug$S                   0000000180000000     PhysXCommon_64:PhysXCommon_64.dll
 0000:fff9a000       .debug$S                   0000000180000000     PhysXCommon_64:PhysXCommon_64.dll
 0000:fff9a000       .debug$S                   0000000180000000     PhysXCommon_64:PhysXCommon_64.dll
 0000:fff9a000       .debug$S                   0000000180000000     PhysXCommon_64:PhysXCommon_64.dll
 0000:fff9a000       .debug$S                   0000000180000000     PhysXCommon_64:PhysXCommon_64.dll
 0000:fff9a000       .debug$S                   0000000180000000     PhysXCommon_64:PhysXCommon_64.dll
 0000:fff9a000       .debug$S                   0000000180000000     PhysXCommon_64:PhysXCommon_64.dll
 0000:fff9a000       .debug$S                   0000000180000000     PhysXCommon_64:PhysXCommon_64.dll
 0000:fff9a000       .debug$S                   0000000180000000     PhysXCommon_64:PhysXCommon_64.dll
 0000:fff9a000       .debug$S                   0000000180000000     PhysXFoundation_64:PhysXFoundation_64.dll
 0000:fff9a000       .debug$S                   0000000180000000     PhysXFoundation_64:PhysXFoundation_64.dll
 0000:fff9a000       .debug$S                   0000000180000000     PhysXFoundation_64:PhysXFoundation_64.dll
 0000:fff9a000       .debug$S                   0000000180000000     PhysXFoundation_64:PhysXFoundation_64.dll
 0000:fff9a000       .debug$S                   0000000180000000     PhysXFoundation_64:PhysXFoundation_64.dll
 0000:fff9a000       .debug$S                   0000000180000000     PhysXFoundation_64:PhysXFoundation_64.dll
 0000:fff9a000       .debug$S                   0000000180000000     PhysXFoundation_64:PhysXFoundation_64.dll
 0000:fff9a000       .debug$S                   0000000180000000     PhysXFoundation_64:PhysXFoundation_64.dll
 0000:fff9a000       .debug$S                   0000000180000000     PhysXFoundation_64:PhysXFoundation_64.dll
 0000:fff9a000       .debug$S                   0000000180000000     PhysXFoundation_64:PhysXFoundation_64.dll
 0000:fff9a000       .debug$S                   0000000180000000     PhysXFoundation_64:PhysXFoundation_64.dll
 0001:00000000       ??__EmaxFError@_VecMathTests@aos@shdfnd@physx@@YAXXZ 0000000180001000 f   Cooking.obj
 0001:00000010       ??__EmaxV3Error@_VecMathTests@aos@shdfnd@physx@@YAXXZ 0000000180001010 f   Cooking.obj
 0001:00000020       ??__EmaxV4Error@_VecMathTests@aos@shdfnd@physx@@YAXXZ 0000000180001020 f   Cooking.obj
 0001:00000030       ??__EminFError@_VecMathTests@aos@shdfnd@physx@@YAXXZ 0000000180001030 f   Cooking.obj
 0001:00000040       ??__EminV3Error@_VecMathTests@aos@shdfnd@physx@@YAXXZ 0000000180001040 f   Cooking.obj
 0001:00000050       ??__EminV4Error@_VecMathTests@aos@shdfnd@physx@@YAXXZ 0000000180001050 f   Cooking.obj
 0001:00000060       ??__EmaxFError@_VecMathTests@aos@shdfnd@physx@@YAXXZ 0000000180001060 f   BVHStructureBuilder.obj
 0001:00000070       ??__EmaxV3Error@_VecMathTests@aos@shdfnd@physx@@YAXXZ 0000000180001070 f   BVHStructureBuilder.obj
 0001:00000080       ??__EmaxV4Error@_VecMathTests@aos@shdfnd@physx@@YAXXZ 0000000180001080 f   BVHStructureBuilder.obj
 0001:00000090       ??__EminFError@_VecMathTests@aos@shdfnd@physx@@YAXXZ 0000000180001090 f   BVHStructureBuilder.obj
 0001:000000a0       ??__EminV3Error@_VecMathTests@aos@shdfnd@physx@@YAXXZ 00000001800010a0 f   BVHStructureBuilder.obj
 0001:000000b0       ??__EminV4Error@_VecMathTests@aos@shdfnd@physx@@YAXXZ 00000001800010b0 f   BVHStructureBuilder.obj
 0001:000000c0       ??__EmaxFError@_VecMathTests@aos@shdfnd@physx@@YAXXZ 00000001800010c0 f   RTreeCooking.obj
 0001:000000d0       ??__EmaxV3Error@_VecMathTests@aos@shdfnd@physx@@YAXXZ 00000001800010d0 f   RTreeCooking.obj
 0001:000000e0       ??__EmaxV4Error@_VecMathTests@aos@shdfnd@physx@@YAXXZ 00000001800010e0 f   RTreeCooking.obj
 0001:000000f0       ??__EminFError@_VecMathTests@aos@shdfnd@physx@@YAXXZ 00000001800010f0 f   RTreeCooking.obj
 0001:00000100       ??__EminV3Error@_VecMathTests@aos@shdfnd@physx@@YAXXZ 0000000180001100 f   RTreeCooking.obj
 0001:00000110       ??__EminV4Error@_VecMathTests@aos@shdfnd@physx@@YAXXZ 0000000180001110 f   RTreeCooking.obj
 0001:00000120       ??__EmaxFError@_VecMathTests@aos@shdfnd@physx@@YAXXZ 0000000180001120 f   MeshBuilder.obj
 0001:00000130       ??__EmaxV3Error@_VecMathTests@aos@shdfnd@physx@@YAXXZ 0000000180001130 f   MeshBuilder.obj
 0001:00000140       ??__EmaxV4Error@_VecMathTests@aos@shdfnd@physx@@YAXXZ 0000000180001140 f   MeshBuilder.obj
 0001:00000150       ??__EminFError@_VecMathTests@aos@shdfnd@physx@@YAXXZ 0000000180001150 f   MeshBuilder.obj
 0001:00000160       ??__EminV3Error@_VecMathTests@aos@shdfnd@physx@@YAXXZ 0000000180001160 f   MeshBuilder.obj
 0001:00000170       ??__EminV4Error@_VecMathTests@aos@shdfnd@physx@@YAXXZ 0000000180001170 f   MeshBuilder.obj
 0001:00000180       ??__EmaxFError@_VecMathTests@aos@shdfnd@physx@@YAXXZ 0000000180001180 f   TriangleMeshBuilder.obj
 0001:00000190       ??__EmaxV3Error@_VecMathTests@aos@shdfnd@physx@@YAXXZ 0000000180001190 f   TriangleMeshBuilder.obj
 0001:000001a0       ??__EmaxV4Error@_VecMathTests@aos@shdfnd@physx@@YAXXZ 00000001800011a0 f   TriangleMeshBuilder.obj
 0001:000001b0       ??__EminFError@_VecMathTests@aos@shdfnd@physx@@YAXXZ 00000001800011b0 f   TriangleMeshBuilder.obj
 0001:000001c0       ??__EminV3Error@_VecMathTests@aos@shdfnd@physx@@YAXXZ 00000001800011c0 f   TriangleMeshBuilder.obj
 0001:000001d0       ??__EminV4Error@_VecMathTests@aos@shdfnd@physx@@YAXXZ 00000001800011d0 f   TriangleMeshBuilder.obj
 0001:000001e0       ??__EmaxFError@_VecMathTests@aos@shdfnd@physx@@YAXXZ 00000001800011e0 f   BigConvexDataBuilder.obj
 0001:000001f0       ??__EmaxV3Error@_VecMathTests@aos@shdfnd@physx@@YAXXZ 00000001800011f0 f   BigConvexDataBuilder.obj
 0001:00000200       ??__EmaxV4Error@_VecMathTests@aos@shdfnd@physx@@YAXXZ 0000000180001200 f   BigConvexDataBuilder.obj
 0001:00000210       ??__EminFError@_VecMathTests@aos@shdfnd@physx@@YAXXZ 0000000180001210 f   BigConvexDataBuilder.obj
 0001:00000220       ??__EminV3Error@_VecMathTests@aos@shdfnd@physx@@YAXXZ 0000000180001220 f   BigConvexDataBuilder.obj
 0001:00000230       ??__EminV4Error@_VecMathTests@aos@shdfnd@physx@@YAXXZ 0000000180001230 f   BigConvexDataBuilder.obj
 0001:00000240       ??__EmaxFError@_VecMathTests@aos@shdfnd@physx@@YAXXZ 0000000180001240 f   ConvexHullBuilder.obj
 0001:00000250       ??__EmaxV3Error@_VecMathTests@aos@shdfnd@physx@@YAXXZ 0000000180001250 f   ConvexHullBuilder.obj
 0001:00000260       ??__EmaxV4Error@_VecMathTests@aos@shdfnd@physx@@YAXXZ 0000000180001260 f   ConvexHullBuilder.obj
 0001:00000270       ??__EminFError@_VecMathTests@aos@shdfnd@physx@@YAXXZ 0000000180001270 f   ConvexHullBuilder.obj
 0001:00000280       ??__EminV3Error@_VecMathTests@aos@shdfnd@physx@@YAXXZ 0000000180001280 f   ConvexHullBuilder.obj
 0001:00000290       ??__EminV4Error@_VecMathTests@aos@shdfnd@physx@@YAXXZ 0000000180001290 f   ConvexHullBuilder.obj
 0001:000002a0       ??__EmaxFError@_VecMathTests@aos@shdfnd@physx@@YAXXZ 00000001800012a0 f   ConvexHullUtils.obj
 0001:000002b0       ??__EmaxV3Error@_VecMathTests@aos@shdfnd@physx@@YAXXZ 00000001800012b0 f   ConvexHullUtils.obj
 0001:000002c0       ??__EmaxV4Error@_VecMathTests@aos@shdfnd@physx@@YAXXZ 00000001800012c0 f   ConvexHullUtils.obj
 0001:000002d0       ??__EminFError@_VecMathTests@aos@shdfnd@physx@@YAXXZ 00000001800012d0 f   ConvexHullUtils.obj
 0001:000002e0       ??__EminV3Error@_VecMathTests@aos@shdfnd@physx@@YAXXZ 00000001800012e0 f   ConvexHullUtils.obj
 0001:000002f0       ??__EminV4Error@_VecMathTests@aos@shdfnd@physx@@YAXXZ 00000001800012f0 f   ConvexHullUtils.obj
 0001:00000300       ??__EmaxFError@_VecMathTests@aos@shdfnd@physx@@YAXXZ 0000000180001300 f   ConvexMeshBuilder.obj
 0001:00000310       ??__EmaxV3Error@_VecMathTests@aos@shdfnd@physx@@YAXXZ 0000000180001310 f   ConvexMeshBuilder.obj
 0001:00000320       ??__EmaxV4Error@_VecMathTests@aos@shdfnd@physx@@YAXXZ 0000000180001320 f   ConvexMeshBuilder.obj
 0001:00000330       ??__EminFError@_VecMathTests@aos@shdfnd@physx@@YAXXZ 0000000180001330 f   ConvexMeshBuilder.obj
 0001:00000340       ??__EminV3Error@_VecMathTests@aos@shdfnd@physx@@YAXXZ 0000000180001340 f   ConvexMeshBuilder.obj
 0001:00000350       ??__EminV4Error@_VecMathTests@aos@shdfnd@physx@@YAXXZ 0000000180001350 f   ConvexMeshBuilder.obj
 0001:00000360       ??__EmaxFError@_VecMathTests@aos@shdfnd@physx@@YAXXZ 0000000180001360 f   VolumeIntegration.obj
 0001:00000370       ??__EmaxV3Error@_VecMathTests@aos@shdfnd@physx@@YAXXZ 0000000180001370 f   VolumeIntegration.obj
 0001:00000380       ??__EmaxV4Error@_VecMathTests@aos@shdfnd@physx@@YAXXZ 0000000180001380 f   VolumeIntegration.obj
 0001:00000390       ??__EminFError@_VecMathTests@aos@shdfnd@physx@@YAXXZ 0000000180001390 f   VolumeIntegration.obj
 0001:000003a0       ??__EminV3Error@_VecMathTests@aos@shdfnd@physx@@YAXXZ 00000001800013a0 f   VolumeIntegration.obj
 0001:000003b0       ??__EminV4Error@_VecMathTests@aos@shdfnd@physx@@YAXXZ 00000001800013b0 f   VolumeIntegration.obj
 0001:00000640       ?CreateDatabase@@YA_NPEAVAdjTriangle@physx@@IPEBVAdjEdge@@AEBUADJACENCIESCREATE@2@@Z 0000000180001640 f   Adjacencies.obj
 0001:00000c50       ?UpdateLink@@YA_NIIIIPEAVAdjTriangle@physx@@AEBUADJACENCIESCREATE@2@@Z 0000000180001c50 f   Adjacencies.obj
 0001:00008ee0       ?buildFromBounds@physx@@YAXAEAURTree@Gu@1@PEBUPxBounds3V@1@IAEAV?$Array@IV?$ReflectionAllocator@I@shdfnd@physx@@@shdfnd@1@PEAURemapCallback@RTreeCooker@1@AEAT__m128@@4MW4Enum@PxMeshCookingHint@1@@Z 0000000180009ee0 f   RTreeCooking.obj
 0001:0000ce50       ?buildAdjacencies@physx@@YAXPEAUuint4@1@PEAVPxVec3@1@PEBV31@PEBUuint3@1@I@Z 000000018000de50 f   TriangleMeshBuilder.obj
 0001:0000e5d0       ?findAdjacent@physx@@YAIPEBVPxVec3@1@0PEBUuint3@1@IIIAEBVPxPlane@1@PEAUEdgeTriLookup@1@I@Z 000000018000f5d0 f   TriangleMeshBuilder.obj
 0001:000134d0       ?checkPointsAABBValidity@local@@YA_NIPEBVPxVec3@physx@@IMMAEAV23@1AEAIPEAV23@_N@Z 00000001800144d0 f   ConvexHullLib.obj
 0001:00018950       ?ComputeInternalExtent@@YAXAEAUConvexHullData@Gu@physx@@PEBUHullPolygonData@23@@Z 0000000180019950 f   ConvexMeshBuilder.obj
 0001:00019d50       ?CheckFloodFillFace@Local@?7??extractHullPolygons@@YA_NAEAIAEAV?$Array@IV?$ReflectionAllocator@I@shdfnd@physx@@@shdfnd@physx@@AEBVConvexPolygonsBuilder@5@PEAV345@1@Z@SA_NIPEBVAdjTriangle@5@PEBI@Z 000000018001ad50 f   ConvexPolygonsBuilder.obj
 0001:0001a340       ?FloodFill@Local@?7??extractHullPolygons@@YA_NAEAIAEAV?$Array@IV?$ReflectionAllocator@I@shdfnd@physx@@@shdfnd@physx@@AEBVConvexPolygonsBuilder@5@PEAV345@1@Z@SAX1PEBVAdjTriangle@5@IPEA_N@Z 000000018001b340 f   ConvexPolygonsBuilder.obj
 0001:0001a420       ?TestDuplicateTriangles@@YA_NAEAIPEAU?$TriangleT@I@Gu@physx@@_N@Z 000000018001b420 f   ConvexPolygonsBuilder.obj
 0001:0001a5f0       ?checkRedundantVertices@@YAXAEAIAEAV?$Array@IV?$ReflectionAllocator@I@shdfnd@physx@@@shdfnd@physx@@AEBVConvexPolygonsBuilder@3@11@Z 000000018001b5f0 f   ConvexPolygonsBuilder.obj
 0001:0001d310       ?extractHullPolygons@@YA_NAEAIAEAV?$Array@IV?$ReflectionAllocator@I@shdfnd@physx@@@shdfnd@physx@@AEBVConvexPolygonsBuilder@3@PEAV123@1@Z 000000018001e310 f   ConvexPolygonsBuilder.obj
 0001:0001dd80       ?findLineStrip@@YA_NAEAV?$Array@IV?$ReflectionAllocator@I@shdfnd@physx@@@shdfnd@physx@@AEBV?$Array@VPair@@V?$ReflectionAllocator@VPair@@@shdfnd@physx@@@23@@Z 000000018001ed80 f   ConvexPolygonsBuilder.obj
 0001:00025790       ?computeVolumeIntegrals@VolumeIntegratorEberly@?A0x1f64996d@physx@@QEAA_NAEAUPxIntegrals@3@AEBVPxVec3@3@@Z 0000000180026790 f   VolumeIntegration.obj
 0001:00026290       ?computeVolumeIntegralsSIMD@VolumeIntegratorEberly@?A0x1f64996d@physx@@QEAA_NAEAUPxIntegrals@3@AEBVPxVec3@3@@Z 0000000180027290 f   VolumeIntegration.obj
 0001:00026950       $LN24                      0000000180027950     WindowsCookingDelayLoadHook.obj
 0001:00027480       $$000000                   0000000180028480     LIBCMT:chkstk.obj
 0001:000274e0       ?<lambda_invoker_cdecl>@_Closure_wrapper_0fe033df_2@@CAXQEAX@Z 00000001800284e0 f   libvcruntime:std_type_info.obj
 0001:000274f0       $$000000                   00000001800284f0     LIBCMT:svml_ssinf4_dispatch.obj
 0001:00027560       ?dllmain_crt_dispatch@@YAHQEAUHINSTANCE__@@KQEAX@Z 0000000180028560 f   LIBCMT:dll_dllmain.obj
 0001:000275b0       ?dllmain_crt_process_attach@@YAHQEAUHINSTANCE__@@QEAX@Z 00000001800285b0 f   LIBCMT:dll_dllmain.obj
 0001:000276c8       ?dllmain_crt_process_detach@@YAH_N@Z 00000001800286c8 f   LIBCMT:dll_dllmain.obj
 0001:0002774c       ?dllmain_dispatch@@YAHQEAUHINSTANCE__@@KQEAX@Z 000000018002874c f   LIBCMT:dll_dllmain.obj
 0001:00027a70       $$000000                   0000000180028a70     LIBCMT:svml_ssinf4_sse2.obj
 0001:000283b0       $$000000                   00000001800293b0     LIBCMT:svml_ssinf4_sse4.obj
 0001:00029100       $$000000                   000000018002a100     LIBCMT:svml_s_sin_cout.obj
 0001:000291a4       ?<lambda_invoker_cdecl>@_Closure_wrapper_0fe033df_1@@CAPEAX_K@Z 000000018002a1a4 f   libvcruntime:std_type_info.obj
 0001:00029320       $$000000                   000000018002a320     libvcruntime:memset.obj
 0001:000294e0       $$000000                   000000018002a4e0     libvcruntime:memcpy.obj
 0001:0002a660       ??1TrackRecursion@?1??getDecoratedName@UnDecorator@@CA?AVDName@@XZ@QEAA@XZ 000000018002b660 f   libvcruntime:undname.obj
 0001:00031e60       $$000000                   0000000180032e60     libvcruntime:notify.obj
 0001:00032900       ?try_get_function@@YAPEAXW4function_id@?A0xf6f43728@@QEBDQEBW4module_id@2@2@Z 0000000180033900 f   libvcruntime:winapi_downlevel.obj
 0001:00032cd0       ??$BuildCatchObjectHelperInternal@V__FrameHandler4@@@@YAHPEAUEHExceptionRecord@@PEAXPEAUHandlerType4@FH4@@PEBU_s_CatchableType@@@Z 0000000180033cd0 f   libvcruntime:frame.obj
 0001:00032ed4       ??$BuildCatchObjectInternal@V__FrameHandler4@@@@YAXPEAUEHExceptionRecord@@PEAXPEAUHandlerType4@FH4@@PEBU_s_CatchableType@@@Z 0000000180033ed4 f   libvcruntime:frame.obj
 0001:00032f98       ??$CatchIt@V__FrameHandler4@@@@YAXPEAUEHExceptionRecord@@PEA_KPEAU_CONTEXT@@PEAU_xDISPATCHER_CONTEXT@@PEAUFuncInfo4@FH4@@PEAUHandlerType4@4@PEBU_s_CatchableType@@PEAUTryBlockMapEntry4@4@H1EE@Z 0000000180033f98 f   libvcruntime:frame.obj
 0001:0003306c       ??$FindHandler@V__FrameHandler4@@@@YAXPEAUEHExceptionRecord@@PEA_KPEAU_CONTEXT@@PEAU_xDISPATCHER_CONTEXT@@PEAUFuncInfo4@FH4@@EH1@Z 000000018003406c f   libvcruntime:frame.obj
 0001:00033568       ??$FindHandlerForForeignException@V__FrameHandler4@@@@YAXPEAUEHExceptionRecord@@PEA_KPEAU_CONTEXT@@PEAU_xDISPATCHER_CONTEXT@@PEAUFuncInfo4@FH4@@HH1@Z 0000000180034568 f   libvcruntime:frame.obj
 0001:00034384       ?ExFilterRethrow@@YAHPEAU_EXCEPTION_POINTERS@@PEAUEHExceptionRecord@@PEAH@Z 0000000180035384 f   libvcruntime:frame.obj
 0001:0003440c       ?ExFilterRethrowFH4@@YAHPEAU_EXCEPTION_POINTERS@@PEAUEHExceptionRecord@@HPEAH@Z 000000018003540c f   libvcruntime:frame.obj
 0001:00034724       ?IsInExceptionSpec@@YAEPEAUEHExceptionRecord@@PEBU_s_ESTypeList@@@Z 0000000180035724 f   libvcruntime:frame.obj
 0001:00034814       ?Is_bad_exception_allowed@@YAEPEBU_s_ESTypeList@@@Z 0000000180035814 f   libvcruntime:frame.obj
 0001:00034b10       $$000000                   0000000180035b10     libvcruntime:handlers.obj
 0001:00034d70       $$000000                   0000000180035d70     libucrt:strcmp.obj
 0001:000351e0       $$000000                   00000001800361e0     libucrt:cosf.obj
 0001:000356e0       $$000000                   00000001800366e0     libucrt:sinf.obj
 0001:000360b0       ??$?RV<lambda_d80eeec6fff315bfe5c115232f3240e3>@@AEAV<lambda_6e4b09c48022b2350581041d5f6b0c4c>@@V<lambda_2358e3775559c9db80273638284d5e45>@@@?$__crt_seh_guarded_call@X@@QEAAX$$QEAV<lambda_d80eeec6fff315bfe5c115232f3240e3>@@AEAV<lambda_6e4b09c48022b2350581041d5f6b0c4c>@@$$QEAV<lambda_2358e3775559c9db80273638284d5e45>@@@Z 00000001800370b0 f   libucrt:exit.obj
 0001:000360e8       ??R<lambda_6e4b09c48022b2350581041d5f6b0c4c>@@QEBA@XZ 00000001800370e8 f   libucrt:exit.obj
 0001:000361ac       ?atexit_exception_filter@@YAHK@Z 00000001800371ac f   libucrt:exit.obj
 0001:000361b8       ?common_exit@@YAXHW4_crt_exit_cleanup_mode@@W4_crt_exit_return_mode@@@Z 00000001800371b8 f   libucrt:exit.obj
 0001:00036274       ?exit_or_terminate_process@@YAXI@Z 0000000180037274 f   libucrt:exit.obj
 0001:000362c0       ?try_cor_exit_process@@YAXI@Z 00000001800372c0 f   libucrt:exit.obj
 0001:00036348       ??$parse_command_line@D@@YAXPEADPEAPEAD0PEA_K2@Z 0000000180037348 f   libucrt:argv_parsing.obj
 0001:000366f0       ??$common_initialize_environment_nolock@D@@YAHXZ 00000001800376f0 f   libucrt:environment_initialization.obj
 0001:0003675c       ??$create_environment@D@@YAQEAPEADQEAD@Z 000000018003775c f   libucrt:environment_initialization.obj
 0001:00036864       ??$free_environment@D@@YAXQEAPEAD@Z 0000000180037864 f   libucrt:environment_initialization.obj
 0001:00036864       ??$free_environment@_W@@YAXQEAPEA_W@Z 0000000180037864 f   libucrt:environment_initialization.obj
 0001:000368a8       ??$uninitialize_environment_internal@D@@YAXAEAPEAPEAD@Z 00000001800378a8 f   libucrt:environment_initialization.obj
 0001:000368c4       ??$uninitialize_environment_internal@_W@@YAXAEAPEAPEA_W@Z 00000001800378c4 f   libucrt:environment_initialization.obj
 0001:00036920       ??$?RV<lambda_7777bce6b2f8c936911f934f8298dc43>@@AEAV<lambda_f03950bc5685219e0bcd2087efbe011e>@@V<lambda_3883c3dff614d5e0c5f61bb1ac94921c>@@@?$__crt_seh_guarded_call@H@@QEAAH$$QEAV<lambda_7777bce6b2f8c936911f934f8298dc43>@@AEAV<lambda_f03950bc5685219e0bcd2087efbe011e>@@$$QEAV<lambda_3883c3dff614d5e0c5f61bb1ac94921c>@@@Z 0000000180037920 f   libucrt:onexit.obj
 0001:0003695c       ??R<lambda_f03950bc5685219e0bcd2087efbe011e>@@QEBAHXZ 000000018003795c f   libucrt:onexit.obj
 0001:00036ad8       initialize_global_variables 0000000180037ad8 f   libucrt:initialization.obj
 0001:00036aec       initialize_c               0000000180037aec f   libucrt:initialization.obj
 0001:00036b10       initialize_environment     0000000180037b10 f   libucrt:initialization.obj
 0001:00036b10       initialize_global_state_isolation 0000000180037b10 f   libucrt:initialization.obj
 0001:00036b10       report_memory_leaks        0000000180037b10 f   libucrt:initialization.obj
 0001:00036b10       uninitialize_c             0000000180037b10 f   libucrt:initialization.obj
 0001:00036b10       uninitialize_global_state_isolation 0000000180037b10 f   libucrt:initialization.obj
 0001:00036b14       uninitialize_environment   0000000180037b14 f   libucrt:initialization.obj
 0001:00036b24       initialize_pointers        0000000180037b24 f   libucrt:initialization.obj
 0001:00036b64       uninitialize_vcruntime     0000000180037b64 f   libucrt:initialization.obj
 0001:00036b6c       uninitialize_allocated_memory 0000000180037b6c f   libucrt:initialization.obj
 0001:00036bac       uninitialize_allocated_io_buffers 0000000180037bac f   libucrt:initialization.obj
 0001:00036d68       ??$common_vsprintf@Vformat_validation_base@__crt_stdio_output@@D@@YAH_KQEAD0QEBDQEAU__crt_locale_pointers@@1@Z 0000000180037d68 f   libucrt:output.obj
 0001:00037b18       $LN17                      0000000180038b18     libucrt:output.obj
 0001:00038670       $$000000                   0000000180039670     libucrt:strncmp.obj
 0001:00038804       _call_matherr              0000000180039804 f   libucrt:libm_error.obj
 0001:0003886c       _exception_enabled         000000018003986c f   libucrt:libm_error.obj
 0001:00038bb0       $$000000                   0000000180039bb0     libucrt:remainder_piby2f_forasm.obj
 0001:00038d00       $$000000                   0000000180039d00     libucrt:remainder_piby2_forfma3.obj
 0001:00038f7c       _sincosf_special           0000000180039f7c f   libucrt:sincos_special.obj
 0001:00039090       $$000000                   000000018003a090     libucrt:remainder_piby2f_forc.obj
 0001:0003925c       ??$?RV<lambda_0ae27a3a962d80f24befdcbee591983d>@@AEAV<lambda_8d0ee55de4b1038c4002e0adecdf1839>@@V<lambda_dc504788e8f1664fe9b84e20bfb512f2>@@@?$__crt_seh_guarded_call@X@@QEAAX$$QEAV<lambda_0ae27a3a962d80f24befdcbee591983d>@@AEAV<lambda_8d0ee55de4b1038c4002e0adecdf1839>@@$$QEAV<lambda_dc504788e8f1664fe9b84e20bfb512f2>@@@Z 000000018003a25c f   libucrt:per_thread_data.obj
 0001:0003929c       ??$?RV<lambda_2d41944a1d46af3157314b8a01080d33>@@AEAV<lambda_8f455de75cd7d7f24b4096f044d8b9e6>@@V<lambda_aa500f224e6afead328df44964fe2772>@@@?$__crt_seh_guarded_call@X@@QEAAX$$QEAV<lambda_2d41944a1d46af3157314b8a01080d33>@@AEAV<lambda_8f455de75cd7d7f24b4096f044d8b9e6>@@$$QEAV<lambda_aa500f224e6afead328df44964fe2772>@@@Z 000000018003a29c f   libucrt:per_thread_data.obj
 0001:000392dc       ??$?RV<lambda_aa87e3671a710a21b5dc78c0bdf72e11>@@AEAV<lambda_92619d2358a28f41a33ba319515a20b9>@@V<lambda_6992ecaafeb10aed2b74cb1fae11a551>@@@?$__crt_seh_guarded_call@X@@QEAAX$$QEAV<lambda_aa87e3671a710a21b5dc78c0bdf72e11>@@AEAV<lambda_92619d2358a28f41a33ba319515a20b9>@@$$QEAV<lambda_6992ecaafeb10aed2b74cb1fae11a551>@@@Z 000000018003a2dc f   libucrt:per_thread_data.obj
 0001:00039324       ??$?RV<lambda_f2e299630e499de9f9a165e60fcd3db5>@@AEAV<lambda_2ae9d31cdba2644fcbeaf08da7c24588>@@V<lambda_40d01ff24d0e7b3814fdbdcee8eab3c7>@@@?$__crt_seh_guarded_call@X@@QEAAX$$QEAV<lambda_f2e299630e499de9f9a165e60fcd3db5>@@AEAV<lambda_2ae9d31cdba2644fcbeaf08da7c24588>@@$$QEAV<lambda_40d01ff24d0e7b3814fdbdcee8eab3c7>@@@Z 000000018003a324 f   libucrt:per_thread_data.obj
 0001:00039384       ?construct_ptd_array@@YAXQEAU__acrt_ptd@@@Z 000000018003a384 f   libucrt:per_thread_data.obj
 0001:00039454       ?destroy_fls@@YAXPEAX@Z    000000018003a454 f   libucrt:per_thread_data.obj
 0001:00039474       ?destroy_ptd_array@@YAXQEAU__acrt_ptd@@@Z 000000018003a474 f   libucrt:per_thread_data.obj
 0001:0003956c       ?replace_current_thread_locale_nolock@@YAXQEAU__acrt_ptd@@QEAU__crt_locale_data@@@Z 000000018003a56c f   libucrt:per_thread_data.obj
 0001:00039d80       ?<lambda_invoker_cdecl>@<lambda_a1ce4c8ae42411fd470c77163914f50e>@@CAHPEBX0@Z 000000018003ad80 f   libucrt:argv_wildcards.obj
 0001:0003a098       ??$common_expand_argv_wildcards@D@@YAHQEAPEADQEAPEAPEAD@Z 000000018003b098 f   libucrt:argv_wildcards.obj
 0001:0003a2a4       ??$copy_and_add_argument_to_buffer@D@@YAHQEBD0_KAEAV?$argument_list@D@?A0x5f5c8891@@@Z 000000018003b2a4 f   libucrt:argv_wildcards.obj
 0001:0003a42c       ??$expand_argument_wildcards@D@@YAHQEAD0AEAV?$argument_list@D@?A0x5f5c8891@@@Z 000000018003b42c f   libucrt:argv_wildcards.obj
 0001:0003a978       ??$?RV<lambda_efdfa57d1f175319df784efa44bb7b81>@@AEAV<lambda_5f0a4c1567f8adc6734073e5d1e1b35c>@@V<lambda_2e8a7d3640ea6ccb4c2413664c2db6fd>@@@?$__crt_seh_guarded_call@X@@QEAAX$$QEAV<lambda_efdfa57d1f175319df784efa44bb7b81>@@AEAV<lambda_5f0a4c1567f8adc6734073e5d1e1b35c>@@$$QEAV<lambda_2e8a7d3640ea6ccb4c2413664c2db6fd>@@@Z 000000018003b978 f   libucrt:mbctype.obj
 0001:0003ab34       ?getSystemCP@@YAHH@Z       000000018003bb34 f   libucrt:mbctype.obj
 0001:0003abb4       ?setSBCS@@YAXPEAU__crt_multibyte_data@@@Z 000000018003bbb4 f   libucrt:mbctype.obj
 0001:0003ac44       ?setSBUpLow@@YAXPEAU__crt_multibyte_data@@@Z 000000018003bc44 f   libucrt:mbctype.obj
 0001:0003ae28       ?setmbcp_internal@@YAHH_NQEAU__acrt_ptd@@QEAPEAU__crt_multibyte_data@@@Z 000000018003be28 f   libucrt:mbctype.obj
 0001:0003afe8       ?update_thread_multibyte_data_internal@@YAPEAU__crt_multibyte_data@@QEAU__acrt_ptd@@QEAPEAU1@@Z 000000018003bfe8 f   libucrt:mbctype.obj
 0001:0003b3d8       ?x_ismbbtype_l@@YAHPEAU__crt_locale_pointers@@IHH@Z 000000018003c3d8 f   libucrt:ismbbyte.obj
 0001:0003b734       ?try_get_function@@YAPEAXW4function_id@?A0x391cf84c@@QEBDQEBW4module_id@2@2@Z 000000018003c734 f   libucrt:winapi_thunks.obj
 0001:0003bcf4       ?initialize_inherited_file_handles_nolock@@YAXXZ 000000018003ccf4 f   libucrt:ioinit.obj
 0001:0003bde4       ?initialize_stdio_handles_nolock@@YAXXZ 000000018003cde4 f   libucrt:ioinit.obj
 0001:0003c094       ??$?RV<lambda_450d765d439847d4c735a33c368b5fc0>@@AEAV<lambda_44731a7d0e6d81c3e6aa82d741081786>@@V<lambda_601a2a7da3b7a96e9554ac7215c4b07c>@@@?$__crt_seh_guarded_call@P6AXH@Z@@QEAAP6AXH@Z$$QEAV<lambda_450d765d439847d4c735a33c368b5fc0>@@AEAV<lambda_44731a7d0e6d81c3e6aa82d741081786>@@$$QEAV<lambda_601a2a7da3b7a96e9554ac7215c4b07c>@@@Z 000000018003d094 f   libucrt:signal.obj
 0001:0003c3f0       ??$?RV<lambda_842d9ff0dc9ef11c61343bbaebe7f885>@@AEAV<lambda_c5860995281e5c4ce005b3de8f5874ee>@@V<lambda_d90129c13df834fdcbf8d2b88dafcf2d>@@@?$__crt_seh_guarded_call@X@@QEAAX$$QEAV<lambda_842d9ff0dc9ef11c61343bbaebe7f885>@@AEAV<lambda_c5860995281e5c4ce005b3de8f5874ee>@@$$QEAV<lambda_d90129c13df834fdcbf8d2b88dafcf2d>@@@Z 000000018003d3f0 f   libucrt:fflush.obj
 0001:0003c48c       ??$?RV<lambda_886d6c58226a84441f68b9f2b8217b83>@@AEAV<lambda_ab61a845afdef5b7c387490eaf3616ee>@@V<lambda_f7f22ab5edc0698d5f6905b0d3f44752>@@@?$__crt_seh_guarded_call@X@@QEAAX$$QEAV<lambda_886d6c58226a84441f68b9f2b8217b83>@@AEAV<lambda_ab61a845afdef5b7c387490eaf3616ee>@@$$QEAV<lambda_f7f22ab5edc0698d5f6905b0d3f44752>@@@Z 000000018003d48c f   libucrt:fflush.obj
 0001:0003c56c       ?common_flush_all@@YAH_N@Z 000000018003d56c f   libucrt:fflush.obj
 0001:0003cf70       ?fp_format_a@@YAHQEBNPEAD_KQEAD2H_NIQEAU__crt_locale_pointers@@W4__acrt_rounding_mode@@@Z 000000018003df70 f   libucrt:cvt.obj
 0001:0003d2f0       ?fp_format_e@@YAHQEBNQEAD_K12H_NIQEAU__crt_locale_pointers@@W4__acrt_rounding_mode@@@Z 000000018003e2f0 f   libucrt:cvt.obj
 0001:0003d3e0       ?fp_format_e_internal@@YAHQEAD_KH_NIQEAU_strflt@@2QEAU__crt_locale_pointers@@@Z 000000018003e3e0 f   libucrt:cvt.obj
 0001:0003d5b4       ?fp_format_f_internal@@YAHQEAD_KHQEAU_strflt@@_NQEAU__crt_locale_pointers@@@Z 000000018003e5b4 f   libucrt:cvt.obj
 0001:0003d71c       ?fp_format_g@@YAHQEBNQEAD_K12H_NIW4__acrt_rounding_mode@@QEAU__crt_locale_pointers@@@Z 000000018003e71c f   libucrt:cvt.obj
 0001:0003d864       ?should_round_up@@YA_NQEBN_KFW4__acrt_rounding_mode@@@Z 000000018003e864 f   libucrt:cvt.obj
 0001:0003dcf4       ??$?RV<lambda_410d79af7f07d98d83a3f525b3859a53>@@AEAV<lambda_3e16ef9562a7dcce91392c22ab16ea36>@@V<lambda_38119f0e861e05405d8a144b9b982f0a>@@@?$__crt_seh_guarded_call@X@@QEAAX$$QEAV<lambda_410d79af7f07d98d83a3f525b3859a53>@@AEAV<lambda_3e16ef9562a7dcce91392c22ab16ea36>@@$$QEAV<lambda_38119f0e861e05405d8a144b9b982f0a>@@@Z 000000018003ecf4 f   libucrt:wsetlocale.obj
 0001:0003dee0       $$000000                   000000018003eee0     libucrt:fpsr.obj
 0001:0003eb64       fallbackMethod             000000018003fb64 f   libucrt:strpbrk.obj
 0001:0003ef1c       $LN78                      000000018003ff1c     libucrt:strpbrk.obj
 0001:0003ef58       $LN77                      000000018003ff58     libucrt:strpbrk.obj
 0001:0003ef98       $LN76                      000000018003ff98     libucrt:strpbrk.obj
 0001:0003f204       ?__acrt_LCMapStringA_stat@@YAHPEAU__crt_locale_pointers@@PEB_WKPEBDHPEADHHH@Z 0000000180040204 f   libucrt:lcmapstringa.obj
 0001:0003f5b4       ?initialize_multibyte@@YAHXZ 00000001800405b4 f   libucrt:multibyte_initializer.obj
 0001:0003fa58       ??$?RV<lambda_a37b2b86f63e897a80ea819b0eb08c01>@@AEAV<lambda_38ce7e780aa69e748d6df282ebc68efe>@@V<lambda_99fb1378e971ab6e7edea83e3a7a83a2>@@@?$__crt_seh_guarded_call@H@@QEAAH$$QEAV<lambda_a37b2b86f63e897a80ea819b0eb08c01>@@AEAV<lambda_38ce7e780aa69e748d6df282ebc68efe>@@$$QEAV<lambda_99fb1378e971ab6e7edea83e3a7a83a2>@@@Z 0000000180040a58 f   libucrt:commit.obj
 0001:0003fb78       ?write_double_translated_ansi_nolock@@YA?AUwrite_result@?A0x17268360@@HQEBDI@Z 0000000180040b78 f   libucrt:write.obj
 0001:00040064       ?write_text_ansi_nolock@@YA?AUwrite_result@?A0x17268360@@HQEBDI@Z 0000000180041064 f   libucrt:write.obj
 0001:00040168       ?write_text_utf16le_nolock@@YA?AUwrite_result@?A0x17268360@@HQEBDI@Z 0000000180041168 f   libucrt:write.obj
 0001:00040284       ?write_text_utf8_nolock@@YA?AUwrite_result@?A0x17268360@@HQEBDI@Z 0000000180041284 f   libucrt:write.obj
 0001:000423a0       memcpy_s                   00000001800433a0 f   libucrt:cfout.obj
 0001:000425b4       ?free_crt_array_internal@@YAXQEAPEBX_K@Z 00000001800435b4 f   libucrt:inittime.obj
 0001:00042780       ??$common_lseek_nolock@_J@@YA_JH_JH@Z 0000000180043780 f   libucrt:lseek.obj
 0001:00042d10       $$000000                   0000000180043d10     libucrt:log10.obj
 0001:0004370c       ??$?RV<lambda_751a882b2c74d4b022dec766aa51a29a>@@AEAV<lambda_628dfdc04ba53c8bfc02c9951375f3f5>@@V<lambda_f6c7be5f7998530c34de24c7437d6b54>@@@?$__crt_seh_guarded_call@H@@QEAAH$$QEAV<lambda_751a882b2c74d4b022dec766aa51a29a>@@AEAV<lambda_628dfdc04ba53c8bfc02c9951375f3f5>@@$$QEAV<lambda_f6c7be5f7998530c34de24c7437d6b54>@@@Z 000000018004470c f   libucrt:close.obj
 0001:00043978       common_control87           0000000180044978 f   libucrt:ieee.obj
 0001:00043c60       _log_special_common        0000000180044c60 f   libucrt:log_special.obj
 0001:00043e50       $$000000                   0000000180044e50     LIBCMT:amdsecgs.obj
 0001:000440c0       capture_current_context    00000001800450c0 f   LIBCMT:gs_report.obj
 0001:00044130       capture_previous_context   0000000180045130 f   LIBCMT:gs_report.obj
 0001:000442d0       $$000000                   00000001800452d0     libvcruntime:memcmp.obj
 0001:000443b0       $$000000                   00000001800453b0     LIBCMT:guard_dispatch.obj
 0001:000443d0       $$000000                   00000001800453d0     LIBCMT:guard_xfg_dispatch.obj
 0001:000443f0       ?fin$0@?0??dllmain_crt_process_attach@@YAHQEAUHINSTANCE__@@QEAX@Z@4HA 00000001800453f0 f   LIBCMT:dll_dllmain.obj
 0001:00044407       ?fin$0@?0??dllmain_crt_process_detach@@YAH_N@Z@4HA 0000000180045407 f   LIBCMT:dll_dllmain.obj
 0001:00044420       ?fin$1@?0??dllmain_crt_process_detach@@YAH_N@Z@4HA 0000000180045420 f   LIBCMT:dll_dllmain.obj
 0001:00044434       ?filt$0@?0??dllmain_dispatch@@YAHQEAUHINSTANCE__@@KQEAX@Z@4HA 0000000180045434 f   LIBCMT:dll_dllmain.obj
 0001:0004446a       __scrt_is_nonwritable_in_current_image$filt$0 000000018004546a f   LIBCMT:utility.obj
 0001:00044482       __DestructExceptionObject$filt$0 0000000180045482 f   libvcruntime:ehhelpers.obj
 0001:00044518       ?dtor$0@?0??getDecoratedName@UnDecorator@@CA?AVDName@@XZ@4HA 0000000180045518 f   libvcruntime:undname.obj
 0001:00044524       __unDNameEx$fin$0          0000000180045524 f   libvcruntime:undname.obj
 0001:0004453a       ?filt$0@?0???$_CallSETranslator@V__FrameHandler4@@@@YAHPEAUEHExceptionRecord@@PEA_KPEAU_CONTEXT@@PEAU_xDISPATCHER_CONTEXT@@PEAUFuncInfo4@FH4@@K1H@Z@4HA 000000018004553a f   libvcruntime:risctrnsctrl.obj
 0001:000445d9       ?filt$0@?0??CxxCallCatchBlock@__FrameHandler4@@SAPEAXPEAU_EXCEPTION_RECORD@@@Z@4HA 00000001800455d9 f   libvcruntime:frame.obj
 0001:00044608       ?fin$1@?0??CxxCallCatchBlock@__FrameHandler4@@SAPEAXPEAU_EXCEPTION_RECORD@@@Z@4HA 0000000180045608 f   libvcruntime:frame.obj
 0001:0004468b       ?filt$0@?0??FrameUnwindToState@__FrameHandler4@@SAXPEA_KPEAU_xDISPATCHER_CONTEXT@@PEAUFuncInfo4@FH4@@H@Z@4HA 000000018004568b f   libvcruntime:frame.obj
 0001:000446a1       ?fin$1@?0??FrameUnwindToState@__FrameHandler4@@SAXPEA_KPEAU_xDISPATCHER_CONTEXT@@PEAUFuncInfo4@FH4@@H@Z@4HA 00000001800456a1 f   libvcruntime:frame.obj
 0001:000446c4       ?fin$0@?0???$?RV<lambda_0ae27a3a962d80f24befdcbee591983d>@@AEAV<lambda_8d0ee55de4b1038c4002e0adecdf1839>@@V<lambda_dc504788e8f1664fe9b84e20bfb512f2>@@@?$__crt_seh_guarded_call@X@@QEAAX$$QEAV<lambda_0ae27a3a962d80f24befdcbee591983d>@@AEAV<lambda_8d0ee55de4b1038c4002e0adecdf1839>@@$$QEAV<lambda_dc504788e8f1664fe9b84e20bfb512f2>@@@Z@4HA 00000001800456c4 f   libucrt:per_thread_data.obj
 0001:000446c4       ?fin$0@?0???$?RV<lambda_2d41944a1d46af3157314b8a01080d33>@@AEAV<lambda_8f455de75cd7d7f24b4096f044d8b9e6>@@V<lambda_aa500f224e6afead328df44964fe2772>@@@?$__crt_seh_guarded_call@X@@QEAAX$$QEAV<lambda_2d41944a1d46af3157314b8a01080d33>@@AEAV<lambda_8f455de75cd7d7f24b4096f044d8b9e6>@@$$QEAV<lambda_aa500f224e6afead328df44964fe2772>@@@Z@4HA 00000001800456c4 f   libucrt:per_thread_data.obj
 0001:000446c4       ?fin$0@?0???$?RV<lambda_aa87e3671a710a21b5dc78c0bdf72e11>@@AEAV<lambda_92619d2358a28f41a33ba319515a20b9>@@V<lambda_6992ecaafeb10aed2b74cb1fae11a551>@@@?$__crt_seh_guarded_call@X@@QEAAX$$QEAV<lambda_aa87e3671a710a21b5dc78c0bdf72e11>@@AEAV<lambda_92619d2358a28f41a33ba319515a20b9>@@$$QEAV<lambda_6992ecaafeb10aed2b74cb1fae11a551>@@@Z@4HA 00000001800456c4 f   libucrt:per_thread_data.obj
 0001:000446c4       ?fin$0@?0???$?RV<lambda_f2e299630e499de9f9a165e60fcd3db5>@@AEAV<lambda_2ae9d31cdba2644fcbeaf08da7c24588>@@V<lambda_40d01ff24d0e7b3814fdbdcee8eab3c7>@@@?$__crt_seh_guarded_call@X@@QEAAX$$QEAV<lambda_f2e299630e499de9f9a165e60fcd3db5>@@AEAV<lambda_2ae9d31cdba2644fcbeaf08da7c24588>@@$$QEAV<lambda_40d01ff24d0e7b3814fdbdcee8eab3c7>@@@Z@4HA 00000001800456c4 f   libucrt:per_thread_data.obj
 0001:000446c4       ?fin$0@?0???$?RV<lambda_efdfa57d1f175319df784efa44bb7b81>@@AEAV<lambda_5f0a4c1567f8adc6734073e5d1e1b35c>@@V<lambda_2e8a7d3640ea6ccb4c2413664c2db6fd>@@@?$__crt_seh_guarded_call@X@@QEAAX$$QEAV<lambda_efdfa57d1f175319df784efa44bb7b81>@@AEAV<lambda_5f0a4c1567f8adc6734073e5d1e1b35c>@@$$QEAV<lambda_2e8a7d3640ea6ccb4c2413664c2db6fd>@@@Z@4HA 00000001800456c4 f   libucrt:mbctype.obj
 0001:000446c4       ?fin$0@?0???$?RV<lambda_450d765d439847d4c735a33c368b5fc0>@@AEAV<lambda_44731a7d0e6d81c3e6aa82d741081786>@@V<lambda_601a2a7da3b7a96e9554ac7215c4b07c>@@@?$__crt_seh_guarded_call@P6AXH@Z@@QEAAP6AXH@Z$$QEAV<lambda_450d765d439847d4c735a33c368b5fc0>@@AEAV<lambda_44731a7d0e6d81c3e6aa82d741081786>@@$$QEAV<lambda_601a2a7da3b7a96e9554ac7215c4b07c>@@@Z@4HA 00000001800456c4 f   libucrt:signal.obj
 0001:000446c4       ?fin$0@?0???$?RV<lambda_d80eeec6fff315bfe5c115232f3240e3>@@AEAV<lambda_6e4b09c48022b2350581041d5f6b0c4c>@@V<lambda_2358e3775559c9db80273638284d5e45>@@@?$__crt_seh_guarded_call@X@@QEAAX$$QEAV<lambda_d80eeec6fff315bfe5c115232f3240e3>@@AEAV<lambda_6e4b09c48022b2350581041d5f6b0c4c>@@$$QEAV<lambda_2358e3775559c9db80273638284d5e45>@@@Z@4HA 00000001800456c4 f   libucrt:exit.obj
 0001:000446c4       ?fin$0@?0???$?RV<lambda_7777bce6b2f8c936911f934f8298dc43>@@AEAV<lambda_f03950bc5685219e0bcd2087efbe011e>@@V<lambda_3883c3dff614d5e0c5f61bb1ac94921c>@@@?$__crt_seh_guarded_call@H@@QEAAH$$QEAV<lambda_7777bce6b2f8c936911f934f8298dc43>@@AEAV<lambda_f03950bc5685219e0bcd2087efbe011e>@@$$QEAV<lambda_3883c3dff614d5e0c5f61bb1ac94921c>@@@Z@4HA 00000001800456c4 f   libucrt:onexit.obj
 0001:000446de       ?filt$0@?0???R<lambda_6e4b09c48022b2350581041d5f6b0c4c>@@QEBA@XZ@4HA 00000001800456de f   libucrt:exit.obj
 0001:000446f9       _ctrlfp$filt$0             00000001800456f9 f   libucrt:fpctrl.obj
 0001:000446f9       common_control87$filt$0    00000001800456f9 f   libucrt:ieee.obj
 0001:00044725       ?fin$0@?0??update_thread_multibyte_data_internal@@YAPEAU__crt_multibyte_data@@QEAU__acrt_ptd@@QEAPEAU1@@Z@4HA 0000000180045725 f   libucrt:mbctype.obj
 0001:0004473e       __acrt_initialize_lowio$fin$0 000000018004573e f   libucrt:ioinit.obj
 0001:0004473e       __acrt_lowio_ensure_fh_exists$fin$0 000000018004573e f   libucrt:osfinfo.obj
 0001:00044757       _query_new_handler$fin$0   0000000180045757 f   libucrt:new_handler.obj
 0001:0004476d       raise$fin$0                000000018004576d f   libucrt:signal.obj
 0001:0004478e       ?fin$0@?0???$?RV<lambda_842d9ff0dc9ef11c61343bbaebe7f885>@@AEAV<lambda_c5860995281e5c4ce005b3de8f5874ee>@@V<lambda_d90129c13df834fdcbf8d2b88dafcf2d>@@@?$__crt_seh_guarded_call@X@@QEAAX$$QEAV<lambda_842d9ff0dc9ef11c61343bbaebe7f885>@@AEAV<lambda_c5860995281e5c4ce005b3de8f5874ee>@@$$QEAV<lambda_d90129c13df834fdcbf8d2b88dafcf2d>@@@Z@4HA 000000018004578e f   libucrt:fflush.obj
 0001:000447a9       ?fin$0@?0???$?RV<lambda_886d6c58226a84441f68b9f2b8217b83>@@AEAV<lambda_ab61a845afdef5b7c387490eaf3616ee>@@V<lambda_f7f22ab5edc0698d5f6905b0d3f44752>@@@?$__crt_seh_guarded_call@X@@QEAAX$$QEAV<lambda_886d6c58226a84441f68b9f2b8217b83>@@AEAV<lambda_ab61a845afdef5b7c387490eaf3616ee>@@$$QEAV<lambda_f7f22ab5edc0698d5f6905b0d3f44752>@@@Z@4HA 00000001800457a9 f   libucrt:fflush.obj
 0001:000447c6       ?fin$0@?0???$?RV<lambda_410d79af7f07d98d83a3f525b3859a53>@@AEAV<lambda_3e16ef9562a7dcce91392c22ab16ea36>@@V<lambda_38119f0e861e05405d8a144b9b982f0a>@@@?$__crt_seh_guarded_call@X@@QEAAX$$QEAV<lambda_410d79af7f07d98d83a3f525b3859a53>@@AEAV<lambda_3e16ef9562a7dcce91392c22ab16ea36>@@$$QEAV<lambda_38119f0e861e05405d8a144b9b982f0a>@@@Z@4HA 00000001800457c6 f   libucrt:wsetlocale.obj
 0001:000447e0       __acrt_update_thread_locale_data$fin$0 00000001800457e0 f   libucrt:locale_refcounting.obj
 0001:000447f9       ?fin$0@?0???$?RV<lambda_751a882b2c74d4b022dec766aa51a29a>@@AEAV<lambda_628dfdc04ba53c8bfc02c9951375f3f5>@@V<lambda_f6c7be5f7998530c34de24c7437d6b54>@@@?$__crt_seh_guarded_call@H@@QEAAH$$QEAV<lambda_751a882b2c74d4b022dec766aa51a29a>@@AEAV<lambda_628dfdc04ba53c8bfc02c9951375f3f5>@@$$QEAV<lambda_f6c7be5f7998530c34de24c7437d6b54>@@@Z@4HA 00000001800457f9 f   libucrt:close.obj
 0001:000447f9       ?fin$0@?0???$?RV<lambda_a37b2b86f63e897a80ea819b0eb08c01>@@AEAV<lambda_38ce7e780aa69e748d6df282ebc68efe>@@V<lambda_99fb1378e971ab6e7edea83e3a7a83a2>@@@?$__crt_seh_guarded_call@H@@QEAAH$$QEAV<lambda_a37b2b86f63e897a80ea819b0eb08c01>@@AEAV<lambda_38ce7e780aa69e748d6df282ebc68efe>@@$$QEAV<lambda_99fb1378e971ab6e7edea83e3a7a83a2>@@@Z@4HA 00000001800457f9 f   libucrt:commit.obj
 0001:00044813       _write$fin$0               0000000180045813 f   libucrt:write.obj
 0001:0004482a       _fcloseall$fin$0           000000018004582a f   libucrt:closeall.obj
 0001:00044843       fclose$fin$0               0000000180045843 f   libucrt:fclose.obj
 0001:00044860       _IsNonwritableInCurrentImage$filt$0 0000000180045860 f   LIBCMT:pesect.obj
 0002:00000288       ?minFError$initializer$@_VecMathTests@aos@shdfnd@physx@@3P6AXXZEA 0000000180046288     Cooking.obj
 0002:00000290       ?maxFError$initializer$@_VecMathTests@aos@shdfnd@physx@@3P6AXXZEA 0000000180046290     Cooking.obj
 0002:00000298       ?minV3Error$initializer$@_VecMathTests@aos@shdfnd@physx@@3P6AXXZEA 0000000180046298     Cooking.obj
 0002:000002a0       ?maxV3Error$initializer$@_VecMathTests@aos@shdfnd@physx@@3P6AXXZEA 00000001800462a0     Cooking.obj
 0002:000002a8       ?minV4Error$initializer$@_VecMathTests@aos@shdfnd@physx@@3P6AXXZEA 00000001800462a8     Cooking.obj
 0002:000002b0       ?maxV4Error$initializer$@_VecMathTests@aos@shdfnd@physx@@3P6AXXZEA 00000001800462b0     Cooking.obj
 0002:000002b8       ?minFError$initializer$@_VecMathTests@aos@shdfnd@physx@@3P6AXXZEA 00000001800462b8     BVHStructureBuilder.obj
 0002:000002c0       ?maxFError$initializer$@_VecMathTests@aos@shdfnd@physx@@3P6AXXZEA 00000001800462c0     BVHStructureBuilder.obj
 0002:000002c8       ?minV3Error$initializer$@_VecMathTests@aos@shdfnd@physx@@3P6AXXZEA 00000001800462c8     BVHStructureBuilder.obj
 0002:000002d0       ?maxV3Error$initializer$@_VecMathTests@aos@shdfnd@physx@@3P6AXXZEA 00000001800462d0     BVHStructureBuilder.obj
 0002:000002d8       ?minV4Error$initializer$@_VecMathTests@aos@shdfnd@physx@@3P6AXXZEA 00000001800462d8     BVHStructureBuilder.obj
 0002:000002e0       ?maxV4Error$initializer$@_VecMathTests@aos@shdfnd@physx@@3P6AXXZEA 00000001800462e0     BVHStructureBuilder.obj
 0002:000002e8       ?minFError$initializer$@_VecMathTests@aos@shdfnd@physx@@3P6AXXZEA 00000001800462e8     RTreeCooking.obj
 0002:000002f0       ?maxFError$initializer$@_VecMathTests@aos@shdfnd@physx@@3P6AXXZEA 00000001800462f0     RTreeCooking.obj
 0002:000002f8       ?minV3Error$initializer$@_VecMathTests@aos@shdfnd@physx@@3P6AXXZEA 00000001800462f8     RTreeCooking.obj
 0002:00000300       ?maxV3Error$initializer$@_VecMathTests@aos@shdfnd@physx@@3P6AXXZEA 0000000180046300     RTreeCooking.obj
 0002:00000308       ?minV4Error$initializer$@_VecMathTests@aos@shdfnd@physx@@3P6AXXZEA 0000000180046308     RTreeCooking.obj
 0002:00000310       ?maxV4Error$initializer$@_VecMathTests@aos@shdfnd@physx@@3P6AXXZEA 0000000180046310     RTreeCooking.obj
 0002:00000318       ?minFError$initializer$@_VecMathTests@aos@shdfnd@physx@@3P6AXXZEA 0000000180046318     MeshBuilder.obj
 0002:00000320       ?maxFError$initializer$@_VecMathTests@aos@shdfnd@physx@@3P6AXXZEA 0000000180046320     MeshBuilder.obj
 0002:00000328       ?minV3Error$initializer$@_VecMathTests@aos@shdfnd@physx@@3P6AXXZEA 0000000180046328     MeshBuilder.obj
 0002:00000330       ?maxV3Error$initializer$@_VecMathTests@aos@shdfnd@physx@@3P6AXXZEA 0000000180046330     MeshBuilder.obj
 0002:00000338       ?minV4Error$initializer$@_VecMathTests@aos@shdfnd@physx@@3P6AXXZEA 0000000180046338     MeshBuilder.obj
 0002:00000340       ?maxV4Error$initializer$@_VecMathTests@aos@shdfnd@physx@@3P6AXXZEA 0000000180046340     MeshBuilder.obj
 0002:00000348       ?minFError$initializer$@_VecMathTests@aos@shdfnd@physx@@3P6AXXZEA 0000000180046348     TriangleMeshBuilder.obj
 0002:00000350       ?maxFError$initializer$@_VecMathTests@aos@shdfnd@physx@@3P6AXXZEA 0000000180046350     TriangleMeshBuilder.obj
 0002:00000358       ?minV3Error$initializer$@_VecMathTests@aos@shdfnd@physx@@3P6AXXZEA 0000000180046358     TriangleMeshBuilder.obj
 0002:00000360       ?maxV3Error$initializer$@_VecMathTests@aos@shdfnd@physx@@3P6AXXZEA 0000000180046360     TriangleMeshBuilder.obj
 0002:00000368       ?minV4Error$initializer$@_VecMathTests@aos@shdfnd@physx@@3P6AXXZEA 0000000180046368     TriangleMeshBuilder.obj
 0002:00000370       ?maxV4Error$initializer$@_VecMathTests@aos@shdfnd@physx@@3P6AXXZEA 0000000180046370     TriangleMeshBuilder.obj
 0002:00000378       ?minFError$initializer$@_VecMathTests@aos@shdfnd@physx@@3P6AXXZEA 0000000180046378     BigConvexDataBuilder.obj
 0002:00000380       ?maxFError$initializer$@_VecMathTests@aos@shdfnd@physx@@3P6AXXZEA 0000000180046380     BigConvexDataBuilder.obj
 0002:00000388       ?minV3Error$initializer$@_VecMathTests@aos@shdfnd@physx@@3P6AXXZEA 0000000180046388     BigConvexDataBuilder.obj
 0002:00000390       ?maxV3Error$initializer$@_VecMathTests@aos@shdfnd@physx@@3P6AXXZEA 0000000180046390     BigConvexDataBuilder.obj
 0002:00000398       ?minV4Error$initializer$@_VecMathTests@aos@shdfnd@physx@@3P6AXXZEA 0000000180046398     BigConvexDataBuilder.obj
 0002:000003a0       ?maxV4Error$initializer$@_VecMathTests@aos@shdfnd@physx@@3P6AXXZEA 00000001800463a0     BigConvexDataBuilder.obj
 0002:000003a8       ?minFError$initializer$@_VecMathTests@aos@shdfnd@physx@@3P6AXXZEA 00000001800463a8     ConvexHullBuilder.obj
 0002:000003b0       ?maxFError$initializer$@_VecMathTests@aos@shdfnd@physx@@3P6AXXZEA 00000001800463b0     ConvexHullBuilder.obj
 0002:000003b8       ?minV3Error$initializer$@_VecMathTests@aos@shdfnd@physx@@3P6AXXZEA 00000001800463b8     ConvexHullBuilder.obj
 0002:000003c0       ?maxV3Error$initializer$@_VecMathTests@aos@shdfnd@physx@@3P6AXXZEA 00000001800463c0     ConvexHullBuilder.obj
 0002:000003c8       ?minV4Error$initializer$@_VecMathTests@aos@shdfnd@physx@@3P6AXXZEA 00000001800463c8     ConvexHullBuilder.obj
 0002:000003d0       ?maxV4Error$initializer$@_VecMathTests@aos@shdfnd@physx@@3P6AXXZEA 00000001800463d0     ConvexHullBuilder.obj
 0002:000003d8       ?minFError$initializer$@_VecMathTests@aos@shdfnd@physx@@3P6AXXZEA 00000001800463d8     ConvexHullUtils.obj
 0002:000003e0       ?maxFError$initializer$@_VecMathTests@aos@shdfnd@physx@@3P6AXXZEA 00000001800463e0     ConvexHullUtils.obj
 0002:000003e8       ?minV3Error$initializer$@_VecMathTests@aos@shdfnd@physx@@3P6AXXZEA 00000001800463e8     ConvexHullUtils.obj
 0002:000003f0       ?maxV3Error$initializer$@_VecMathTests@aos@shdfnd@physx@@3P6AXXZEA 00000001800463f0     ConvexHullUtils.obj
 0002:000003f8       ?minV4Error$initializer$@_VecMathTests@aos@shdfnd@physx@@3P6AXXZEA 00000001800463f8     ConvexHullUtils.obj
 0002:00000400       ?maxV4Error$initializer$@_VecMathTests@aos@shdfnd@physx@@3P6AXXZEA 0000000180046400     ConvexHullUtils.obj
 0002:00000408       ?minFError$initializer$@_VecMathTests@aos@shdfnd@physx@@3P6AXXZEA 0000000180046408     ConvexMeshBuilder.obj
 0002:00000410       ?maxFError$initializer$@_VecMathTests@aos@shdfnd@physx@@3P6AXXZEA 0000000180046410     ConvexMeshBuilder.obj
 0002:00000418       ?minV3Error$initializer$@_VecMathTests@aos@shdfnd@physx@@3P6AXXZEA 0000000180046418     ConvexMeshBuilder.obj
 0002:00000420       ?maxV3Error$initializer$@_VecMathTests@aos@shdfnd@physx@@3P6AXXZEA 0000000180046420     ConvexMeshBuilder.obj
 0002:00000428       ?minV4Error$initializer$@_VecMathTests@aos@shdfnd@physx@@3P6AXXZEA 0000000180046428     ConvexMeshBuilder.obj
 0002:00000430       ?maxV4Error$initializer$@_VecMathTests@aos@shdfnd@physx@@3P6AXXZEA 0000000180046430     ConvexMeshBuilder.obj
 0002:00000438       ?minFError$initializer$@_VecMathTests@aos@shdfnd@physx@@3P6AXXZEA 0000000180046438     VolumeIntegration.obj
 0002:00000440       ?maxFError$initializer$@_VecMathTests@aos@shdfnd@physx@@3P6AXXZEA 0000000180046440     VolumeIntegration.obj
 0002:00000448       ?minV3Error$initializer$@_VecMathTests@aos@shdfnd@physx@@3P6AXXZEA 0000000180046448     VolumeIntegration.obj
 0002:00000450       ?maxV3Error$initializer$@_VecMathTests@aos@shdfnd@physx@@3P6AXXZEA 0000000180046450     VolumeIntegration.obj
 0002:00000458       ?minV4Error$initializer$@_VecMathTests@aos@shdfnd@physx@@3P6AXXZEA 0000000180046458     VolumeIntegration.obj
 0002:00000460       ?maxV4Error$initializer$@_VecMathTests@aos@shdfnd@physx@@3P6AXXZEA 0000000180046460     VolumeIntegration.obj
 0002:00000610       ?minus1w@?A0x3dd35ed8@aos@shdfnd@physx@@3QBMB 0000000180046610     Cooking.obj
 0002:00000620       ?gMaskXYZ@internalWindowsSimd@aos@shdfnd@physx@@3QBIB 0000000180046620     Cooking.obj
 0002:00000e20       ?minus1w@?A0x2bda836f@aos@shdfnd@physx@@3QBMB 0000000180046e20     BVHStructureBuilder.obj
 0002:00000e30       ?gMaskXYZ@internalWindowsSimd@aos@shdfnd@physx@@3QBIB 0000000180046e30     BVHStructureBuilder.obj
 0002:00000ec0       ?minus1w@?A0x066d1f6c@aos@shdfnd@physx@@3QBMB 0000000180046ec0     RTreeCooking.obj
 0002:00000ed0       ?gMaskXYZ@internalWindowsSimd@aos@shdfnd@physx@@3QBIB 0000000180046ed0     RTreeCooking.obj
 0002:00000f18       ?stopAtTrisPerPage@physx@@3QBIB 0000000180046f18     RTreeCooking.obj
 0002:00000f58       ?stopAtTrisPerLeaf@physx@@3QBIB 0000000180046f58     RTreeCooking.obj
 0002:00001130       ?minus1w@?A0x8af9283e@aos@shdfnd@physx@@3QBMB 0000000180047130     MeshBuilder.obj
 0002:00001140       ?gMaskXYZ@internalWindowsSimd@aos@shdfnd@physx@@3QBIB 0000000180047140     MeshBuilder.obj
 0002:00001160       ?minus1w@?A0x7a7d0495@aos@shdfnd@physx@@3QBMB 0000000180047160     TriangleMeshBuilder.obj
 0002:00001170       ?gMaskXYZ@internalWindowsSimd@aos@shdfnd@physx@@3QBIB 0000000180047170     TriangleMeshBuilder.obj
 0002:00001590       ?minus1w@?A0xa9708f6e@aos@shdfnd@physx@@3QBMB 0000000180047590     BigConvexDataBuilder.obj
 0002:000015a0       ?gMaskXYZ@internalWindowsSimd@aos@shdfnd@physx@@3QBIB 00000001800475a0     BigConvexDataBuilder.obj
 0002:00001630       ?minus1w@?A0x9e8a8a49@aos@shdfnd@physx@@3QBMB 0000000180047630     ConvexHullBuilder.obj
 0002:00001640       ?gMaskXYZ@internalWindowsSimd@aos@shdfnd@physx@@3QBIB 0000000180047640     ConvexHullBuilder.obj
 0002:00001af0       ?minus1w@?A0x4d1ffd35@aos@shdfnd@physx@@3QBMB 0000000180047af0     ConvexHullUtils.obj
 0002:00001b00       ?gMaskXYZ@internalWindowsSimd@aos@shdfnd@physx@@3QBIB 0000000180047b00     ConvexHullUtils.obj
 0002:00001bc0       ?minus1w@?A0x502e2a1c@aos@shdfnd@physx@@3QBMB 0000000180047bc0     ConvexMeshBuilder.obj
 0002:00001bd0       ?gMaskXYZ@internalWindowsSimd@aos@shdfnd@physx@@3QBIB 0000000180047bd0     ConvexMeshBuilder.obj
 0002:00002190       ?minus1w@?A0x1f64996d@aos@shdfnd@physx@@3QBMB 0000000180048190     VolumeIntegration.obj
 0002:000021a0       ?gMaskXYZ@internalWindowsSimd@aos@shdfnd@physx@@3QBIB 00000001800481a0     VolumeIntegration.obj
 0002:00002320       L_abs_mask                 0000000180048320     LIBCMT:svml_ssinf4_dispatch.obj
 0002:00002330       L_real_one                 0000000180048330     LIBCMT:svml_ssinf4_dispatch.obj
 0002:00002340       L_one_half                 0000000180048340     LIBCMT:svml_ssinf4_dispatch.obj
 0002:00002350       L_two_to_neg_13            0000000180048350     LIBCMT:svml_ssinf4_dispatch.obj
 0002:00002360       L_pi_over_two              0000000180048360     LIBCMT:svml_ssinf4_dispatch.obj
 0002:00002370       L_pi_over_two2             0000000180048370     LIBCMT:svml_ssinf4_dispatch.obj
 0002:000024f0       ?tokenTable@@3QBUStringLiteral@@B 00000001800484f0     libvcruntime:undname.obj
 0002:000025f0       ?nameTable@@3QBUStringLiteral@@B 00000001800485f0     libvcruntime:undname.obj
 0002:00002b20       ?rttiTable@@3QBUStringLiteral@@B 0000000180048b20     libvcruntime:undname.obj
 0002:00002b70       ?IndirectionName@@3QBUStringLiteral@@B 0000000180048b70     libvcruntime:undname.obj
 0002:00002bd0       ?PrefixName@@3QBUStringLiteral@@B 0000000180048bd0     libvcruntime:undname.obj
 0002:00003810       ?result@?1??IsValidIdentChar@@YA_ND@Z@4U<unnamed-type-result>@?1??InitValidIdentChar@@YA@XZ@B 0000000180049810     libvcruntime:undname.obj
 0002:00003980       ?ExceptionTemplate@?1??UnwindNestedFrames@__FrameHandler4@@SAXPEA_KPEAUEHExceptionRecord@@PEAU_CONTEXT@@0PEAXPEAUFuncInfo4@FH4@@HHPEAUHandlerType4@6@PEAU_xDISPATCHER_CONTEXT@@E@Z@4U_EXCEPTION_RECORD@@B 0000000180049980     libvcruntime:risctrnsctrl.obj
 0002:00003a18       ?module_names@?A0xf6f43728@@3QBQEB_WB 0000000180049a18     libvcruntime:winapi_downlevel.obj
 0002:00003ad8       ?candidate_modules@?1??try_get_FlsAlloc@@YAP6AKP6AXPEAX@Z@ZXZ@4QBW4module_id@?A0xf6f43728@@B 0000000180049ad8     libvcruntime:winapi_downlevel.obj
 0002:00003af0       ?candidate_modules@?1??try_get_FlsFree@@YAP6AHK@ZXZ@4QBW4module_id@?A0xf6f43728@@B 0000000180049af0     libvcruntime:winapi_downlevel.obj
 0002:00003b00       ?candidate_modules@?1??try_get_FlsGetValue@@YAP6APEAXK@ZXZ@4QBW4module_id@?A0xf6f43728@@B 0000000180049b00     libvcruntime:winapi_downlevel.obj
 0002:00003b18       ?candidate_modules@?1??try_get_FlsSetValue@@YAP6AHKPEAX@ZXZ@4QBW4module_id@?A0xf6f43728@@B 0000000180049b18     libvcruntime:winapi_downlevel.obj
 0002:00003b30       ?candidate_modules@?1??try_get_InitializeCriticalSectionEx@@YAP6AHPEAU_RTL_CRITICAL_SECTION@@KK@ZXZ@4QBW4module_id@?A0xf6f43728@@B 0000000180049b30     libvcruntime:winapi_downlevel.obj
 0002:00003bb0       ?atan_jby256@?1??atan2f@@9@9 0000000180049bb0     libucrt:atan2f.obj
 0002:000043b0       L_real_one                 000000018004a3b0     libucrt:cosf.obj
 0002:000043c0       L_one_half                 000000018004a3c0     libucrt:cosf.obj
 0002:000043d0       L_2bypi                    000000018004a3d0     libucrt:cosf.obj
 0002:000043e0       L_one_sixth                000000018004a3e0     libucrt:cosf.obj
 0002:000043f0       L_piby2                    000000018004a3f0     libucrt:cosf.obj
 0002:00004400       L_piby2_1                  000000018004a400     libucrt:cosf.obj
 0002:00004410       L_piby2_1tail              000000018004a410     libucrt:cosf.obj
 0002:00004420       L_piby2_2                  000000018004a420     libucrt:cosf.obj
 0002:00004430       L_piby2_2tail              000000018004a430     libucrt:cosf.obj
 0002:00004440       L_large_x_sse2             000000018004a440     libucrt:cosf.obj
 0002:00004450       L_large_x_fma3             000000018004a450     libucrt:cosf.obj
 0002:00004460       L_sign_mask                000000018004a460     libucrt:cosf.obj
 0002:00004470       L__int_three               000000018004a470     libucrt:cosf.obj
 0002:00004480       L__min_norm_double         000000018004a480     libucrt:cosf.obj
 0002:00004490       L_two_to_neg_7             000000018004a490     libucrt:cosf.obj
 0002:000044a0       L_two_to_neg_13            000000018004a4a0     libucrt:cosf.obj
 0002:000044b0       L_two_to_32_float          000000018004a4b0     libucrt:cosf.obj
 0002:000044b8       L_one_float                000000018004a4b8     libucrt:cosf.obj
 0002:000044c0       L_inf_mask_32              000000018004a4c0     libucrt:cosf.obj
 0002:000044d0       L_signbit                  000000018004a4d0     libucrt:sinf.obj
 0002:000044e0       L_sign_mask                000000018004a4e0     libucrt:sinf.obj
 0002:000044f0       L_one                      000000018004a4f0     libucrt:sinf.obj
 0002:00004500       L_int_three                000000018004a500     libucrt:sinf.obj
 0002:00004510       L_one_half                 000000018004a510     libucrt:sinf.obj
 0002:00004520       L_twobypi                  000000018004a520     libucrt:sinf.obj
 0002:00004530       L_piby2_1                  000000018004a530     libucrt:sinf.obj
 0002:00004540       L_one_sixth                000000018004a540     libucrt:sinf.obj
 0002:00004550       L_piby2_1tail              000000018004a550     libucrt:sinf.obj
 0002:00004560       L_piby2_2                  000000018004a560     libucrt:sinf.obj
 0002:00004570       L_piby2_2tail              000000018004a570     libucrt:sinf.obj
 0002:00004580       L_inf_mask_32              000000018004a580     libucrt:sinf.obj
 0002:00004590       L_int_two                  000000018004a590     libucrt:sinf.obj
 0002:000045a0       L_piby2_lead               000000018004a5a0     libucrt:sinf.obj
 0002:000045b0       L_piby4                    000000018004a5b0     libucrt:sinf.obj
 0002:000045c0       L_mask_3f2                 000000018004a5c0     libucrt:sinf.obj
 0002:000045d0       L_mask_3f8                 000000018004a5d0     libucrt:sinf.obj
 0002:000045e0       L_large_x_fma3             000000018004a5e0     libucrt:sinf.obj
 0002:000045e8       L_large_x_sse2             000000018004a5e8     libucrt:sinf.obj
 0002:000045f0       L_near_one                 000000018004a5f0     libucrt:sinf.obj
 0002:000045f8       L_two_to_32                000000018004a5f8     libucrt:sinf.obj
 0002:00004700       __acrt_initializers        000000018004a700     libucrt:initialization.obj
 0002:00004c20       L__piby2                   000000018004ac20     libucrt:remainder_piby2f_forasm.obj
 0002:00004c30       L_piby2_lead               000000018004ac30     libucrt:remainder_piby2_forfma3.obj
 0002:00004c40       L_fff800                   000000018004ac40     libucrt:remainder_piby2_forfma3.obj
 0002:00004c50       L_piby2_part1              000000018004ac50     libucrt:remainder_piby2_forfma3.obj
 0002:00004c60       L_piby2_part2              000000018004ac60     libucrt:remainder_piby2_forfma3.obj
 0002:00004c70       L_piby2_part3              000000018004ac70     libucrt:remainder_piby2_forfma3.obj
 0002:00004c80       L_piby2_1                  000000018004ac80     libucrt:remainder_piby2_forfma3.obj
 0002:00004c90       L_piby2_2                  000000018004ac90     libucrt:remainder_piby2_forfma3.obj
 0002:00004ca0       L_piby2_3                  000000018004aca0     libucrt:remainder_piby2_forfma3.obj
 0002:00004cb0       L_piby2_1tail              000000018004acb0     libucrt:remainder_piby2_forfma3.obj
 0002:00004cc0       L_piby2_2tail              000000018004acc0     libucrt:remainder_piby2_forfma3.obj
 0002:00004cd0       L_piby2_3tail              000000018004acd0     libucrt:remainder_piby2_forfma3.obj
 0002:00004ce0       L_sign_mask                000000018004ace0     libucrt:remainder_piby2_forfma3.obj
 0002:00004cf0       L_twobypi                  000000018004acf0     libucrt:remainder_piby2_forfma3.obj
 0002:00004d00       L_point_five               000000018004ad00     libucrt:remainder_piby2_forfma3.obj
 0002:00004d10       L_int_three                000000018004ad10     libucrt:remainder_piby2_forfma3.obj
 0002:00004d20       L_inf_mask_64              000000018004ad20     libucrt:remainder_piby2_forfma3.obj
 0002:00004d30       L_signbit                  000000018004ad30     libucrt:remainder_piby2_forfma3.obj
 0002:00004d40       L_r                        000000018004ad40     libucrt:remainder_piby2_forfma3.obj
 0002:00004d50       L_xc1                      000000018004ad50     libucrt:remainder_piby2_forfma3.obj
 0002:00004d60       L_xc2                      000000018004ad60     libucrt:remainder_piby2_forfma3.obj
 0002:00004d70       L_xc3                      000000018004ad70     libucrt:remainder_piby2_forfma3.obj
 0002:00004d80       L_sigma                    000000018004ad80     libucrt:remainder_piby2_forfma3.obj
 0002:00004e90       L__piby2                   000000018004ae90     libucrt:remainder_piby2f_forc.obj
 0002:00004ea0       L__2_by_pi_bits            000000018004aea0     libucrt:remainder_piby2f_forc.obj
 0002:00004f40       ?errtable@@3QBUerrentry@?A0x31fdb9ec@@B 000000018004af40     libucrt:errno.obj
 0002:000050a8       ?_mb_locale_names@@3QBQEB_WB 000000018004b0a8     libucrt:mbctype.obj
 0002:00005110       ?module_names@?A0x391cf84c@@3QBQEB_WB 000000018004b110     libucrt:winapi_thunks.obj
 0002:00005618       ?candidate_modules@?1??try_get_AreFileApisANSI@@YAP6AHXZXZ@4QBW4module_id@?A0x391cf84c@@B 000000018004b618     libucrt:winapi_thunks.obj
 0002:00005630       ?candidate_modules@?1??try_get_FlsAlloc@@YAP6AKP6AXPEAX@Z@ZXZ@4QBW4module_id@?A0x391cf84c@@B 000000018004b630     libucrt:winapi_thunks.obj
 0002:00005638       ?candidate_modules@?1??try_get_FlsFree@@YAP6AHK@ZXZ@4QBW4module_id@?A0x391cf84c@@B 000000018004b638     libucrt:winapi_thunks.obj
 0002:00005640       ?candidate_modules@?1??try_get_FlsGetValue@@YAP6APEAXK@ZXZ@4QBW4module_id@?A0x391cf84c@@B 000000018004b640     libucrt:winapi_thunks.obj
 0002:00005648       ?candidate_modules@?1??try_get_FlsSetValue@@YAP6AHKPEAX@ZXZ@4QBW4module_id@?A0x391cf84c@@B 000000018004b648     libucrt:winapi_thunks.obj
 0002:00005650       ?candidate_modules@?1??try_get_InitializeCriticalSectionEx@@YAP6AHPEAU_RTL_CRITICAL_SECTION@@KK@ZXZ@4QBW4module_id@?A0x391cf84c@@B 000000018004b650     libucrt:winapi_thunks.obj
 0002:00005658       ?candidate_modules@?1??try_get_LCMapStringEx@@YAP6AHPEB_WK0HPEA_WHPEAU_nlsversioninfo@@PEAX_J@ZXZ@4QBW4module_id@?A0x391cf84c@@B 000000018004b658     libucrt:winapi_thunks.obj
 0002:00005670       ?candidate_modules@?1??try_get_LocaleNameToLCID@@YAP6AKPEB_WK@ZXZ@4QBW4module_id@?A0x391cf84c@@B 000000018004b670     libucrt:winapi_thunks.obj
 0002:0000568c       ?candidate_modules@?1??try_get_AppPolicyGetProcessTerminationMethod@@YAP6AJPEAXPEAW4AppPolicyProcessTerminationMethod@@@ZXZ@4QBW4module_id@?A0x391cf84c@@B 000000018004b68c     libucrt:winapi_thunks.obj
 0002:00005d40       ?strings@?1??fp_format_nan_or_infinity@@YAHW4__acrt_fp_class@@_NPEAD_K1@Z@4QAY03QEBDA 000000018004bd40     libucrt:cvt.obj
 0002:00006420       __real@433fffffffffffff    000000018004c420     libucrt:fpsr.obj
 0002:00006428       __real@c33fffffffffffff    000000018004c428     libucrt:fpsr.obj
 0002:00006440       ?LcidToLocaleNameTable@?A0x881e4c05@@3QBULcidToLocaleName@1@B 000000018004c440     libucrt:lcidtoname_downlevel.obj
 0002:00007ea0       ?LocaleNameToIndexTable@?A0x881e4c05@@3QBULocaleNameIndex@1@B 000000018004dea0     libucrt:lcidtoname_downlevel.obj
 0002:0000a130       __real_ninf                0000000180050130     libucrt:log10.obj
 0002:0000a140       __real_inf                 0000000180050140     libucrt:log10.obj
 0002:0000a150       __real_neg_qnan            0000000180050150     libucrt:log10.obj
 0002:0000a160       __real_qnanbit             0000000180050160     libucrt:log10.obj
 0002:0000a170       __int_1023                 0000000180050170     libucrt:log10.obj
 0002:0000a180       __mask_001                 0000000180050180     libucrt:log10.obj
 0002:0000a190       __mask_mant                0000000180050190     libucrt:log10.obj
 0002:0000a1a0       __mask_mant_top8           00000001800501a0     libucrt:log10.obj
 0002:0000a1b0       __mask_mant9               00000001800501b0     libucrt:log10.obj
 0002:0000a1c0       __real_log10_e             00000001800501c0     libucrt:log10.obj
 0002:0000a1d0       __real_log10_e_lead        00000001800501d0     libucrt:log10.obj
 0002:0000a1e0       __real_log10_e_tail        00000001800501e0     libucrt:log10.obj
 0002:0000a1f0       __real_log10_2_lead        00000001800501f0     libucrt:log10.obj
 0002:0000a200       __real_log10_2_tail        0000000180050200     libucrt:log10.obj
 0002:0000a210       __real_two                 0000000180050210     libucrt:log10.obj
 0002:0000a220       __real_one                 0000000180050220     libucrt:log10.obj
 0002:0000a230       __real_half                0000000180050230     libucrt:log10.obj
 0002:0000a240       __mask_100                 0000000180050240     libucrt:log10.obj
 0002:0000a250       __real_1_over_512          0000000180050250     libucrt:log10.obj
 0002:0000a260       __real_1_over_2            0000000180050260     libucrt:log10.obj
 0002:0000a270       __real_1_over_3            0000000180050270     libucrt:log10.obj
 0002:0000a280       __real_1_over_4            0000000180050280     libucrt:log10.obj
 0002:0000a290       __real_1_over_5            0000000180050290     libucrt:log10.obj
 0002:0000a2a0       __real_1_over_6            00000001800502a0     libucrt:log10.obj
 0002:0000a2b0       __real_neg_1023            00000001800502b0     libucrt:log10.obj
 0002:0000a2c0       __mask_2045                00000001800502c0     libucrt:log10.obj
 0002:0000a2d0       __real_threshold           00000001800502d0     libucrt:log10.obj
 0002:0000a2e0       __real_near_one_lt         00000001800502e0     libucrt:log10.obj
 0002:0000a2f0       __real_near_one_gt         00000001800502f0     libucrt:log10.obj
 0002:0000a300       __real_min_norm            0000000180050300     libucrt:log10.obj
 0002:0000a310       __real_notsign             0000000180050310     libucrt:log10.obj
 0002:0000a320       __real_ca1                 0000000180050320     libucrt:log10.obj
 0002:0000a330       __real_ca2                 0000000180050330     libucrt:log10.obj
 0002:0000a340       __real_ca3                 0000000180050340     libucrt:log10.obj
 0002:0000a350       __real_ca4                 0000000180050350     libucrt:log10.obj
 0002:0000a360       __mask_lower               0000000180050360     libucrt:log10.obj
 0002:0000a370       __flag_x_zero              0000000180050370     libucrt:log10.obj
 0002:0000a374       __flag_x_neg               0000000180050374     libucrt:log10.obj
 0002:0000a378       __flag_x_nan               0000000180050378     libucrt:log10.obj
 0002:0000bbc0       GS_ExceptionPointers       0000000180051bc0     LIBCMT:gs_report.obj
 0002:0000c530       $unwind$??1Adjacencies@physx@@QEAA@XZ 0000000180052530     Adjacencies.obj
 0002:0000c530       $unwind$??_EPxFoundation@physx@@MEAAPEAXI@Z 0000000180052530     Adjacencies.obj
 0002:0000c530       $unwind$??0ConvexMeshBuilder@physx@@QEAA@_N@Z 0000000180052530     ConvexMeshBuilder.obj
 0002:0000c530       $unwind$?isFinite@PxVec3@physx@@QEBA_NXZ 0000000180052530     ConvexMeshBuilder.obj
 0002:0000c530       $unwind$??0ConvexPolygonsBuilder@physx@@QEAA@PEAUConvexHullData@Gu@1@_N@Z 0000000180052530     ConvexPolygonsBuilder.obj
 0002:0000c530       $unwind$??_GCooking@physx@@UEAAPEAXI@Z 0000000180052530     Cooking.obj
 0002:0000c530       $unwind$??_GPxBase@physx@@MEAAPEAXI@Z 0000000180052530     Cooking.obj
 0002:0000c530       $unwind$??_GPxCooking@physx@@MEAAPEAXI@Z 0000000180052530     Cooking.obj
 0002:0000c530       $unwind$?isKindOf@PxConvexMesh@physx@@MEBA_NPEBD@Z 0000000180052530     Cooking.obj
 0002:0000c530       $unwind$?isKindOf@PxHeightField@physx@@MEBA_NPEBD@Z 0000000180052530     Cooking.obj
 0002:0000c530       $unwind$??_GQuantizer@physx@@MEAAPEAXI@Z 0000000180052530     Quantizer.obj
 0002:0000c530       $unwind$??1RTreeTriangleData@Gu@physx@@UEAA@XZ 0000000180052530     TriangleMeshBuilder.obj
 0002:0000c530       $unwind$??1RTreeTriangleMeshBuilder@physx@@UEAA@XZ 0000000180052530     TriangleMeshBuilder.obj
 0002:0000c530       $unwind$??_GRTreeCookerRemap@physx@@UEAAPEAXI@Z 0000000180052530     TriangleMeshBuilder.obj
 0002:0000c530       $unwind$??_GRemapCallback@RTreeCooker@physx@@UEAAPEAXI@Z 0000000180052530     TriangleMeshBuilder.obj
 0002:0000c530       $unwind$?DloadAcquireSectionWriteAccess@@YAXXZ 0000000180052530     Delayimp:delayhlp.obj
 0002:0000c530       $unwind$__raise_securityfailure 0000000180052530     LIBCMT:gs_report.obj
 0002:0000c530       $unwind$??_Gtype_info@@UEAAPEAXI@Z 0000000180052530     LIBCMT:std_type_info_static.obj
 0002:0000c530       $unwind$__scrt_initialize_crt 0000000180052530     LIBCMT:utility.obj
 0002:0000c530       $unwind$__scrt_initialize_onexit_tables 0000000180052530     LIBCMT:utility.obj
 0002:0000c530       $unwind$__scrt_release_startup_lock 0000000180052530     LIBCMT:utility.obj
 0002:0000c530       $unwind$__scrt_uninitialize_crt 0000000180052530     LIBCMT:utility.obj
 0002:0000c530       $unwind$_IsExceptionObjectToBeDestroyed 0000000180052530     libvcruntime:ehhelpers.obj
 0002:0000c530       $unwind$??0HandlerMap4@FH4@@QEAA@PEBUTryBlockMapEntry4@1@_KH@Z 0000000180052530     libvcruntime:frame.obj
 0002:0000c530       $unwind$??0bad_exception@std@@QEAA@AEBV01@@Z 0000000180052530     libvcruntime:frame.obj
 0002:0000c530       $unwind$??0exception@std@@QEAA@AEBV01@@Z 0000000180052530     libvcruntime:frame.obj
 0002:0000c530       $unwind$?ExFilterRethrow@@YAHPEAU_EXCEPTION_POINTERS@@PEAUEHExceptionRecord@@PEAH@Z 0000000180052530     libvcruntime:frame.obj
 0002:0000c530       $unwind$__vcrt_uninitialize_locks 0000000180052530     libvcruntime:locks.obj
 0002:0000c530       $unwind$__vcrt_freeptd     0000000180052530     libvcruntime:per_thread_data.obj
 0002:0000c530       $unwind$_CreateFrameInfo   0000000180052530     libvcruntime:risctrnsctrl.obj
 0002:0000c530       $unwind$_SetImageBase      0000000180052530     libvcruntime:risctrnsctrl.obj
 0002:0000c530       $unwind$_SetThrowImageBase 0000000180052530     libvcruntime:risctrnsctrl.obj
 0002:0000c530       $unwind$__std_exception_destroy 0000000180052530     libvcruntime:std_exception.obj
 0002:0000c530       $unwind$__std_type_info_destroy_list 0000000180052530     libvcruntime:std_type_info.obj
 0002:0000c530       $unwind$??$?0$00@DName@@QEAA@PEBDU?$StringLifeSelector@$00@@@Z 0000000180052530     libvcruntime:undname.obj
 0002:0000c530       $unwind$??$?0$01@DName@@QEAA@PEBDU?$StringLifeSelector@$01@@@Z 0000000180052530     libvcruntime:undname.obj
 0002:0000c530       $unwind$??$?0$0A@@DName@@QEAA@PEBDU?$StringLifeSelector@$0A@@@@Z 0000000180052530     libvcruntime:undname.obj
 0002:0000c530       $unwind$??0DName@@QEAA@AEBUStringLiteral@@@Z 0000000180052530     libvcruntime:undname.obj
 0002:0000c530       $unwind$??HDName@@QEBA?AV0@AEBUStringLiteral@@@Z 0000000180052530     libvcruntime:undname.obj
 0002:0000c530       $unwind$??HDName@@QEBA?AV0@AEBV0@@Z 0000000180052530     libvcruntime:undname.obj
 0002:0000c530       $unwind$??HDName@@QEBA?AV0@D@Z 0000000180052530     libvcruntime:undname.obj
 0002:0000c530       $unwind$??HDName@@QEBA?AV0@W4DNameStatus@@@Z 0000000180052530     libvcruntime:undname.obj
 0002:0000c530       $unwind$??YDName@@QEAAAEAV0@AEBV0@@Z 0000000180052530     libvcruntime:undname.obj
 0002:0000c530       $unwind$??YDName@@QEAAAEAV0@W4DNameStatus@@@Z 0000000180052530     libvcruntime:undname.obj
 0002:0000c530       $unwind$?getLastChar@pairNode@@UEBADXZ 0000000180052530     libvcruntime:undname.obj
 0002:0000c530       $unwind$?getReturnType@UnDecorator@@CA?AVDName@@PEAV2@@Z 0000000180052530     libvcruntime:undname.obj
 0002:0000c530       $unwind$?getStringObject@UnDecorator@@CA?AVDName@@XZ 0000000180052530     libvcruntime:undname.obj
 0002:0000c530       $unwind$?getSymbolName@UnDecorator@@CA?AVDName@@XZ 0000000180052530     libvcruntime:undname.obj
 0002:0000c530       $unwind$?getValue@UnDecorator@@CA?AV?$optional@_K@std@@XZ 0000000180052530     libvcruntime:undname.obj
 0002:0000c530       $unwind$__vcrt_FlsAlloc    0000000180052530     libvcruntime:winapi_downlevel.obj
 0002:0000c530       $unwind$__vcrt_FlsFree     0000000180052530     libvcruntime:winapi_downlevel.obj
 0002:0000c530       $unwind$__vcrt_FlsGetValue 0000000180052530     libvcruntime:winapi_downlevel.obj
 0002:0000c530       $unwind$_calloc_base       0000000180052530     libucrt:calloc_base.obj
 0002:0000c530       $unwind$_malloc_base       0000000180052530     libucrt:malloc_base.obj
 0002:0000c530       $unwind$_callnewh          0000000180052530     libucrt:new_handler.obj
 0002:0000c530       $unwind$initialize_pointers 0000000180052530     libucrt:initialization.obj
 0002:0000c530       $unwind$uninitialize_allocated_memory 0000000180052530     libucrt:initialization.obj
 0002:0000c530       $unwind$__acrt_initialize_locks 0000000180052530     libucrt:locks.obj
 0002:0000c530       $unwind$__acrt_uninitialize_locks 0000000180052530     libucrt:locks.obj
 0002:0000c530       $unwind$__acrt_freeptd     0000000180052530     libucrt:per_thread_data.obj
 0002:0000c530       $unwind$__acrt_getptd_head 0000000180052530     libucrt:per_thread_data.obj
 0002:0000c530       $unwind$__acrt_get_process_end_policy 0000000180052530     libucrt:win_policies.obj
 0002:0000c530       $unwind$__acrt_AppPolicyGetProcessTerminationMethodInternal 0000000180052530     libucrt:winapi_thunks.obj
 0002:0000c530       $unwind$__acrt_FlsAlloc    0000000180052530     libucrt:winapi_thunks.obj
 0002:0000c530       $unwind$__acrt_FlsFree     0000000180052530     libucrt:winapi_thunks.obj
 0002:0000c530       $unwind$__acrt_FlsGetValue 0000000180052530     libucrt:winapi_thunks.obj
 0002:0000c530       $unwind$__acrt_uninitialize_winapi_thunks 0000000180052530     libucrt:winapi_thunks.obj
 0002:0000c530       $unwind$__acrt_update_locale_info 0000000180052530     libucrt:locale_update.obj
 0002:0000c530       $unwind$__acrt_update_multibyte_info 0000000180052530     libucrt:locale_update.obj
 0002:0000c530       $unwind$__acrt_allocate_buffer_for_argv 0000000180052530     libucrt:argv_parsing.obj
 0002:0000c530       $unwind$?exit_or_terminate_process@@YAXI@Z 0000000180052530     libucrt:exit.obj
 0002:0000c530       $unwind$?try_cor_exit_process@@YAXI@Z 0000000180052530     libucrt:exit.obj
 0002:0000c530       $unwind$__acrt_uninitialize_stdio 0000000180052530     libucrt:_file.obj
 0002:0000c530       $unwind$__acrt_stdio_free_buffer_nolock 0000000180052530     libucrt:_freebuf.obj
 0002:0000c530       $unwind$_fflush_nolock     0000000180052530     libucrt:fflush.obj
 0002:0000c530       $unwind$?state_case_normal@?$output_processor@DV?$string_output_adapter@D@__crt_stdio_output@@V?$format_validation_base@DV?$string_output_adapter@D@__crt_stdio_output@@@2@@__crt_stdio_output@@AEAA_NXZ 0000000180052530     libucrt:output.obj
 0002:0000c530       $unwind$?type_case_s@?$output_processor@DV?$string_output_adapter@D@__crt_stdio_output@@V?$format_validation_base@DV?$string_output_adapter@D@__crt_stdio_output@@@2@@__crt_stdio_output@@AEAA_NXZ 0000000180052530     libucrt:output.obj
 0002:0000c530       $unwind$strcpy_s           0000000180052530     libucrt:strcpy_s.obj
 0002:0000c530       $unwind$_clrfp             0000000180052530     libucrt:fpctrl.obj
 0002:0000c530       $unwind$_set_statfp        0000000180052530     libucrt:fpctrl.obj
 0002:0000c530       $unwind$_clearfp           0000000180052530     libucrt:ieee.obj
 0002:0000c530       $unwind$_controlfp_s       0000000180052530     libucrt:contrlfp.obj
 0002:0000c530       $unwind$fegetenv           0000000180052530     libucrt:fegetenv.obj
 0002:0000c530       $unwind$feholdexcept       0000000180052530     libucrt:feholdexcept.obj
 0002:0000c530       $unwind$fesetenv           0000000180052530     libucrt:fesetenv.obj
 0002:0000c538       $chain$0$??_EPxFoundation@physx@@MEAAPEAXI@Z 0000000180052538     Adjacencies.obj
 0002:0000c54c       $chain$1$??_EPxFoundation@physx@@MEAAPEAXI@Z 000000018005254c     Adjacencies.obj
 0002:0000c55c       $chain$0$??1Adjacencies@physx@@QEAA@XZ 000000018005255c     Adjacencies.obj
 0002:0000c570       $chain$2$??1Adjacencies@physx@@QEAA@XZ 0000000180052570     Adjacencies.obj
 0002:0000c584       $chain$3$??1Adjacencies@physx@@QEAA@XZ 0000000180052584     Adjacencies.obj
 0002:0000c594       $unwind$?Init@AdjacenciesBuilder@physx@@QEAA_NAEBUADJACENCIESCREATE@2@@Z 0000000180052594     Adjacencies.obj
 0002:0000c5a8       $chain$2$?Init@AdjacenciesBuilder@physx@@QEAA_NAEBUADJACENCIESCREATE@2@@Z 00000001800525a8     Adjacencies.obj
 0002:0000c5bc       $chain$3$?Init@AdjacenciesBuilder@physx@@QEAA_NAEBUADJACENCIESCREATE@2@@Z 00000001800525bc     Adjacencies.obj
 0002:0000c5d0       $chain$4$?Init@AdjacenciesBuilder@physx@@QEAA_NAEBUADJACENCIESCREATE@2@@Z 00000001800525d0     Adjacencies.obj
 0002:0000c5e0       $chain$5$?Init@AdjacenciesBuilder@physx@@QEAA_NAEBUADJACENCIESCREATE@2@@Z 00000001800525e0     Adjacencies.obj
 0002:0000c5f0       $unwind$??$?_UV?$ReflectionAllocator@VAdjTriangle@physx@@@shdfnd@physx@@@UserAllocated@shdfnd@physx@@SAPEAX_KV?$ReflectionAllocator@VAdjTriangle@physx@@@12@PEBDH@Z 00000001800525f0     Adjacencies.obj
 0002:0000c5f0       $unwind$??$?_UE@@YAPEAX_KV?$ReflectionAllocator@E@shdfnd@physx@@PEBDH@Z 00000001800525f0     ConvexHullBuilder.obj
 0002:0000c5f0       $unwind$??$?_UI@@YAPEAX_KV?$ReflectionAllocator@I@shdfnd@physx@@PEBDH@Z 00000001800525f0     EdgeList.obj
 0002:0000c5f0       $unwind$?allocate@?$ReflectionAllocator@I@shdfnd@physx@@QEAAPEAX_KPEBDH@Z 00000001800525f0     RTreeCooking.obj
 0002:0000c5f0       $unwind$??$?_UG@@YAPEAX_KV?$ReflectionAllocator@G@shdfnd@physx@@PEBDH@Z 00000001800525f0     TriangleMeshBuilder.obj
 0002:0000c600       $chain$0$??$?_UV?$ReflectionAllocator@VAdjTriangle@physx@@@shdfnd@physx@@@UserAllocated@shdfnd@physx@@SAPEAX_KV?$ReflectionAllocator@VAdjTriangle@physx@@@12@PEBDH@Z 0000000180052600     Adjacencies.obj
 0002:0000c614       $chain$1$??$?_UV?$ReflectionAllocator@VAdjTriangle@physx@@@shdfnd@physx@@@UserAllocated@shdfnd@physx@@SAPEAX_KV?$ReflectionAllocator@VAdjTriangle@physx@@@12@PEBDH@Z 0000000180052614     Adjacencies.obj
 0002:0000c624       $unwind$?UpdateLink@@YA_NIIIIPEAVAdjTriangle@physx@@AEBUADJACENCIESCREATE@2@@Z 0000000180052624     Adjacencies.obj
 0002:0000c630       $chain$3$?UpdateLink@@YA_NIIIIPEAVAdjTriangle@physx@@AEBUADJACENCIESCREATE@2@@Z 0000000180052630     Adjacencies.obj
 0002:0000c650       $chain$5$?UpdateLink@@YA_NIIIIPEAVAdjTriangle@physx@@AEBUADJACENCIESCREATE@2@@Z 0000000180052650     Adjacencies.obj
 0002:0000c668       $chain$6$?UpdateLink@@YA_NIIIIPEAVAdjTriangle@physx@@AEBUADJACENCIESCREATE@2@@Z 0000000180052668     Adjacencies.obj
 0002:0000c678       $chain$7$?UpdateLink@@YA_NIIIIPEAVAdjTriangle@physx@@AEBUADJACENCIESCREATE@2@@Z 0000000180052678     Adjacencies.obj
 0002:0000c690       $chain$8$?UpdateLink@@YA_NIIIIPEAVAdjTriangle@physx@@AEBUADJACENCIESCREATE@2@@Z 0000000180052690     Adjacencies.obj
 0002:0000c6a0       $unwind$?CreateDatabase@@YA_NPEAVAdjTriangle@physx@@IPEBVAdjEdge@@AEBUADJACENCIESCREATE@2@@Z 00000001800526a0     Adjacencies.obj
 0002:0000c6bc       $unwind$?getTransform@Box@Gu@physx@@QEBA?AVPxTransform@3@XZ 00000001800526bc     ConvexHullUtils.obj
 0002:0000c6bc       $unwind$PxCreateCooking    00000001800526bc     Cooking.obj
 0002:0000c6c8       $unwind$?release@Cooking@physx@@UEAAXXZ 00000001800526c8     Cooking.obj
 0002:0000c6c8       $unwind$?cookingDelayHook@@YAP6A_JXZIPEAUDelayLoadInfo@@@Z 00000001800526c8     WindowsCookingDelayLoadHook.obj
 0002:0000c6c8       $unwind$?DloadReleaseSectionWriteAccess@@YAXXZ 00000001800526c8     Delayimp:delayhlp.obj
 0002:0000c6c8       $unwind$__scrt_initialize_default_local_stdio_options 00000001800526c8     LIBCMT:default_local_stdio_options.obj
 0002:0000c6c8       $unwind$?dllmain_crt_dispatch@@YAHQEAUHINSTANCE__@@KQEAX@Z 00000001800526c8     LIBCMT:dll_dllmain.obj
 0002:0000c6c8       $unwind$__report_rangecheckfailure 00000001800526c8     LIBCMT:gs_report.obj
 0002:0000c6c8       $unwind$__GSHandlerCheck   00000001800526c8     LIBCMT:gshandler.obj
 0002:0000c6c8       $unwind$__scrt_acquire_startup_lock 00000001800526c8     LIBCMT:utility.obj
 0002:0000c6c8       $unwind$__scrt_dllmain_after_initialize_c 00000001800526c8     LIBCMT:utility.obj
 0002:0000c6c8       $unwind$__scrt_dllmain_before_initialize_c 00000001800526c8     LIBCMT:utility.obj
 0002:0000c6c8       $unwind$__scrt_dllmain_crt_thread_attach 00000001800526c8     LIBCMT:utility.obj
 0002:0000c6c8       $unwind$__scrt_dllmain_crt_thread_detach 00000001800526c8     LIBCMT:utility.obj
 0002:0000c6c8       $unwind$__scrt_dllmain_uninitialize_c 00000001800526c8     LIBCMT:utility.obj
 0002:0000c6c8       $unwind$__scrt_dllmain_uninitialize_critical 00000001800526c8     LIBCMT:utility.obj
 0002:0000c6c8       $unwind$__vcrt_initialize  00000001800526c8     libvcruntime:initialization.obj
 0002:0000c6c8       $unwind$__vcrt_thread_attach 00000001800526c8     libvcruntime:initialization.obj
 0002:0000c6c8       $unwind$__vcrt_thread_detach 00000001800526c8     libvcruntime:initialization.obj
 0002:0000c6c8       $unwind$__vcrt_uninitialize 00000001800526c8     libvcruntime:initialization.obj
 0002:0000c6c8       $unwind$__vcrt_uninitialize_critical 00000001800526c8     libvcruntime:initialization.obj
 0002:0000c6c8       $unwind$__vcrt_initialize_locks 00000001800526c8     libvcruntime:locks.obj
 0002:0000c6c8       $unwind$__vcrt_freefls     00000001800526c8     libvcruntime:per_thread_data.obj
 0002:0000c6c8       $unwind$__vcrt_getptd      00000001800526c8     libvcruntime:per_thread_data.obj
 0002:0000c6c8       $unwind$__vcrt_initialize_ptd 00000001800526c8     libvcruntime:per_thread_data.obj
 0002:0000c6c8       $unwind$__vcrt_uninitialize_ptd 00000001800526c8     libvcruntime:per_thread_data.obj
 0002:0000c6c8       $unwind$_purecall          00000001800526c8     libvcruntime:purevirt.obj
 0002:0000c6c8       $unwind$?FrameUnwindToEmptyState@__FrameHandler4@@SAXPEA_KPEAU_xDISPATCHER_CONTEXT@@PEAUFuncInfo4@FH4@@@Z 00000001800526c8     libvcruntime:risctrnsctrl.obj
 0002:0000c6c8       $unwind$_GetImageBase      00000001800526c8     libvcruntime:risctrnsctrl.obj
 0002:0000c6c8       $unwind$_GetThrowImageBase 00000001800526c8     libvcruntime:risctrnsctrl.obj
 0002:0000c6c8       $unwind$?getLastChar@pDNameNode@@UEBADXZ 00000001800526c8     libvcruntime:undname.obj
 0002:0000c6c8       $unwind$?getString@pDNameNode@@UEBAPEADPEAD0@Z 00000001800526c8     libvcruntime:undname.obj
 0002:0000c6c8       $unwind$?getTypeEncoding@UnDecorator@@CAHXZ 00000001800526c8     libvcruntime:undname.obj
 0002:0000c6c8       $unwind$?length@pDNameNode@@UEBAHXZ 00000001800526c8     libvcruntime:undname.obj
 0002:0000c6c8       $unwind$__dcrt_terminate_console_output 00000001800526c8     libucrt:initcon.obj
 0002:0000c6c8       $unwind$??$uninitialize_environment_internal@D@@YAXAEAPEAPEAD@Z 00000001800526c8     libucrt:environment_initialization.obj
 0002:0000c6c8       $unwind$??$uninitialize_environment_internal@_W@@YAXAEAPEAPEA_W@Z 00000001800526c8     libucrt:environment_initialization.obj
 0002:0000c6c8       $unwind$__dcrt_uninitialize_environments_nolock 00000001800526c8     libucrt:environment_initialization.obj
 0002:0000c6c8       $unwind$?__c32rtomb_utf8@__crt_mbstring@@YA_KPEAD_UPEAU_Mbstatet@@@Z 00000001800526c8     libucrt:c32rtomb.obj
 0002:0000c6c8       $unwind$__acrt_initialize_heap 00000001800526c8     libucrt:heap_handle.obj
 0002:0000c6c8       $unwind$_msize_base        00000001800526c8     libucrt:msize.obj
 0002:0000c6c8       $unwind$?initialize_multibyte@@YAHXZ 00000001800526c8     libucrt:multibyte_initializer.obj
 0002:0000c6c8       $unwind$__acrt_thread_attach 00000001800526c8     libucrt:initialization.obj
 0002:0000c6c8       $unwind$__acrt_thread_detach 00000001800526c8     libucrt:initialization.obj
 0002:0000c6c8       $unwind$__acrt_uninitialize 00000001800526c8     libucrt:initialization.obj
 0002:0000c6c8       $unwind$__acrt_uninitialize_critical 00000001800526c8     libucrt:initialization.obj
 0002:0000c6c8       $unwind$initialize_c       00000001800526c8     libucrt:initialization.obj
 0002:0000c6c8       $unwind$uninitialize_allocated_io_buffers 00000001800526c8     libucrt:initialization.obj
 0002:0000c6c8       $unwind$uninitialize_environment 00000001800526c8     libucrt:initialization.obj
 0002:0000c6c8       $unwind$__acrt_initialize_ptd 00000001800526c8     libucrt:per_thread_data.obj
 0002:0000c6c8       $unwind$__acrt_uninitialize_ptd 00000001800526c8     libucrt:per_thread_data.obj
 0002:0000c6c8       $unwind$__acrt_AreFileApisANSI 00000001800526c8     libucrt:winapi_thunks.obj
 0002:0000c6c8       $unwind$__pctype_func      00000001800526c8     libucrt:ctype.obj
 0002:0000c6c8       $unwind$__acrt_release_locale_ref 00000001800526c8     libucrt:locale_refcounting.obj
 0002:0000c6c8       $unwind$_isatty            00000001800526c8     libucrt:isatty.obj
 0002:0000c6c8       $unwind$_get_osfhandle     00000001800526c8     libucrt:osfinfo.obj
 0002:0000c6c8       $unwind$__acrt_initialize_multibyte 00000001800526c8     libucrt:mbctype.obj
 0002:0000c6c8       $unwind$__acrt_update_thread_multibyte_data 00000001800526c8     libucrt:mbctype.obj
 0002:0000c6c8       $unwind$__doserrno         00000001800526c8     libucrt:errno.obj
 0002:0000c6c8       $unwind$_errno             00000001800526c8     libucrt:errno.obj
 0002:0000c6c8       $unwind$_invoke_watson     00000001800526c8     libucrt:invalid_parameter.obj
 0002:0000c6c8       $unwind$abort              00000001800526c8     libucrt:abort.obj
 0002:0000c6c8       $unwind$__acrt_initialize_command_line 00000001800526c8     libucrt:argv_data.obj
 0002:0000c6c8       $unwind$_fileno            00000001800526c8     libucrt:fileno.obj
 0002:0000c6c8       $unwind$?state_case_normal_tchar@?$output_processor@DV?$string_output_adapter@D@__crt_stdio_output@@V?$format_validation_base@DV?$string_output_adapter@D@__crt_stdio_output@@@2@@__crt_stdio_output@@AEAA_ND@Z 00000001800526c8     libucrt:output.obj
 0002:0000c6c8       $unwind$?state_case_size@?$output_processor@DV?$string_output_adapter@D@__crt_stdio_output@@V?$format_validation_base@DV?$string_output_adapter@D@__crt_stdio_output@@@2@@__crt_stdio_output@@AEAA_NXZ 00000001800526c8     libucrt:output.obj
 0002:0000c6c8       $unwind$_statfp            00000001800526c8     libucrt:fpctrl.obj
 0002:0000c6c8       $unwind$fegetround         00000001800526c8     libucrt:fegetround.obj
 0002:0000c6c8       $unwind$_set_errno_from_matherr 00000001800526c8     libucrt:fpexcept.obj
 0002:0000c6d0       $unwind$?cookConvexMesh@Cooking@physx@@UEBA_NAEBVPxConvexMeshDesc@2@AEAVPxOutputStream@2@PEAW4Enum@PxConvexMeshCookingResult@2@@Z 00000001800526d0     Cooking.obj
 0002:0000c6d0       $unwind$?cookTriangleMesh@Cooking@physx@@UEBA_NAEBVPxTriangleMeshDesc@2@AEAVPxOutputStream@2@PEAW4Enum@PxTriangleMeshCookingResult@2@@Z 00000001800526d0     Cooking.obj
 0002:0000c6d0       $unwind$?createTriangleMesh@Cooking@physx@@UEBAPEAVPxTriangleMesh@2@AEBVPxTriangleMeshDesc@2@AEAVPxPhysicsInsertionCallback@2@PEAW4Enum@PxTriangleMeshCookingResult@2@@Z 00000001800526d0     Cooking.obj
 0002:0000c6ec       $unwind$?validateTriangleMesh@Cooking@physx@@UEBA_NAEBVPxTriangleMeshDesc@2@@Z 00000001800526ec     Cooking.obj
 0002:0000c6fc       $unwind$?createConvexMesh@Cooking@physx@@UEBAPEAVPxConvexMesh@2@AEBVPxConvexMeshDesc@2@AEAVPxPhysicsInsertionCallback@2@PEAW4Enum@PxConvexMeshCookingResult@2@@Z 00000001800526fc     Cooking.obj
 0002:0000c718       $unwind$?validateConvexMesh@Cooking@physx@@UEBA_NAEBVPxConvexMeshDesc@2@@Z 0000000180052718     Cooking.obj
 0002:0000c728       $unwind$?computeHullPolygons@Cooking@physx@@UEBA_NAEBVPxSimpleTriangleMesh@2@AEAVPxAllocatorCallback@2@AEAIAEAPEAVPxVec3@2@2AEAPEAI2AEAPEAUPxHullPolygon@2@@Z 0000000180052728     Cooking.obj
 0002:0000c748       $unwind$?cookHeightField@Cooking@physx@@UEBA_NAEBVPxHeightFieldDesc@2@AEAVPxOutputStream@2@@Z 0000000180052748     Cooking.obj
 0002:0000c75c       $unwind$?createHeightField@Cooking@physx@@UEBAPEAVPxHeightField@2@AEBVPxHeightFieldDesc@2@AEAVPxPhysicsInsertionCallback@2@@Z 000000018005275c     Cooking.obj
 0002:0000c76c       $unwind$?cookBVHStructure@Cooking@physx@@UEBA_NAEBVPxBVHStructureDesc@2@AEAVPxOutputStream@2@@Z 000000018005276c     Cooking.obj
 0002:0000c77c       $unwind$?createBVHStructure@Cooking@physx@@UEBAPEAVPxBVHStructure@2@AEBVPxBVHStructureDesc@2@AEAVPxPhysicsInsertionCallback@2@@Z 000000018005277c     Cooking.obj
 0002:0000c77c       $unwind$?DloadMakePermanentImageCommit@@YAXPEAX_K@Z 000000018005277c     Delayimp:delayhlp.obj
 0002:0000c788       $unwind$?cookConvexMeshInternal@Cooking@physx@@AEBA_NAEBVPxConvexMeshDesc@2@AEAVConvexMeshBuilder@2@PEAVConvexHullLib@2@PEAW4Enum@PxConvexMeshCookingResult@2@@Z 0000000180052788     Cooking.obj
 0002:0000c79c       $chain$1$?cookConvexMeshInternal@Cooking@physx@@AEBA_NAEBVPxConvexMeshDesc@2@AEAVConvexMeshBuilder@2@PEAVConvexHullLib@2@PEAW4Enum@PxConvexMeshCookingResult@2@@Z 000000018005279c     Cooking.obj
 0002:0000c7b0       $chain$2$?cookConvexMeshInternal@Cooking@physx@@AEBA_NAEBVPxConvexMeshDesc@2@AEAVConvexMeshBuilder@2@PEAVConvexHullLib@2@PEAW4Enum@PxConvexMeshCookingResult@2@@Z 00000001800527b0     Cooking.obj
 0002:0000c7c0       $chain$3$?cookConvexMeshInternal@Cooking@physx@@AEBA_NAEBVPxConvexMeshDesc@2@AEAVConvexMeshBuilder@2@PEAVConvexHullLib@2@PEAW4Enum@PxConvexMeshCookingResult@2@@Z 00000001800527c0     Cooking.obj
 0002:0000c7d4       $unwind$?allocate@?$Array@USlab@NodeAllocator@Gu@physx@@V?$ReflectionAllocator@USlab@NodeAllocator@Gu@physx@@@shdfnd@4@@shdfnd@physx@@IEAAPEAUSlab@NodeAllocator@Gu@3@I@Z 00000001800527d4     BVHStructureBuilder.obj
 0002:0000c7d4       $unwind$?allocate@?$Array@VHalfEdge@ConvexHull@physx@@V?$ReflectionAllocator@VHalfEdge@ConvexHull@physx@@@shdfnd@3@@shdfnd@physx@@IEAAPEAVHalfEdge@ConvexHull@3@I@Z 00000001800527d4     ConvexHullUtils.obj
 0002:0000c7d4       $unwind$?allocate@?$Array@VPxPlane@physx@@V?$ReflectionAllocator@VPxPlane@physx@@@shdfnd@2@@shdfnd@physx@@IEAAPEAVPxPlane@3@I@Z 00000001800527d4     ConvexHullUtils.obj
 0002:0000c7d4       $unwind$?computeBoxPoints@Box@Gu@physx@@QEBAXPEIAVPxVec3@3@@Z 00000001800527d4     ConvexHullUtils.obj
 0002:0000c7d4       $unwind$?allocate@?$Array@VPair@@V?$ReflectionAllocator@VPair@@@shdfnd@physx@@@shdfnd@physx@@IEAAPEAVPair@@I@Z 00000001800527d4     ConvexPolygonsBuilder.obj
 0002:0000c7d4       $unwind$?allocate@?$Array@UPxDebugLine@physx@@V?$ReflectionAllocator@UPxDebugLine@physx@@@shdfnd@2@@shdfnd@physx@@IEAAPEAUPxDebugLine@3@I@Z 00000001800527d4     Cooking.obj
 0002:0000c7d4       $unwind$?allocate@?$Array@PEAUQuickHullFace@local@@V?$ReflectionAllocator@PEAUQuickHullFace@local@@@shdfnd@physx@@@shdfnd@physx@@IEAAPEAPEAUQuickHullFace@local@@I@Z 00000001800527d4     QuickHullConvexHullLib.obj
 0002:0000c7d4       $unwind$?allocate@?$Array@PEAUQuickHullHalfEdge@local@@V?$ReflectionAllocator@PEAUQuickHullHalfEdge@local@@@shdfnd@physx@@@shdfnd@physx@@IEAAPEAPEAUQuickHullHalfEdge@local@@I@Z 00000001800527d4     QuickHullConvexHullLib.obj
 0002:0000c7d4       $unwind$?allocate@?$Array@PEAUQuickHullVertex@local@@V?$ReflectionAllocator@PEAUQuickHullVertex@local@@@shdfnd@physx@@@shdfnd@physx@@IEAAPEAPEAUQuickHullVertex@local@@I@Z 00000001800527d4     QuickHullConvexHullLib.obj
 0002:0000c7d4       $unwind$?allocate@?$Array@UExpandPoint@local@@V?$ReflectionAllocator@UExpandPoint@local@@@shdfnd@physx@@@shdfnd@physx@@IEAAPEAUExpandPoint@local@@I@Z 00000001800527d4     QuickHullConvexHullLib.obj
 0002:0000c7d4       $unwind$?allocate@?$Array@UInterval@physx@@V?$InlineAllocator@$0CAAA@V?$ReflectionAllocator@UInterval@physx@@@shdfnd@physx@@@shdfnd@2@@shdfnd@physx@@IEAAPEAUInterval@3@I@Z 00000001800527d4     RTreeCooking.obj
 0002:0000c7d4       $unwind$?allocate@?$Array@UPxBounds3V@physx@@V?$ReflectionAllocator@UPxBounds3V@physx@@@shdfnd@2@@shdfnd@physx@@IEAAPEAUPxBounds3V@3@I@Z 00000001800527d4     RTreeCooking.obj
 0002:0000c7d4       $unwind$?allocate@?$Array@URTreeNodeNQ@physx@@V?$ReflectionAllocator@URTreeNodeNQ@physx@@@shdfnd@2@@shdfnd@physx@@IEAAPEAURTreeNodeNQ@3@I@Z 00000001800527d4     RTreeCooking.obj
 0002:0000c7d4       $unwind$?allocate@?$Array@URTreeNodeQ@Gu@physx@@V?$ReflectionAllocator@URTreeNodeQ@Gu@physx@@@shdfnd@3@@shdfnd@physx@@IEAAPEAURTreeNodeQ@Gu@3@I@Z 00000001800527d4     RTreeCooking.obj
 0002:0000c7d4       $unwind$?allocate@?$Array@VPxVec3@physx@@V?$ReflectionAllocator@VPxVec3@physx@@@shdfnd@2@@shdfnd@physx@@IEAAPEAVPxVec3@3@I@Z 00000001800527d4     RTreeCooking.obj
 0002:0000c7d4       $unwind$atol               00000001800527d4     libucrt:atox.obj
 0002:0000c7d4       $unwind$strtol             00000001800527d4     libucrt:strtox.obj
 0002:0000c7d4       $unwind$_invalid_parameter_noinfo 00000001800527d4     libucrt:invalid_parameter.obj
 0002:0000c7d4       $unwind$_log10_special     00000001800527d4     libucrt:log_special.obj
 0002:0000c7dc       $chain$1$?allocate@?$Array@UPxDebugLine@physx@@V?$ReflectionAllocator@UPxDebugLine@physx@@@shdfnd@2@@shdfnd@physx@@IEAAPEAUPxDebugLine@3@I@Z 00000001800527dc     Cooking.obj
 0002:0000c7f4       $chain$3$?allocate@?$Array@UPxDebugLine@physx@@V?$ReflectionAllocator@UPxDebugLine@physx@@@shdfnd@2@@shdfnd@physx@@IEAAPEAUPxDebugLine@3@I@Z 00000001800527f4     Cooking.obj
 0002:0000c808       $chain$4$?allocate@?$Array@UPxDebugLine@physx@@V?$ReflectionAllocator@UPxDebugLine@physx@@@shdfnd@2@@shdfnd@physx@@IEAAPEAUPxDebugLine@3@I@Z 0000000180052808     Cooking.obj
 0002:0000c818       $unwind$?recreate@?$Array@USlab@NodeAllocator@Gu@physx@@V?$ReflectionAllocator@USlab@NodeAllocator@Gu@physx@@@shdfnd@4@@shdfnd@physx@@IEAAXI@Z 0000000180052818     BVHStructureBuilder.obj
 0002:0000c818       $unwind$?recreate@?$Array@VHalfEdge@ConvexHull@physx@@V?$ReflectionAllocator@VHalfEdge@ConvexHull@physx@@@shdfnd@3@@shdfnd@physx@@IEAAXI@Z 0000000180052818     ConvexHullUtils.obj
 0002:0000c818       $unwind$?recreate@?$Array@VPxPlane@physx@@V?$ReflectionAllocator@VPxPlane@physx@@@shdfnd@2@@shdfnd@physx@@IEAAXI@Z 0000000180052818     ConvexHullUtils.obj
 0002:0000c818       $unwind$?copy@ConvexMeshBuilder@physx@@QEAA_NAEAUConvexHullInitData@Gu@2@@Z 0000000180052818     ConvexMeshBuilder.obj
 0002:0000c818       $unwind$?recreate@?$Array@UPxDebugLine@physx@@V?$ReflectionAllocator@UPxDebugLine@physx@@@shdfnd@2@@shdfnd@physx@@IEAAXI@Z 0000000180052818     Cooking.obj
 0002:0000c818       $unwind$?recreate@?$Array@PEAUQuickHullFace@local@@V?$ReflectionAllocator@PEAUQuickHullFace@local@@@shdfnd@physx@@@shdfnd@physx@@IEAAXI@Z 0000000180052818     QuickHullConvexHullLib.obj
 0002:0000c818       $unwind$?recreate@?$Array@PEAUQuickHullHalfEdge@local@@V?$ReflectionAllocator@PEAUQuickHullHalfEdge@local@@@shdfnd@physx@@@shdfnd@physx@@IEAAXI@Z 0000000180052818     QuickHullConvexHullLib.obj
 0002:0000c818       $unwind$?recreate@?$Array@PEAUQuickHullVertex@local@@V?$ReflectionAllocator@PEAUQuickHullVertex@local@@@shdfnd@physx@@@shdfnd@physx@@IEAAXI@Z 0000000180052818     QuickHullConvexHullLib.obj
 0002:0000c818       $unwind$?recreate@?$Array@UExpandPoint@local@@V?$ReflectionAllocator@UExpandPoint@local@@@shdfnd@physx@@@shdfnd@physx@@IEAAXI@Z 0000000180052818     QuickHullConvexHullLib.obj
 0002:0000c818       $unwind$?recreate@?$Array@IV?$ReflectionAllocator@I@shdfnd@physx@@@shdfnd@physx@@IEAAXI@Z 0000000180052818     RTreeCooking.obj
 0002:0000c818       $unwind$?recreate@?$Array@UPxBounds3V@physx@@V?$ReflectionAllocator@UPxBounds3V@physx@@@shdfnd@2@@shdfnd@physx@@IEAAXI@Z 0000000180052818     RTreeCooking.obj
 0002:0000c818       $unwind$?recreate@?$Array@URTreeNodeNQ@physx@@V?$ReflectionAllocator@URTreeNodeNQ@physx@@@shdfnd@2@@shdfnd@physx@@IEAAXI@Z 0000000180052818     RTreeCooking.obj
 0002:0000c818       $unwind$?recreate@?$Array@URTreeNodeQ@Gu@physx@@V?$ReflectionAllocator@URTreeNodeQ@Gu@physx@@@shdfnd@3@@shdfnd@physx@@IEAAXI@Z 0000000180052818     RTreeCooking.obj
 0002:0000c818       $unwind$?recreate@?$Array@VPxVec3@physx@@V?$ReflectionAllocator@VPxVec3@physx@@@shdfnd@2@@shdfnd@physx@@IEAAXI@Z 0000000180052818     RTreeCooking.obj
 0002:0000c828       $chain$0$?recreate@?$Array@UPxDebugLine@physx@@V?$ReflectionAllocator@UPxDebugLine@physx@@@shdfnd@2@@shdfnd@physx@@IEAAXI@Z 0000000180052828     Cooking.obj
 0002:0000c83c       $chain$1$?recreate@?$Array@UPxDebugLine@physx@@V?$ReflectionAllocator@UPxDebugLine@physx@@@shdfnd@2@@shdfnd@physx@@IEAAXI@Z 000000018005283c     Cooking.obj
 0002:0000c84c       $unwind$??$copy@V?$ReflectionAllocator@USlab@NodeAllocator@Gu@physx@@@shdfnd@physx@@@?$Array@USlab@NodeAllocator@Gu@physx@@V?$ReflectionAllocator@USlab@NodeAllocator@Gu@physx@@@shdfnd@4@@shdfnd@physx@@IEAAXAEBV012@@Z 000000018005284c     BVHStructureBuilder.obj
 0002:0000c84c       $unwind$??0NodeAllocator@Gu@physx@@QEAA@AEBV012@@Z 000000018005284c     BVHStructureBuilder.obj
 0002:0000c84c       $unwind$??1ConvexHullLib@physx@@UEAA@XZ 000000018005284c     ConvexHullLib.obj
 0002:0000c84c       $unwind$??1ConvexMeshBuilder@physx@@QEAA@XZ 000000018005284c     ConvexMeshBuilder.obj
 0002:0000c84c       $unwind$??$copy@V?$ReflectionAllocator@VPair@@@shdfnd@physx@@@?$Array@VPair@@V?$ReflectionAllocator@VPair@@@shdfnd@physx@@@shdfnd@physx@@IEAAXAEBV012@@Z 000000018005284c     ConvexPolygonsBuilder.obj
 0002:0000c84c       $unwind$??1ConvexPolygonsBuilder@physx@@QEAA@XZ 000000018005284c     ConvexPolygonsBuilder.obj
 0002:0000c84c       $unwind$?reserveSegments@RenderOutput@Cm@physx@@QEAAPEAUPxDebugLine@3@I@Z 000000018005284c     Cooking.obj
 0002:0000c84c       $unwind$?Clean@ReducedVertexCloud@physx@@QEAAAEAV12@XZ 000000018005284c     CookingUtils.obj
 0002:0000c84c       $unwind$?computeLocalBounds@MeshBulider@physx@@IEAAXAEAVMeshDataBase@Gu@2@@Z 000000018005284c     MeshBuilder.obj
 0002:0000c84c       $unwind$??1QuickHull@local@@QEAA@XZ 000000018005284c     QuickHullConvexHullLib.obj
 0002:0000c84c       $unwind$?fillConvexMeshDesc@QuickHullConvexHullLib@physx@@UEAAXAEAVPxConvexMeshDesc@2@@Z 000000018005284c     QuickHullConvexHullLib.obj
 0002:0000c84c       $unwind$?resizeUninitialized@?$Array@URTreeNodeNQ@physx@@V?$ReflectionAllocator@URTreeNodeNQ@physx@@@shdfnd@2@@shdfnd@physx@@QEAAXI@Z 000000018005284c     RTreeCooking.obj
 0002:0000c84c       $unwind$??0BV4TriangleMeshBuilder@physx@@QEAA@AEBUPxCookingParams@1@@Z 000000018005284c     TriangleMeshBuilder.obj
 0002:0000c84c       $unwind$??1BV4TriangleMeshBuilder@physx@@UEAA@XZ 000000018005284c     TriangleMeshBuilder.obj
 0002:0000c84c       $unwind$??1TriangleMeshBuilder@physx@@UEAA@XZ 000000018005284c     TriangleMeshBuilder.obj
 0002:0000c84c       $unwind$??1TriangleMeshData@Gu@physx@@UEAA@XZ 000000018005284c     TriangleMeshBuilder.obj
 0002:0000c84c       $unwind$??_GBV4TriangleData@Gu@physx@@UEAAPEAXI@Z 000000018005284c     TriangleMeshBuilder.obj
 0002:0000c84c       $unwind$??_GMeshDataBase@Gu@physx@@UEAAPEAXI@Z 000000018005284c     TriangleMeshBuilder.obj
 0002:0000c84c       $unwind$??_GRTreeTriangleData@Gu@physx@@UEAAPEAXI@Z 000000018005284c     TriangleMeshBuilder.obj
 0002:0000c84c       $unwind$??_GRTreeTriangleMeshBuilder@physx@@UEAAPEAXI@Z 000000018005284c     TriangleMeshBuilder.obj
 0002:0000c84c       $unwind$??_GTriangleMeshBuilder@physx@@UEAAPEAXI@Z 000000018005284c     TriangleMeshBuilder.obj
 0002:0000c84c       $unwind$??_GTriangleMeshData@Gu@physx@@UEAAPEAXI@Z 000000018005284c     TriangleMeshBuilder.obj
 0002:0000c84c       $unwind$?DloadGetSRWLockFunctionPointers@@YAEXZ 000000018005284c     Delayimp:delayhlp.obj
 0002:0000c84c       $unwind$_RTC_Initialize    000000018005284c     LIBCMT:initsect.obj
 0002:0000c84c       $unwind$_RTC_Terminate     000000018005284c     LIBCMT:initsect.obj
 0002:0000c84c       $unwind$__FrameUnwindFilter 000000018005284c     libvcruntime:ehhelpers.obj
 0002:0000c84c       $unwind$??_Gbad_exception@std@@UEAAPEAXI@Z 000000018005284c     libvcruntime:frame.obj
 0002:0000c84c       $unwind$??_Gexception@std@@UEAAPEAXI@Z 000000018005284c     libvcruntime:frame.obj
 0002:0000c84c       $unwind$?ExFilterRethrowFH4@@YAHPEAU_EXCEPTION_POINTERS@@PEAUEHExceptionRecord@@HPEAH@Z 000000018005284c     libvcruntime:frame.obj
 0002:0000c84c       $unwind$_FindAndUnlinkFrame 000000018005284c     libvcruntime:risctrnsctrl.obj
 0002:0000c84c       $unwind$??$append@VDNameNode@@@DName@@AEAAXPEBVDNameNode@@@Z 000000018005284c     libvcruntime:undname.obj
 0002:0000c84c       $unwind$??$append@VDNameStatusNode@@@DName@@AEAAXPEBVDNameStatusNode@@@Z 000000018005284c     libvcruntime:undname.obj
 0002:0000c84c       $unwind$??$append@VcharNode@@@DName@@AEAAXPEBVcharNode@@@Z 000000018005284c     libvcruntime:undname.obj
 0002:0000c84c       $unwind$??$append@VpcharNode@@@DName@@AEAAXPEBVpcharNode@@@Z 000000018005284c     libvcruntime:undname.obj
 0002:0000c84c       $unwind$??YDName@@QEAAAEAV0@AEBUStringLiteral@@@Z 000000018005284c     libvcruntime:undname.obj
 0002:0000c84c       $unwind$??YDName@@QEAAAEAV0@D@Z 000000018005284c     libvcruntime:undname.obj
 0002:0000c84c       $unwind$??YReplicator@@QEAAAEAV0@AEBVDName@@@Z 000000018005284c     libvcruntime:undname.obj
 0002:0000c84c       $unwind$?getString@pairNode@@UEBAPEADPEAD0@Z 000000018005284c     libvcruntime:undname.obj
 0002:0000c84c       $unwind$?length@pairNode@@UEBAHXZ 000000018005284c     libvcruntime:undname.obj
 0002:0000c84c       $unwind$__vcrt_FlsSetValue 000000018005284c     libvcruntime:winapi_downlevel.obj
 0002:0000c84c       $unwind$??$common_initialize_environment_nolock@D@@YAHXZ 000000018005284c     libucrt:environment_initialization.obj
 0002:0000c84c       $unwind$_realloc_base      000000018005284c     libucrt:realloc_base.obj
 0002:0000c84c       $unwind$?replace_current_thread_locale_nolock@@YAXQEAU__acrt_ptd@@QEAU__crt_locale_data@@@Z 000000018005284c     libucrt:per_thread_data.obj
 0002:0000c84c       $unwind$__acrt_execute_uninitializers 000000018005284c     libucrt:shared_initialization.obj
 0002:0000c84c       $unwind$__acrt_FlsSetValue 000000018005284c     libucrt:winapi_thunks.obj
 0002:0000c84c       $unwind$__acrt_LocaleNameToLCID 000000018005284c     libucrt:winapi_thunks.obj
 0002:0000c84c       $unwind$_updatetlocinfoEx_nolock 000000018005284c     libucrt:locale_refcounting.obj
 0002:0000c84c       $unwind$_close_nolock      000000018005284c     libucrt:close.obj
 0002:0000c84c       $unwind$__acrt_uninitialize_lowio 000000018005284c     libucrt:ioinit.obj
 0002:0000c84c       $unwind$__acrt_errno_map_os_error 000000018005284c     libucrt:errno.obj
 0002:0000c84c       $unwind$_initterm_e        000000018005284c     libucrt:initterm.obj
 0002:0000c84c       $unwind$_fclose_nolock     000000018005284c     libucrt:fclose.obj
 0002:0000c84c       $unwind$?type_case_n@?$output_processor@DV?$string_output_adapter@D@__crt_stdio_output@@V?$format_validation_base@DV?$string_output_adapter@D@__crt_stdio_output@@@2@@__crt_stdio_output@@AEAA_NXZ 000000018005284c     libucrt:output.obj
 0002:0000c84c       $unwind$strncpy_s          000000018005284c     libucrt:strncpy_s.obj
 0002:0000c858       $unwind$?outputSegment@RenderOutput@Cm@physx@@QEAAXAEBVPxVec3@3@0@Z 0000000180052858     Cooking.obj
 0002:0000c870       $unwind$?getHeight@HeightField@Gu@physx@@UEBAMMM@Z 0000000180052870     Cooking.obj
 0002:0000c870       $unwind$?getAddressOf@UnDecorator@@CA?AVDName@@XZ 0000000180052870     libvcruntime:undname.obj
 0002:0000c870       $unwind$?getArrayAccess@UnDecorator@@CA?AVDName@@XZ 0000000180052870     libvcruntime:undname.obj
 0002:0000c870       $unwind$?getArrayObject@UnDecorator@@CA?AVDName@@XZ 0000000180052870     libvcruntime:undname.obj
 0002:0000c870       $unwind$?getMemberAccess@UnDecorator@@CA?AVDName@@XZ 0000000180052870     libvcruntime:undname.obj
 0002:0000c870       $unwind$?getStringEncoding@UnDecorator@@CA?AVDName@@W4PrefixKind@@H@Z 0000000180052870     libvcruntime:undname.obj
 0002:0000c870       $unwind$?getUnionObject@UnDecorator@@CA?AVDName@@XZ 0000000180052870     libvcruntime:undname.obj
 0002:0000c870       $unwind$__dcrt_lowio_ensure_console_output_initialized 0000000180052870     libucrt:initcon.obj
 0002:0000c870       $unwind$_isleadbyte_l      0000000180052870     libucrt:_wctype.obj
 0002:0000c870       $unwind$?getSystemCP@@YAHH@Z 0000000180052870     libucrt:mbctype.obj
 0002:0000c878       $unwind$?getTriangleNormal@HeightField@Gu@physx@@UEBA?AVPxVec3@3@I@Z 0000000180052878     Cooking.obj
 0002:0000c884       $unwind$?getHeightInternal2@HeightField@Gu@physx@@QEBAMIMM@Z 0000000180052884     Cooking.obj
 0002:0000c890       $chain$0$?getHeightInternal2@HeightField@Gu@physx@@QEBAMIMM@Z 0000000180052890     Cooking.obj
 0002:0000c8a4       $chain$2$?getHeightInternal2@HeightField@Gu@physx@@QEBAMIMM@Z 00000001800528a4     Cooking.obj
 0002:0000c8b8       $unwind$?Reduce@ReducedVertexCloud@physx@@QEAA_NPEAUREDUCEDCLOUD@2@@Z 00000001800528b8     CookingUtils.obj
 0002:0000c8d4       $unwind$??1AABBTreeBuildParams@Gu@physx@@QEAA@XZ 00000001800528d4     BVHStructureBuilder.obj
 0002:0000c8d4       $unwind$??1BVHStructureBuilder@physx@@QEAA@XZ 00000001800528d4     BVHStructureBuilder.obj
 0002:0000c8d4       $unwind$?reset@AABBTreeBuildParams@Gu@physx@@QEAAXXZ 00000001800528d4     BVHStructureBuilder.obj
 0002:0000c8d4       $unwind$??1ConvexHullBuilder@physx@@QEAA@XZ 00000001800528d4     ConvexHullBuilder.obj
 0002:0000c8d4       $unwind$??_GConvexHullLib@physx@@UEAAPEAXI@Z 00000001800528d4     ConvexHullLib.obj
 0002:0000c8d4       $unwind$?resize@?$Array@VPxPlane@physx@@V?$ReflectionAllocator@VPxPlane@physx@@@shdfnd@2@@shdfnd@physx@@QEAAXIAEBVPxPlane@3@@Z 00000001800528d4     ConvexHullUtils.obj
 0002:0000c8d4       $unwind$?resize@?$Array@VPxVec3@physx@@V?$ReflectionAllocator@VPxVec3@physx@@@shdfnd@2@@shdfnd@physx@@QEAAXIAEBVPxVec3@3@@Z 00000001800528d4     ConvexHullUtils.obj
 0002:0000c8d4       $unwind$??1EdgeList@Gu@physx@@QEAA@XZ 00000001800528d4     EdgeList.obj
 0002:0000c8d4       $unwind$??1MeshCleaner@physx@@QEAA@XZ 00000001800528d4     MeshCleaner.obj
 0002:0000c8d4       $unwind$??1MeshDataBase@Gu@physx@@UEAA@XZ 00000001800528d4     TriangleMeshBuilder.obj
 0002:0000c8d4       $unwind$??_GBV4TriangleMeshBuilder@physx@@UEAAPEAXI@Z 00000001800528d4     TriangleMeshBuilder.obj
 0002:0000c8d4       $unwind$_DllMainCRTStartup 00000001800528d4     LIBCMT:dll_dllmain.obj
 0002:0000c8d4       $unwind$__vcrt_getptd_noexit 00000001800528d4     libvcruntime:per_thread_data.obj
 0002:0000c8d4       $unwind$??$?0$01@pcharNode@@QEAA@PEBDHU?$StringLifeSelector@$01@@@Z 00000001800528d4     libvcruntime:undname.obj
 0002:0000c8d4       $unwind$??$?0$0A@@pcharNode@@QEAA@PEBDHU?$StringLifeSelector@$0A@@@@Z 00000001800528d4     libvcruntime:undname.obj
 0002:0000c8d4       $unwind$??$doPchar@$01@DName@@AEAAXPEBDH@Z 00000001800528d4     libvcruntime:undname.obj
 0002:0000c8d4       $unwind$??$doPchar@$0A@@DName@@AEAAXPEBDH@Z 00000001800528d4     libvcruntime:undname.obj
 0002:0000c8d4       $unwind$??0DName@@QEAA@AEAPEBDD@Z 00000001800528d4     libvcruntime:undname.obj
 0002:0000c8d4       $unwind$??0DName@@QEAA@PEAV0@@Z 00000001800528d4     libvcruntime:undname.obj
 0002:0000c8d4       $unwind$?getMemoryWithBuffer@_HeapManager@@QEAAPEAX_K@Z 00000001800528d4     libvcruntime:undname.obj
 0002:0000c8d4       $unwind$__vcrt_InitializeCriticalSectionEx 00000001800528d4     libvcruntime:winapi_downlevel.obj
 0002:0000c8d4       $unwind$memcpy_s           00000001800528d4     libucrt:cfout.obj
 0002:0000c8d4       $unwind$__acrt_getptd      00000001800528d4     libucrt:per_thread_data.obj
 0002:0000c8d4       $unwind$__acrt_getptd_noexit 00000001800528d4     libucrt:per_thread_data.obj
 0002:0000c8d4       $unwind$__acrt_execute_initializers 00000001800528d4     libucrt:shared_initialization.obj
 0002:0000c8d4       $unwind$__acrt_InitializeCriticalSectionEx 00000001800528d4     libucrt:winapi_thunks.obj
 0002:0000c8d4       $unwind$?free_crt_array_internal@@YAXQEAPEBX_K@Z 00000001800528d4     libucrt:inittime.obj
 0002:0000c8d4       $unwind$??$common_lseek_nolock@_J@@YA_JH_JH@Z 00000001800528d4     libucrt:lseek.obj
 0002:0000c8d4       $unwind$__acrt_stdio_flush_nolock 00000001800528d4     libucrt:fflush.obj
 0002:0000c8d4       $unwind$??0_LocaleUpdate@@QEAA@QEAU__crt_locale_pointers@@@Z 00000001800528d4     libucrt:output.obj
 0002:0000c8d4       $unwind$_exception_enabled 00000001800528d4     libucrt:libm_error.obj
 0002:0000c8e4       $unwind$?init@EdgeListBuilder@Gu@physx@@QEAA_NAEBUEDGELISTCREATE@23@@Z 00000001800528e4     EdgeList.obj
 0002:0000c8e4       $unwind$?preallocate@QuickHull@local@@QEAAXI@Z 00000001800528e4     QuickHullConvexHullLib.obj
 0002:0000c8e4       $unwind$?allocateVertices@MeshDataBase@Gu@physx@@QEAAPEAVPxVec3@3@I@Z 00000001800528e4     TriangleMeshBuilder.obj
 0002:0000c8e4       $unwind$?getStateFromIterators@UWMap4@FH4@@SAHAEBViterator@12@H0H0@Z 00000001800528e4     libvcruntime:frame.obj
 0002:0000c8e4       $unwind$?getUndecoratedName@UnDecorator@@QEAAPEADPEADH@Z 00000001800528e4     libvcruntime:undname.obj
 0002:0000c8f4       $unwind$?createFacesToEdges@EdgeListBuilder@Gu@physx@@AEAA_NIPEBIPEBG@Z 00000001800528f4     EdgeList.obj
 0002:0000c904       $chain$3$?createFacesToEdges@EdgeListBuilder@Gu@physx@@AEAA_NIPEBIPEBG@Z 0000000180052904     EdgeList.obj
 0002:0000c924       $chain$4$?createFacesToEdges@EdgeListBuilder@Gu@physx@@AEAA_NIPEBIPEBG@Z 0000000180052924     EdgeList.obj
 0002:0000c93c       $chain$5$?createFacesToEdges@EdgeListBuilder@Gu@physx@@AEAA_NIPEBIPEBG@Z 000000018005293c     EdgeList.obj
 0002:0000c950       $chain$6$?createFacesToEdges@EdgeListBuilder@Gu@physx@@AEAA_NIPEBIPEBG@Z 0000000180052950     EdgeList.obj
 0002:0000c960       $unwind$?createEdgesToFaces@EdgeListBuilder@Gu@physx@@AEAA_NIPEBIPEBG@Z 0000000180052960     EdgeList.obj
 0002:0000c96c       $chain$1$?createEdgesToFaces@EdgeListBuilder@Gu@physx@@AEAA_NIPEBIPEBG@Z 000000018005296c     EdgeList.obj
 0002:0000c984       $chain$2$?createEdgesToFaces@EdgeListBuilder@Gu@physx@@AEAA_NIPEBIPEBG@Z 0000000180052984     EdgeList.obj
 0002:0000c998       $unwind$?computeActiveEdges@EdgeListBuilder@Gu@physx@@AEAA_NIPEBIPEBGPEBVPxVec3@3@M@Z 0000000180052998     EdgeList.obj
 0002:0000c9a8       $chain$0$?computeActiveEdges@EdgeListBuilder@Gu@physx@@AEAA_NIPEBIPEBGPEBVPxVec3@3@M@Z 00000001800529a8     EdgeList.obj
 0002:0000c9bc       $chain$3$?computeActiveEdges@EdgeListBuilder@Gu@physx@@AEAA_NIPEBIPEBGPEBVPxVec3@3@M@Z 00000001800529bc     EdgeList.obj
 0002:0000c9d4       $chain$16$?computeActiveEdges@EdgeListBuilder@Gu@physx@@AEAA_NIPEBIPEBGPEBVPxVec3@3@M@Z 00000001800529d4     EdgeList.obj
 0002:0000ca18       $chain$17$?computeActiveEdges@EdgeListBuilder@Gu@physx@@AEAA_NIPEBIPEBGPEBVPxVec3@3@M@Z 0000000180052a18     EdgeList.obj
 0002:0000ca2c       $chain$18$?computeActiveEdges@EdgeListBuilder@Gu@physx@@AEAA_NIPEBIPEBGPEBVPxVec3@3@M@Z 0000000180052a2c     EdgeList.obj
 0002:0000ca3c       $chain$19$?computeActiveEdges@EdgeListBuilder@Gu@physx@@AEAA_NIPEBIPEBGPEBVPxVec3@3@M@Z 0000000180052a3c     EdgeList.obj
 0002:0000ca4c       $chain$0$??$?_UI@@YAPEAX_KV?$ReflectionAllocator@I@shdfnd@physx@@PEBDH@Z 0000000180052a4c     EdgeList.obj
 0002:0000ca60       $chain$1$??$?_UI@@YAPEAX_KV?$ReflectionAllocator@I@shdfnd@physx@@PEBDH@Z 0000000180052a60     EdgeList.obj
 0002:0000ca70       $unwind$??0MeshCleaner@physx@@QEAA@IPEBVPxVec3@1@IPEBIM@Z 0000000180052a70     MeshCleaner.obj
 0002:0000ca7c       $chain$1$??0MeshCleaner@physx@@QEAA@IPEBVPxVec3@1@IPEBIM@Z 0000000180052a7c     MeshCleaner.obj
 0002:0000ca94       $chain$5$??0MeshCleaner@physx@@QEAA@IPEBVPxVec3@1@IPEBIM@Z 0000000180052a94     MeshCleaner.obj
 0002:0000cab4       $chain$7$??0MeshCleaner@physx@@QEAA@IPEBVPxVec3@1@IPEBIM@Z 0000000180052ab4     MeshCleaner.obj
 0002:0000cacc       $chain$8$??0MeshCleaner@physx@@QEAA@IPEBVPxVec3@1@IPEBIM@Z 0000000180052acc     MeshCleaner.obj
 0002:0000cae0       $chain$9$??0MeshCleaner@physx@@QEAA@IPEBVPxVec3@1@IPEBIM@Z 0000000180052ae0     MeshCleaner.obj
 0002:0000caf0       $chain$10$??0MeshCleaner@physx@@QEAA@IPEBVPxVec3@1@IPEBIM@Z 0000000180052af0     MeshCleaner.obj
 0002:0000caf0       $chain$12$??0MeshCleaner@physx@@QEAA@IPEBVPxVec3@1@IPEBIM@Z 0000000180052af0     MeshCleaner.obj
 0002:0000cb00       $chain$11$??0MeshCleaner@physx@@QEAA@IPEBVPxVec3@1@IPEBIM@Z 0000000180052b00     MeshCleaner.obj
 0002:0000cb18       $chain$13$??0MeshCleaner@physx@@QEAA@IPEBVPxVec3@1@IPEBIM@Z 0000000180052b18     MeshCleaner.obj
 0002:0000cb34       $chain$14$??0MeshCleaner@physx@@QEAA@IPEBVPxVec3@1@IPEBIM@Z 0000000180052b34     MeshCleaner.obj
 0002:0000cb44       $unwind$?createQuantizer@physx@@YAPEAVQuantizer@1@XZ 0000000180052b44     Quantizer.obj
 0002:0000cb44       $unwind$?getNoexcept@UnDecorator@@CA?AVDName@@XZ 0000000180052b44     libvcruntime:undname.obj
 0002:0000cb44       $unwind$?getVCallThunkType@UnDecorator@@CA?AVDName@@XZ 0000000180052b44     libvcruntime:undname.obj
 0002:0000cb44       $unwind$?getVdispMapType@UnDecorator@@CA?AVDName@@AEBV2@@Z 0000000180052b44     libvcruntime:undname.obj
 0002:0000cb44       $unwind$?__mbrtowc_utf8@__crt_mbstring@@YA_KPEA_WPEBD_KPEAU_Mbstatet@@@Z 0000000180052b44     libucrt:mbrtowc.obj
 0002:0000cb44       $unwind$?type_case_c_tchar@?$output_processor@DV?$string_output_adapter@D@__crt_stdio_output@@V?$format_validation_base@DV?$string_output_adapter@D@__crt_stdio_output@@@2@@__crt_stdio_output@@AEAA_ND@Z 0000000180052b44     libucrt:output.obj
 0002:0000cb44       $unwind$__stdio_common_vsprintf_s 0000000180052b44     libucrt:output.obj
 0002:0000cb4c       $unwind$??$kmeans_cluster@VPxVec3@physx@@M@@YAIPEBVPxVec3@physx@@IIPEAV01@PEAIMM@Z 0000000180052b4c     Quantizer.obj
 0002:0000cb58       $chain$3$??$kmeans_cluster@VPxVec3@physx@@M@@YAIPEBVPxVec3@physx@@IIPEAV01@PEAIMM@Z 0000000180052b58     Quantizer.obj
 0002:0000cb78       $chain$6$??$kmeans_cluster@VPxVec3@physx@@M@@YAIPEBVPxVec3@physx@@IIPEAV01@PEAIMM@Z 0000000180052b78     Quantizer.obj
 0002:0000cb94       $chain$12$??$kmeans_cluster@VPxVec3@physx@@M@@YAIPEBVPxVec3@physx@@IIPEAV01@PEAIMM@Z 0000000180052b94     Quantizer.obj
 0002:0000cbbc       $chain$13$??$kmeans_cluster@VPxVec3@physx@@M@@YAIPEBVPxVec3@physx@@IIPEAV01@PEAIMM@Z 0000000180052bbc     Quantizer.obj
 0002:0000cbcc       $chain$14$??$kmeans_cluster@VPxVec3@physx@@M@@YAIPEBVPxVec3@physx@@IIPEAV01@PEAIMM@Z 0000000180052bcc     Quantizer.obj
 0002:0000cbe4       $chain$15$??$kmeans_cluster@VPxVec3@physx@@M@@YAIPEBVPxVec3@physx@@IIPEAV01@PEAIMM@Z 0000000180052be4     Quantizer.obj
 0002:0000cbf4       $unwind$?kmeansQuantize3D@QuantizerImpl@@UEAAPEBVPxVec3@physx@@IPEBV23@I_NIAEAI@Z 0000000180052bf4     Quantizer.obj
 0002:0000cc04       $chain$1$?kmeansQuantize3D@QuantizerImpl@@UEAAPEBVPxVec3@physx@@IPEBV23@I_NIAEAI@Z 0000000180052c04     Quantizer.obj
 0002:0000cc1c       $chain$2$?kmeansQuantize3D@QuantizerImpl@@UEAAPEBVPxVec3@physx@@IPEBV23@I_NIAEAI@Z 0000000180052c1c     Quantizer.obj
 0002:0000cc30       $chain$3$?kmeansQuantize3D@QuantizerImpl@@UEAAPEBVPxVec3@physx@@IPEBV23@I_NIAEAI@Z 0000000180052c30     Quantizer.obj
 0002:0000cc40       $unwind$?normalizeInput@QuantizerImpl@@AEAAXIPEBVPxVec3@physx@@I@Z 0000000180052c40     Quantizer.obj
 0002:0000cc5c       $chain$2$?normalizeInput@QuantizerImpl@@AEAAXIPEBVPxVec3@physx@@I@Z 0000000180052c5c     Quantizer.obj
 0002:0000cc78       $chain$6$?normalizeInput@QuantizerImpl@@AEAAXIPEBVPxVec3@physx@@I@Z 0000000180052c78     Quantizer.obj
 0002:0000cc98       $chain$7$?normalizeInput@QuantizerImpl@@AEAAXIPEBVPxVec3@physx@@I@Z 0000000180052c98     Quantizer.obj
 0002:0000cca8       $chain$8$?normalizeInput@QuantizerImpl@@AEAAXIPEBVPxVec3@physx@@I@Z 0000000180052ca8     Quantizer.obj
 0002:0000ccb8       $chain$10$?normalizeInput@QuantizerImpl@@AEAAXIPEBVPxVec3@physx@@I@Z 0000000180052cb8     Quantizer.obj
 0002:0000ccd0       $chain$11$?normalizeInput@QuantizerImpl@@AEAAXIPEBVPxVec3@physx@@I@Z 0000000180052cd0     Quantizer.obj
 0002:0000cce0       $unwind$?growAndPushBack@?$Array@VPxVec3@physx@@V?$ReflectionAllocator@VPxVec3@physx@@@shdfnd@2@@shdfnd@physx@@IEAAAEAVPxVec3@3@AEBV43@@Z 0000000180052ce0     Quantizer.obj
 0002:0000cce0       $unwind$?saveMidPhaseStructure@BV4TriangleMeshBuilder@physx@@UEBAXAEAVPxOutputStream@2@_N@Z 0000000180052ce0     TriangleMeshBuilder.obj
 0002:0000ccec       $chain$0$?growAndPushBack@?$Array@VPxVec3@physx@@V?$ReflectionAllocator@VPxVec3@physx@@@shdfnd@2@@shdfnd@physx@@IEAAAEAVPxVec3@3@AEBV43@@Z 0000000180052cec     Quantizer.obj
 0002:0000cd00       $chain$1$?growAndPushBack@?$Array@VPxVec3@physx@@V?$ReflectionAllocator@VPxVec3@physx@@@shdfnd@2@@shdfnd@physx@@IEAAAEAVPxVec3@3@AEBV43@@Z 0000000180052d00     Quantizer.obj
 0002:0000cd14       $chain$2$?growAndPushBack@?$Array@VPxVec3@physx@@V?$ReflectionAllocator@VPxVec3@physx@@@shdfnd@2@@shdfnd@physx@@IEAAAEAVPxVec3@3@AEBV43@@Z 0000000180052d14     Quantizer.obj
 0002:0000cd24       $chain$4$?growAndPushBack@?$Array@VPxVec3@physx@@V?$ReflectionAllocator@VPxVec3@physx@@@shdfnd@2@@shdfnd@physx@@IEAAAEAVPxVec3@3@AEBV43@@Z 0000000180052d24     Quantizer.obj
 0002:0000cd38       $chain$3$?growAndPushBack@?$Array@VPxVec3@physx@@V?$ReflectionAllocator@VPxVec3@physx@@@shdfnd@2@@shdfnd@physx@@IEAAAEAVPxVec3@3@AEBV43@@Z 0000000180052d38     Quantizer.obj
 0002:0000cd48       $unwind$??_GQuantizerImpl@@EEAAPEAXI@Z 0000000180052d48     Quantizer.obj
 0002:0000cd48       $unwind$??_GConvexHull@physx@@QEAAPEAXI@Z 0000000180052d48     QuickHullConvexHullLib.obj
 0002:0000cd54       $chain$0$??_GQuantizerImpl@@EEAAPEAXI@Z 0000000180052d54     Quantizer.obj
 0002:0000cd68       $chain$1$??_GQuantizerImpl@@EEAAPEAXI@Z 0000000180052d68     Quantizer.obj
 0002:0000cd78       $unwind$?loadFromDesc@BVHStructureBuilder@physx@@QEAA_NAEBVPxBVHStructureDesc@2@@Z 0000000180052d78     BVHStructureBuilder.obj
 0002:0000cd84       $chain$4$?loadFromDesc@BVHStructureBuilder@physx@@QEAA_NAEBVPxBVHStructureDesc@2@@Z 0000000180052d84     BVHStructureBuilder.obj
 0002:0000cda8       $chain$6$?loadFromDesc@BVHStructureBuilder@physx@@QEAA_NAEBVPxBVHStructureDesc@2@@Z 0000000180052da8     BVHStructureBuilder.obj
 0002:0000cdc0       $chain$7$?loadFromDesc@BVHStructureBuilder@physx@@QEAA_NAEBVPxBVHStructureDesc@2@@Z 0000000180052dc0     BVHStructureBuilder.obj
 0002:0000cdd0       $chain$8$?loadFromDesc@BVHStructureBuilder@physx@@QEAA_NAEBVPxBVHStructureDesc@2@@Z 0000000180052dd0     BVHStructureBuilder.obj
 0002:0000cde0       $unwind$?save@BVHStructureBuilder@physx@@QEBA_NAEAVPxOutputStream@2@_N@Z 0000000180052de0     BVHStructureBuilder.obj
 0002:0000cdf0       $chain$2$?save@BVHStructureBuilder@physx@@QEBA_NAEAVPxOutputStream@2@_N@Z 0000000180052df0     BVHStructureBuilder.obj
 0002:0000ce08       $chain$3$?save@BVHStructureBuilder@physx@@QEBA_NAEAVPxOutputStream@2@_N@Z 0000000180052e08     BVHStructureBuilder.obj
 0002:0000ce1c       $chain$1$?allocate@?$Array@USlab@NodeAllocator@Gu@physx@@V?$ReflectionAllocator@USlab@NodeAllocator@Gu@physx@@@shdfnd@4@@shdfnd@physx@@IEAAPEAUSlab@NodeAllocator@Gu@3@I@Z 0000000180052e1c     BVHStructureBuilder.obj
 0002:0000ce34       $chain$3$?allocate@?$Array@USlab@NodeAllocator@Gu@physx@@V?$ReflectionAllocator@USlab@NodeAllocator@Gu@physx@@@shdfnd@4@@shdfnd@physx@@IEAAPEAUSlab@NodeAllocator@Gu@3@I@Z 0000000180052e34     BVHStructureBuilder.obj
 0002:0000ce48       $chain$4$?allocate@?$Array@USlab@NodeAllocator@Gu@physx@@V?$ReflectionAllocator@USlab@NodeAllocator@Gu@physx@@@shdfnd@4@@shdfnd@physx@@IEAAPEAUSlab@NodeAllocator@Gu@3@I@Z 0000000180052e48     BVHStructureBuilder.obj
 0002:0000ce58       $chain$0$?recreate@?$Array@USlab@NodeAllocator@Gu@physx@@V?$ReflectionAllocator@USlab@NodeAllocator@Gu@physx@@@shdfnd@4@@shdfnd@physx@@IEAAXI@Z 0000000180052e58     BVHStructureBuilder.obj
 0002:0000ce6c       $chain$1$?recreate@?$Array@USlab@NodeAllocator@Gu@physx@@V?$ReflectionAllocator@USlab@NodeAllocator@Gu@physx@@@shdfnd@4@@shdfnd@physx@@IEAAXI@Z 0000000180052e6c     BVHStructureBuilder.obj
 0002:0000ce7c       $unwind$??4NodeAllocator@Gu@physx@@QEAAAEAV012@AEBV012@@Z 0000000180052e7c     BVHStructureBuilder.obj
 0002:0000ce7c       $unwind$__std_exception_copy 0000000180052e7c     libvcruntime:std_exception.obj
 0002:0000ce7c       $unwind$??$doPchar@$00@DName@@AEAAXPEBDH@Z 0000000180052e7c     libvcruntime:undname.obj
 0002:0000ce7c       $unwind$_free_osfhnd       0000000180052e7c     libucrt:osfinfo.obj
 0002:0000ce7c       $unwind$?process@?$output_processor@DV?$string_output_adapter@D@__crt_stdio_output@@V?$format_validation_base@DV?$string_output_adapter@D@__crt_stdio_output@@@2@@__crt_stdio_output@@QEAAHXZ 0000000180052e7c     libucrt:output.obj
 0002:0000ce90       $unwind$?saveHeightField@physx@@YA_NAEBVHeightField@Gu@1@AEAVPxOutputStream@1@_N@Z 0000000180052e90     HeightFieldCooking.obj
 0002:0000cea0       $chain$2$?saveHeightField@physx@@YA_NAEBVHeightField@Gu@1@AEAVPxOutputStream@1@_N@Z 0000000180052ea0     HeightFieldCooking.obj
 0002:0000ceb8       $chain$3$?saveHeightField@physx@@YA_NAEBVHeightField@Gu@1@AEAVPxOutputStream@1@_N@Z 0000000180052eb8     HeightFieldCooking.obj
 0002:0000cec8       $chain$0$?allocate@?$ReflectionAllocator@I@shdfnd@physx@@QEAAPEAX_KPEBDH@Z 0000000180052ec8     RTreeCooking.obj
 0002:0000cedc       $chain$1$?allocate@?$ReflectionAllocator@I@shdfnd@physx@@QEAAPEAX_KPEBDH@Z 0000000180052edc     RTreeCooking.obj
 0002:0000ceec       $unwind$?buildFromTriangles@RTreeCooker@physx@@SAXAEAURTree@Gu@2@PEBVPxVec3@2@IPEBGPEBIIAEAV?$Array@IV?$ReflectionAllocator@I@shdfnd@physx@@@shdfnd@2@PEAURemapCallback@12@MW4Enum@PxMeshCookingHint@2@@Z 0000000180052eec     RTreeCooking.obj
 0002:0000cef8       $chain$7$?buildFromTriangles@RTreeCooker@physx@@SAXAEAURTree@Gu@2@PEBVPxVec3@2@IPEBGPEBIIAEAV?$Array@IV?$ReflectionAllocator@I@shdfnd@physx@@@shdfnd@2@PEAURemapCallback@12@MW4Enum@PxMeshCookingHint@2@@Z 0000000180052ef8     RTreeCooking.obj
 0002:0000cf28       $chain$9$?buildFromTriangles@RTreeCooker@physx@@SAXAEAURTree@Gu@2@PEBVPxVec3@2@IPEBGPEBIIAEAV?$Array@IV?$ReflectionAllocator@I@shdfnd@physx@@@shdfnd@2@PEAURemapCallback@12@MW4Enum@PxMeshCookingHint@2@@Z 0000000180052f28     RTreeCooking.obj
 0002:0000cf40       $chain$10$?buildFromTriangles@RTreeCooker@physx@@SAXAEAURTree@Gu@2@PEBVPxVec3@2@IPEBGPEBIIAEAV?$Array@IV?$ReflectionAllocator@I@shdfnd@physx@@@shdfnd@2@PEAURemapCallback@12@MW4Enum@PxMeshCookingHint@2@@Z 0000000180052f40     RTreeCooking.obj
 0002:0000cf50       $chain$11$?buildFromTriangles@RTreeCooker@physx@@SAXAEAURTree@Gu@2@PEBVPxVec3@2@IPEBGPEBIIAEAV?$Array@IV?$ReflectionAllocator@I@shdfnd@physx@@@shdfnd@2@PEAURemapCallback@12@MW4Enum@PxMeshCookingHint@2@@Z 0000000180052f50     RTreeCooking.obj
 0002:0000cf60       $unwind$?buildFromBounds@physx@@YAXAEAURTree@Gu@1@PEBUPxBounds3V@1@IAEAV?$Array@IV?$ReflectionAllocator@I@shdfnd@physx@@@shdfnd@1@PEAURemapCallback@RTreeCooker@1@AEAT__m128@@4MW4Enum@PxMeshCookingHint@1@@Z 0000000180052f60     RTreeCooking.obj
 0002:0000cf7c       $chain$1$?allocate@?$Array@UPxBounds3V@physx@@V?$ReflectionAllocator@UPxBounds3V@physx@@@shdfnd@2@@shdfnd@physx@@IEAAPEAUPxBounds3V@3@I@Z 0000000180052f7c     RTreeCooking.obj
 0002:0000cf94       $chain$3$?allocate@?$Array@UPxBounds3V@physx@@V?$ReflectionAllocator@UPxBounds3V@physx@@@shdfnd@2@@shdfnd@physx@@IEAAPEAUPxBounds3V@3@I@Z 0000000180052f94     RTreeCooking.obj
 0002:0000cfa8       $chain$4$?allocate@?$Array@UPxBounds3V@physx@@V?$ReflectionAllocator@UPxBounds3V@physx@@@shdfnd@2@@shdfnd@physx@@IEAAPEAUPxBounds3V@3@I@Z 0000000180052fa8     RTreeCooking.obj
 0002:0000cfb8       $unwind$?growAndPushBack@?$Array@VHalfEdge@ConvexHull@physx@@V?$ReflectionAllocator@VHalfEdge@ConvexHull@physx@@@shdfnd@3@@shdfnd@physx@@IEAAAEAVHalfEdge@ConvexHull@3@AEBV453@@Z 0000000180052fb8     ConvexHullUtils.obj
 0002:0000cfb8       $unwind$?growAndPushBack@?$Array@VPxPlane@physx@@V?$ReflectionAllocator@VPxPlane@physx@@@shdfnd@2@@shdfnd@physx@@IEAAAEAVPxPlane@3@AEBV43@@Z 0000000180052fb8     ConvexHullUtils.obj
 0002:0000cfb8       $unwind$?resize@?$Array@VHalfEdge@ConvexHull@physx@@V?$ReflectionAllocator@VHalfEdge@ConvexHull@physx@@@shdfnd@3@@shdfnd@physx@@QEAAXIAEBVHalfEdge@ConvexHull@3@@Z 0000000180052fb8     ConvexHullUtils.obj
 0002:0000cfb8       $unwind$?growAndPushBack@?$Array@VPair@@V?$ReflectionAllocator@VPair@@@shdfnd@physx@@@shdfnd@physx@@IEAAAEAVPair@@AEBV4@@Z 0000000180052fb8     ConvexPolygonsBuilder.obj
 0002:0000cfb8       $unwind$??_GQuickHullConvexHullLib@physx@@UEAAPEAXI@Z 0000000180052fb8     QuickHullConvexHullLib.obj
 0002:0000cfb8       $unwind$?growAndPushBack@?$Array@PEAUQuickHullFace@local@@V?$ReflectionAllocator@PEAUQuickHullFace@local@@@shdfnd@physx@@@shdfnd@physx@@IEAAAEAPEAUQuickHullFace@local@@AEBQEAU45@@Z 0000000180052fb8     QuickHullConvexHullLib.obj
 0002:0000cfb8       $unwind$?growAndPushBack@?$Array@PEAUQuickHullHalfEdge@local@@V?$ReflectionAllocator@PEAUQuickHullHalfEdge@local@@@shdfnd@physx@@@shdfnd@physx@@IEAAAEAPEAUQuickHullHalfEdge@local@@AEBQEAU45@@Z 0000000180052fb8     QuickHullConvexHullLib.obj
 0002:0000cfb8       $unwind$?growAndPushBack@?$Array@PEAUQuickHullVertex@local@@V?$ReflectionAllocator@PEAUQuickHullVertex@local@@@shdfnd@physx@@@shdfnd@physx@@IEAAAEAPEAUQuickHullVertex@local@@AEBQEAU45@@Z 0000000180052fb8     QuickHullConvexHullLib.obj
 0002:0000cfb8       $unwind$?growAndPushBack@?$Array@UExpandPoint@local@@V?$ReflectionAllocator@UExpandPoint@local@@@shdfnd@physx@@@shdfnd@physx@@IEAAAEAUExpandPoint@local@@AEBU45@@Z 0000000180052fb8     QuickHullConvexHullLib.obj
 0002:0000cfb8       $unwind$?growAndPushBack@?$Array@UInterval@physx@@V?$InlineAllocator@$0CAAA@V?$ReflectionAllocator@UInterval@physx@@@shdfnd@physx@@@shdfnd@2@@shdfnd@physx@@IEAAAEAUInterval@3@AEBU43@@Z 0000000180052fb8     RTreeCooking.obj
 0002:0000cfb8       $unwind$?growAndPushBack@?$Array@UPxBounds3V@physx@@V?$ReflectionAllocator@UPxBounds3V@physx@@@shdfnd@2@@shdfnd@physx@@IEAAAEAUPxBounds3V@3@AEBU43@@Z 0000000180052fb8     RTreeCooking.obj
 0002:0000cfb8       $unwind$?growAndPushBack@?$Array@URTreeNodeNQ@physx@@V?$ReflectionAllocator@URTreeNodeNQ@physx@@@shdfnd@2@@shdfnd@physx@@IEAAAEAURTreeNodeNQ@3@AEBU43@@Z 0000000180052fb8     RTreeCooking.obj
 0002:0000cfb8       $unwind$?growAndPushBack@?$Array@URTreeNodeQ@Gu@physx@@V?$ReflectionAllocator@URTreeNodeQ@Gu@physx@@@shdfnd@3@@shdfnd@physx@@IEAAAEAURTreeNodeQ@Gu@3@AEBU453@@Z 0000000180052fb8     RTreeCooking.obj
 0002:0000cfb8       $unwind$?resize@?$Array@IV?$ReflectionAllocator@I@shdfnd@physx@@@shdfnd@physx@@QEAAXIAEBI@Z 0000000180052fb8     RTreeCooking.obj
 0002:0000cfb8       $unwind$__scrt_dllmain_exception_filter 0000000180052fb8     LIBCMT:utility.obj
 0002:0000cfb8       $unwind$?Is_bad_exception_allowed@@YAEPEBU_s_ESTypeList@@@Z 0000000180052fb8     libvcruntime:frame.obj
 0002:0000cfb8       $unwind$_ischartype_l      0000000180052fb8     libucrt:atox.obj
 0002:0000cfb8       $unwind$_recalloc_base     0000000180052fb8     libucrt:recalloc.obj
 0002:0000cfb8       $unwind$__acrt_free_locale 0000000180052fb8     libucrt:locale_refcounting.obj
 0002:0000cfb8       $unwind$__acrt_lowio_create_handle_array 0000000180052fb8     libucrt:osfinfo.obj
 0002:0000cfb8       $unwind$?setSBCS@@YAXPEAU__crt_multibyte_data@@@Z 0000000180052fb8     libucrt:mbctype.obj
 0002:0000cfb8       $unwind$_seh_filter_exe    0000000180052fb8     libucrt:exception_filter.obj
 0002:0000cfb8       $unwind$_initterm          0000000180052fb8     libucrt:initterm.obj
 0002:0000cfb8       $unwind$??$ensure_buffer_is_big_enough@D@formatting_buffer@__crt_stdio_output@@QEAA_N_K@Z 0000000180052fb8     libucrt:output.obj
 0002:0000cfcc       $chain$0$?recreate@?$Array@UPxBounds3V@physx@@V?$ReflectionAllocator@UPxBounds3V@physx@@@shdfnd@2@@shdfnd@physx@@IEAAXI@Z 0000000180052fcc     RTreeCooking.obj
 0002:0000cfe0       $chain$1$?recreate@?$Array@UPxBounds3V@physx@@V?$ReflectionAllocator@UPxBounds3V@physx@@@shdfnd@2@@shdfnd@physx@@IEAAXI@Z 0000000180052fe0     RTreeCooking.obj
 0002:0000cff0       $unwind$?growAndPushBack@?$Array@IV?$ReflectionAllocator@I@shdfnd@physx@@@shdfnd@physx@@IEAAAEAIAEBI@Z 0000000180052ff0     RTreeCooking.obj
 0002:0000d000       $chain$0$?growAndPushBack@?$Array@IV?$ReflectionAllocator@I@shdfnd@physx@@@shdfnd@physx@@IEAAAEAIAEBI@Z 0000000180053000     RTreeCooking.obj
 0002:0000d014       $chain$2$?growAndPushBack@?$Array@IV?$ReflectionAllocator@I@shdfnd@physx@@@shdfnd@physx@@IEAAAEAIAEBI@Z 0000000180053014     RTreeCooking.obj
 0002:0000d028       $chain$1$?growAndPushBack@?$Array@IV?$ReflectionAllocator@I@shdfnd@physx@@@shdfnd@physx@@IEAAAEAIAEBI@Z 0000000180053028     RTreeCooking.obj
 0002:0000d038       $chain$0$?recreate@?$Array@IV?$ReflectionAllocator@I@shdfnd@physx@@@shdfnd@physx@@IEAAXI@Z 0000000180053038     RTreeCooking.obj
 0002:0000d04c       $chain$1$?recreate@?$Array@IV?$ReflectionAllocator@I@shdfnd@physx@@@shdfnd@physx@@IEAAXI@Z 000000018005304c     RTreeCooking.obj
 0002:0000d05c       $chain$1$?allocate@?$Array@VPxVec3@physx@@V?$ReflectionAllocator@VPxVec3@physx@@@shdfnd@2@@shdfnd@physx@@IEAAPEAVPxVec3@3@I@Z 000000018005305c     RTreeCooking.obj
 0002:0000d074       $chain$3$?allocate@?$Array@VPxVec3@physx@@V?$ReflectionAllocator@VPxVec3@physx@@@shdfnd@2@@shdfnd@physx@@IEAAPEAVPxVec3@3@I@Z 0000000180053074     RTreeCooking.obj
 0002:0000d088       $chain$4$?allocate@?$Array@VPxVec3@physx@@V?$ReflectionAllocator@VPxVec3@physx@@@shdfnd@2@@shdfnd@physx@@IEAAPEAVPxVec3@3@I@Z 0000000180053088     RTreeCooking.obj
 0002:0000d098       $chain$0$?recreate@?$Array@VPxVec3@physx@@V?$ReflectionAllocator@VPxVec3@physx@@@shdfnd@2@@shdfnd@physx@@IEAAXI@Z 0000000180053098     RTreeCooking.obj
 0002:0000d0ac       $chain$1$?recreate@?$Array@VPxVec3@physx@@V?$ReflectionAllocator@VPxVec3@physx@@@shdfnd@2@@shdfnd@physx@@IEAAXI@Z 00000001800530ac     RTreeCooking.obj
 0002:0000d0bc       $unwind$?sort4@SubSortQuick@physx@@QEAAXPEIAIIAEAV?$Array@URTreeNodeNQ@physx@@V?$ReflectionAllocator@URTreeNodeNQ@physx@@@shdfnd@2@@shdfnd@2@AEAIAEAUPxBounds3V@2@I@Z 00000001800530bc     RTreeCooking.obj
 0002:0000d0d4       $chain$1$?allocate@?$Array@URTreeNodeNQ@physx@@V?$ReflectionAllocator@URTreeNodeNQ@physx@@@shdfnd@2@@shdfnd@physx@@IEAAPEAURTreeNodeNQ@3@I@Z 00000001800530d4     RTreeCooking.obj
 0002:0000d0ec       $chain$3$?allocate@?$Array@URTreeNodeNQ@physx@@V?$ReflectionAllocator@URTreeNodeNQ@physx@@@shdfnd@2@@shdfnd@physx@@IEAAPEAURTreeNodeNQ@3@I@Z 00000001800530ec     RTreeCooking.obj
 0002:0000d100       $chain$4$?allocate@?$Array@URTreeNodeNQ@physx@@V?$ReflectionAllocator@URTreeNodeNQ@physx@@@shdfnd@2@@shdfnd@physx@@IEAAPEAURTreeNodeNQ@3@I@Z 0000000180053100     RTreeCooking.obj
 0002:0000d110       $chain$0$?recreate@?$Array@URTreeNodeNQ@physx@@V?$ReflectionAllocator@URTreeNodeNQ@physx@@@shdfnd@2@@shdfnd@physx@@IEAAXI@Z 0000000180053110     RTreeCooking.obj
 0002:0000d124       $chain$1$?recreate@?$Array@URTreeNodeNQ@physx@@V?$ReflectionAllocator@URTreeNodeNQ@physx@@@shdfnd@2@@shdfnd@physx@@IEAAXI@Z 0000000180053124     RTreeCooking.obj
 0002:0000d134       $unwind$??$quickSelectFirstK@UBoundsLTE@physx@@@quickSelect@physx@@YAXPEIAIIIIAEBUBoundsLTE@1@@Z 0000000180053134     RTreeCooking.obj
 0002:0000d14c       $unwind$?split@SubSortSAH@physx@@QEAAIPEAII@Z 000000018005314c     RTreeCooking.obj
 0002:0000d158       $chain$3$?split@SubSortSAH@physx@@QEAAIPEAII@Z 0000000180053158     RTreeCooking.obj
 0002:0000d178       $chain$6$?split@SubSortSAH@physx@@QEAAIPEAII@Z 0000000180053178     RTreeCooking.obj
 0002:0000d194       $chain$7$?split@SubSortSAH@physx@@QEAAIPEAII@Z 0000000180053194     RTreeCooking.obj
 0002:0000d194       $chain$9$?split@SubSortSAH@physx@@QEAAIPEAII@Z 0000000180053194     RTreeCooking.obj
 0002:0000d1a4       $chain$8$?split@SubSortSAH@physx@@QEAAIPEAII@Z 00000001800531a4     RTreeCooking.obj
 0002:0000d1c0       $chain$10$?split@SubSortSAH@physx@@QEAAIPEAII@Z 00000001800531c0     RTreeCooking.obj
 0002:0000d1d0       $unwind$?sort4@SubSortSAH@physx@@QEAAXPEAIIAEAV?$Array@URTreeNodeNQ@physx@@V?$ReflectionAllocator@URTreeNodeNQ@physx@@@shdfnd@2@@shdfnd@2@AEAIIPEAURTreeNodeNQ@2@@Z 00000001800531d0     RTreeCooking.obj
 0002:0000d1fc       $chain$1$?allocate@?$Array@UInterval@physx@@V?$InlineAllocator@$0CAAA@V?$ReflectionAllocator@UInterval@physx@@@shdfnd@physx@@@shdfnd@2@@shdfnd@physx@@IEAAPEAUInterval@3@I@Z 00000001800531fc     RTreeCooking.obj
 0002:0000d214       $chain$3$?allocate@?$Array@UInterval@physx@@V?$InlineAllocator@$0CAAA@V?$ReflectionAllocator@UInterval@physx@@@shdfnd@physx@@@shdfnd@2@@shdfnd@physx@@IEAAPEAUInterval@3@I@Z 0000000180053214     RTreeCooking.obj
 0002:0000d228       $chain$4$?allocate@?$Array@UInterval@physx@@V?$InlineAllocator@$0CAAA@V?$ReflectionAllocator@UInterval@physx@@@shdfnd@physx@@@shdfnd@2@@shdfnd@physx@@IEAAPEAUInterval@3@I@Z 0000000180053228     RTreeCooking.obj
 0002:0000d238       $chain$1$?allocate@?$Array@URTreeNodeQ@Gu@physx@@V?$ReflectionAllocator@URTreeNodeQ@Gu@physx@@@shdfnd@3@@shdfnd@physx@@IEAAPEAURTreeNodeQ@Gu@3@I@Z 0000000180053238     RTreeCooking.obj
 0002:0000d250       $chain$3$?allocate@?$Array@URTreeNodeQ@Gu@physx@@V?$ReflectionAllocator@URTreeNodeQ@Gu@physx@@@shdfnd@3@@shdfnd@physx@@IEAAPEAURTreeNodeQ@Gu@3@I@Z 0000000180053250     RTreeCooking.obj
 0002:0000d264       $chain$4$?allocate@?$Array@URTreeNodeQ@Gu@physx@@V?$ReflectionAllocator@URTreeNodeQ@Gu@physx@@@shdfnd@3@@shdfnd@physx@@IEAAPEAURTreeNodeQ@Gu@3@I@Z 0000000180053264     RTreeCooking.obj
 0002:0000d274       $chain$0$?recreate@?$Array@URTreeNodeQ@Gu@physx@@V?$ReflectionAllocator@URTreeNodeQ@Gu@physx@@@shdfnd@3@@shdfnd@physx@@IEAAXI@Z 0000000180053274     RTreeCooking.obj
 0002:0000d288       $chain$1$?recreate@?$Array@URTreeNodeQ@Gu@physx@@V?$ReflectionAllocator@URTreeNodeQ@Gu@physx@@@shdfnd@3@@shdfnd@physx@@IEAAXI@Z 0000000180053288     RTreeCooking.obj
 0002:0000d298       $unwind$??$sort@IU?$Less@I@shdfnd@physx@@V?$ReflectionAllocator@I@23@@shdfnd@physx@@YAXPEAIIAEBU?$Less@I@01@AEBV?$ReflectionAllocator@I@01@I@Z 0000000180053298     RTreeCooking.obj
 0002:0000d2b8       $unwind$??$sort@IUSortBoundsPredicate@physx@@V?$ReflectionAllocator@I@shdfnd@2@@shdfnd@physx@@YAXPEAIIAEBUSortBoundsPredicate@1@AEBV?$ReflectionAllocator@I@01@I@Z 00000001800532b8     RTreeCooking.obj
 0002:0000d2d4       $unwind$??$smallSort@I$$CBUSortBoundsPredicate@physx@@@internal@shdfnd@physx@@YAXPEAIHHAEBUSortBoundsPredicate@2@@Z 00000001800532d4     RTreeCooking.obj
 0002:0000d2e0       $chain$6$??$smallSort@I$$CBUSortBoundsPredicate@physx@@@internal@shdfnd@physx@@YAXPEAIHHAEBUSortBoundsPredicate@2@@Z 00000001800532e0     RTreeCooking.obj
 0002:0000d30c       $chain$7$??$smallSort@I$$CBUSortBoundsPredicate@physx@@@internal@shdfnd@physx@@YAXPEAIHHAEBUSortBoundsPredicate@2@@Z 000000018005330c     RTreeCooking.obj
 0002:0000d31c       $unwind$??0QuickHullConvexHullLib@physx@@QEAA@AEBVPxConvexMeshDesc@1@AEBUPxCookingParams@1@@Z 000000018005331c     QuickHullConvexHullLib.obj
 0002:0000d31c       $unwind$?allocateTriangles@TriangleMeshData@Gu@physx@@QEAAPEAXI_NI@Z 000000018005331c     TriangleMeshBuilder.obj
 0002:0000d334       $chain$0$??$?_UG@@YAPEAX_KV?$ReflectionAllocator@G@shdfnd@physx@@PEBDH@Z 0000000180053334     TriangleMeshBuilder.obj
 0002:0000d348       $chain$1$??$?_UG@@YAPEAX_KV?$ReflectionAllocator@G@shdfnd@physx@@PEBDH@Z 0000000180053348     TriangleMeshBuilder.obj
 0002:0000d358       $chain$0$??1RTreeTriangleData@Gu@physx@@UEAA@XZ 0000000180053358     TriangleMeshBuilder.obj
 0002:0000d36c       $chain$1$??1RTreeTriangleData@Gu@physx@@UEAA@XZ 000000018005336c     TriangleMeshBuilder.obj
 0002:0000d37c       $unwind$?cleanMesh@TriangleMeshBuilder@physx@@QEAA_N_NPEAW4Enum@PxTriangleMeshCookingResult@2@@Z 000000018005337c     TriangleMeshBuilder.obj
 0002:0000d390       $chain$0$?cleanMesh@TriangleMeshBuilder@physx@@QEAA_N_NPEAW4Enum@PxTriangleMeshCookingResult@2@@Z 0000000180053390     TriangleMeshBuilder.obj
 0002:0000d3a4       $chain$1$?cleanMesh@TriangleMeshBuilder@physx@@QEAA_N_NPEAW4Enum@PxTriangleMeshCookingResult@2@@Z 00000001800533a4     TriangleMeshBuilder.obj
 0002:0000d3b8       $chain$2$?cleanMesh@TriangleMeshBuilder@physx@@QEAA_N_NPEAW4Enum@PxTriangleMeshCookingResult@2@@Z 00000001800533b8     TriangleMeshBuilder.obj
 0002:0000d3cc       $chain$3$?cleanMesh@TriangleMeshBuilder@physx@@QEAA_N_NPEAW4Enum@PxTriangleMeshCookingResult@2@@Z 00000001800533cc     TriangleMeshBuilder.obj
 0002:0000d3dc       $chain$7$?cleanMesh@TriangleMeshBuilder@physx@@QEAA_N_NPEAW4Enum@PxTriangleMeshCookingResult@2@@Z 00000001800533dc     TriangleMeshBuilder.obj
 0002:0000d3f8       $chain$4$?cleanMesh@TriangleMeshBuilder@physx@@QEAA_N_NPEAW4Enum@PxTriangleMeshCookingResult@2@@Z 00000001800533f8     TriangleMeshBuilder.obj
 0002:0000d408       $chain$8$?cleanMesh@TriangleMeshBuilder@physx@@QEAA_N_NPEAW4Enum@PxTriangleMeshCookingResult@2@@Z 0000000180053408     TriangleMeshBuilder.obj
 0002:0000d418       $unwind$?remapTopology@TriangleMeshBuilder@physx@@QEAAXPEBI@Z 0000000180053418     TriangleMeshBuilder.obj
 0002:0000d424       $chain$4$?remapTopology@TriangleMeshBuilder@physx@@QEAAXPEBI@Z 0000000180053424     TriangleMeshBuilder.obj
 0002:0000d448       $chain$5$?remapTopology@TriangleMeshBuilder@physx@@QEAAXPEBI@Z 0000000180053448     TriangleMeshBuilder.obj
 0002:0000d468       $chain$6$?remapTopology@TriangleMeshBuilder@physx@@QEAAXPEBI@Z 0000000180053468     TriangleMeshBuilder.obj
 0002:0000d478       $unwind$?createSharedEdgeData@TriangleMeshBuilder@physx@@QEAAX_N0@Z 0000000180053478     TriangleMeshBuilder.obj
 0002:0000d484       $chain$3$?createSharedEdgeData@TriangleMeshBuilder@physx@@QEAAX_N0@Z 0000000180053484     TriangleMeshBuilder.obj
 0002:0000d4a4       $chain$4$?createSharedEdgeData@TriangleMeshBuilder@physx@@QEAAX_N0@Z 00000001800534a4     TriangleMeshBuilder.obj
 0002:0000d4b8       $chain$5$?createSharedEdgeData@TriangleMeshBuilder@physx@@QEAAX_N0@Z 00000001800534b8     TriangleMeshBuilder.obj
 0002:0000d4c8       $chain$6$?createSharedEdgeData@TriangleMeshBuilder@physx@@QEAAX_N0@Z 00000001800534c8     TriangleMeshBuilder.obj
 0002:0000d4d8       $unwind$?createGRBMidPhaseAndData@TriangleMeshBuilder@physx@@QEAAXI@Z 00000001800534d8     TriangleMeshBuilder.obj
 0002:0000d4e4       $chain$0$?createGRBMidPhaseAndData@TriangleMeshBuilder@physx@@QEAAXI@Z 00000001800534e4     TriangleMeshBuilder.obj
 0002:0000d4f8       $chain$4$?createGRBMidPhaseAndData@TriangleMeshBuilder@physx@@QEAAXI@Z 00000001800534f8     TriangleMeshBuilder.obj
 0002:0000d518       $chain$5$?createGRBMidPhaseAndData@TriangleMeshBuilder@physx@@QEAAXI@Z 0000000180053518     TriangleMeshBuilder.obj
 0002:0000d534       $chain$6$?createGRBMidPhaseAndData@TriangleMeshBuilder@physx@@QEAAXI@Z 0000000180053534     TriangleMeshBuilder.obj
 0002:0000d548       $chain$7$?createGRBMidPhaseAndData@TriangleMeshBuilder@physx@@QEAAXI@Z 0000000180053548     TriangleMeshBuilder.obj
 0002:0000d55c       $chain$8$?createGRBMidPhaseAndData@TriangleMeshBuilder@physx@@QEAAXI@Z 000000018005355c     TriangleMeshBuilder.obj
 0002:0000d56c       $unwind$?loadFromDesc@TriangleMeshBuilder@physx@@QEAA_NAEBVPxTriangleMeshDesc@2@PEAW4Enum@PxTriangleMeshCookingResult@2@_N@Z 000000018005356c     TriangleMeshBuilder.obj
 0002:0000d57c       $chain$2$?loadFromDesc@TriangleMeshBuilder@physx@@QEAA_NAEBVPxTriangleMeshDesc@2@PEAW4Enum@PxTriangleMeshCookingResult@2@_N@Z 000000018005357c     TriangleMeshBuilder.obj
 0002:0000d598       $chain$4$?loadFromDesc@TriangleMeshBuilder@physx@@QEAA_NAEBVPxTriangleMeshDesc@2@PEAW4Enum@PxTriangleMeshCookingResult@2@_N@Z 0000000180053598     TriangleMeshBuilder.obj
 0002:0000d5b4       $chain$5$?loadFromDesc@TriangleMeshBuilder@physx@@QEAA_NAEBVPxTriangleMeshDesc@2@PEAW4Enum@PxTriangleMeshCookingResult@2@_N@Z 00000001800535b4     TriangleMeshBuilder.obj
 0002:0000d5c4       $unwind$?save@TriangleMeshBuilder@physx@@QEBA_NAEAVPxOutputStream@2@_NAEBUPxCookingParams@2@@Z 00000001800535c4     TriangleMeshBuilder.obj
 0002:0000d5e0       $chain$3$?save@TriangleMeshBuilder@physx@@QEBA_NAEAVPxOutputStream@2@_NAEBUPxCookingParams@2@@Z 00000001800535e0     TriangleMeshBuilder.obj
 0002:0000d5f4       $unwind$?checkMeshIndicesSize@TriangleMeshBuilder@physx@@QEAAXXZ 00000001800535f4     TriangleMeshBuilder.obj
 0002:0000d600       $chain$1$?checkMeshIndicesSize@TriangleMeshBuilder@physx@@QEAAXXZ 0000000180053600     TriangleMeshBuilder.obj
 0002:0000d618       $chain$2$?checkMeshIndicesSize@TriangleMeshBuilder@physx@@QEAAXXZ 0000000180053618     TriangleMeshBuilder.obj
 0002:0000d62c       $chain$3$?checkMeshIndicesSize@TriangleMeshBuilder@physx@@QEAAXXZ 000000018005362c     TriangleMeshBuilder.obj
 0002:0000d63c       $chain$4$?checkMeshIndicesSize@TriangleMeshBuilder@physx@@QEAAXXZ 000000018005363c     TriangleMeshBuilder.obj
 0002:0000d64c       $unwind$?importMesh@TriangleMeshBuilder@physx@@IEAA_NAEBVPxTriangleMeshDesc@2@AEBUPxCookingParams@2@PEAW4Enum@PxTriangleMeshCookingResult@2@_N@Z 000000018005364c     TriangleMeshBuilder.obj
 0002:0000d668       $unwind$?createMidPhaseStructure@RTreeTriangleMeshBuilder@physx@@UEAAXXZ 0000000180053668     TriangleMeshBuilder.obj
 0002:0000d670       $unwind$?saveMidPhaseStructure@RTreeTriangleMeshBuilder@physx@@UEBAXAEAVPxOutputStream@2@_N@Z 0000000180053670     TriangleMeshBuilder.obj
 0002:0000d680       $chain$0$?saveMidPhaseStructure@RTreeTriangleMeshBuilder@physx@@UEBAXAEAVPxOutputStream@2@_N@Z 0000000180053680     TriangleMeshBuilder.obj
 0002:0000d694       $chain$1$?saveMidPhaseStructure@RTreeTriangleMeshBuilder@physx@@UEBAXAEAVPxOutputStream@2@_N@Z 0000000180053694     TriangleMeshBuilder.obj
 0002:0000d6a4       $unwind$?createMidPhaseStructure@BV4TriangleMeshBuilder@physx@@UEAAXXZ 00000001800536a4     TriangleMeshBuilder.obj
 0002:0000d6b0       $chain$2$?createMidPhaseStructure@BV4TriangleMeshBuilder@physx@@UEAAXXZ 00000001800536b0     TriangleMeshBuilder.obj
 0002:0000d6cc       $chain$3$?createMidPhaseStructure@BV4TriangleMeshBuilder@physx@@UEAAXXZ 00000001800536cc     TriangleMeshBuilder.obj
 0002:0000d6e0       $chain$4$?createMidPhaseStructure@BV4TriangleMeshBuilder@physx@@UEAAXXZ 00000001800536e0     TriangleMeshBuilder.obj
 0002:0000d6f0       $chain$5$?createMidPhaseStructure@BV4TriangleMeshBuilder@physx@@UEAAXXZ 00000001800536f0     TriangleMeshBuilder.obj
 0002:0000d704       $unwind$?createMidPhaseStructure@BV32TriangleMeshBuilder@physx@@SAXAEBUPxCookingParams@2@AEAVTriangleMeshData@Gu@2@AEAVBV32Tree@52@@Z 0000000180053704     TriangleMeshBuilder.obj
 0002:0000d714       $chain$0$?createMidPhaseStructure@BV32TriangleMeshBuilder@physx@@SAXAEBUPxCookingParams@2@AEAVTriangleMeshData@Gu@2@AEAVBV32Tree@52@@Z 0000000180053714     TriangleMeshBuilder.obj
 0002:0000d728       $chain$1$?createMidPhaseStructure@BV32TriangleMeshBuilder@physx@@SAXAEBUPxCookingParams@2@AEAVTriangleMeshData@Gu@2@AEAVBV32Tree@52@@Z 0000000180053728     TriangleMeshBuilder.obj
 0002:0000d73c       $chain$2$?createMidPhaseStructure@BV32TriangleMeshBuilder@physx@@SAXAEBUPxCookingParams@2@AEAVTriangleMeshData@Gu@2@AEAVBV32Tree@52@@Z 000000018005373c     TriangleMeshBuilder.obj
 0002:0000d74c       $chain$3$?createMidPhaseStructure@BV32TriangleMeshBuilder@physx@@SAXAEBUPxCookingParams@2@AEAVTriangleMeshData@Gu@2@AEAVBV32Tree@52@@Z 000000018005374c     TriangleMeshBuilder.obj
 0002:0000d75c       $unwind$?findAdjacent@physx@@YAIPEBVPxVec3@1@0PEBUuint3@1@IIIAEBVPxPlane@1@PEAUEdgeTriLookup@1@I@Z 000000018005375c     TriangleMeshBuilder.obj
 0002:0000d780       $unwind$?buildAdjacencies@physx@@YAXPEAUuint4@1@PEAVPxVec3@1@PEBV31@PEBUuint3@1@I@Z 0000000180053780     TriangleMeshBuilder.obj
 0002:0000d78c       $chain$3$?buildAdjacencies@physx@@YAXPEAUuint4@1@PEAVPxVec3@1@PEBV31@PEBUuint3@1@I@Z 000000018005378c     TriangleMeshBuilder.obj
 0002:0000d7ac       $chain$7$?buildAdjacencies@physx@@YAXPEAUuint4@1@PEAVPxVec3@1@PEBV31@PEBUuint3@1@I@Z 00000001800537ac     TriangleMeshBuilder.obj
 0002:0000d7cc       $chain$11$?buildAdjacencies@physx@@YAXPEAUuint4@1@PEAVPxVec3@1@PEBV31@PEBUuint3@1@I@Z 00000001800537cc     TriangleMeshBuilder.obj
 0002:0000d7ec       $chain$12$?buildAdjacencies@physx@@YAXPEAUuint4@1@PEAVPxVec3@1@PEBV31@PEBUuint3@1@I@Z 00000001800537ec     TriangleMeshBuilder.obj
 0002:0000d7fc       $chain$13$?buildAdjacencies@physx@@YAXPEAUuint4@1@PEAVPxVec3@1@PEBV31@PEBUuint3@1@I@Z 00000001800537fc     TriangleMeshBuilder.obj
 0002:0000d80c       $chain$14$?buildAdjacencies@physx@@YAXPEAUuint4@1@PEAVPxVec3@1@PEBV31@PEBUuint3@1@I@Z 000000018005380c     TriangleMeshBuilder.obj
 0002:0000d81c       $unwind$??$sort@UEdgeTriLookup@physx@@U?$Less@UEdgeTriLookup@physx@@@shdfnd@2@V?$ReflectionAllocator@UEdgeTriLookup@physx@@@42@@shdfnd@physx@@YAXPEAUEdgeTriLookup@1@IAEBU?$Less@UEdgeTriLookup@physx@@@01@AEBV?$ReflectionAllocator@UEdgeTriLookup@physx@@@01@I@Z 000000018005381c     TriangleMeshBuilder.obj
 0002:0000d83c       $unwind$?precompute@BigConvexDataBuilder@physx@@QEAA_NI@Z 000000018005383c     BigConvexDataBuilder.obj
 0002:0000d854       $chain$10$?precompute@BigConvexDataBuilder@physx@@QEAA_NI@Z 0000000180053854     BigConvexDataBuilder.obj
 0002:0000d890       $chain$11$?precompute@BigConvexDataBuilder@physx@@QEAA_NI@Z 0000000180053890     BigConvexDataBuilder.obj
 0002:0000d8a0       $unwind$?save@BigConvexDataBuilder@physx@@QEBA_NAEAVPxOutputStream@2@_N@Z 00000001800538a0     BigConvexDataBuilder.obj
 0002:0000d8b0       $chain$0$?save@BigConvexDataBuilder@physx@@QEBA_NAEAVPxOutputStream@2@_N@Z 00000001800538b0     BigConvexDataBuilder.obj
 0002:0000d8c4       $chain$1$?save@BigConvexDataBuilder@physx@@QEBA_NAEAVPxOutputStream@2@_N@Z 00000001800538c4     BigConvexDataBuilder.obj
 0002:0000d8d8       $chain$2$?save@BigConvexDataBuilder@physx@@QEBA_NAEAVPxOutputStream@2@_N@Z 00000001800538d8     BigConvexDataBuilder.obj
 0002:0000d8e8       $chain$3$?save@BigConvexDataBuilder@physx@@QEBA_NAEAVPxOutputStream@2@_N@Z 00000001800538e8     BigConvexDataBuilder.obj
 0002:0000d8f8       $unwind$?computeValencies@BigConvexDataBuilder@physx@@QEAA_NAEBVConvexHullBuilder@2@@Z 00000001800538f8     BigConvexDataBuilder.obj
 0002:0000d90c       $chain$2$?computeValencies@BigConvexDataBuilder@physx@@QEAA_NAEBVConvexHullBuilder@2@@Z 000000018005390c     BigConvexDataBuilder.obj
 0002:0000d928       $chain$3$?computeValencies@BigConvexDataBuilder@physx@@QEAA_NAEBVConvexHullBuilder@2@@Z 0000000180053928     BigConvexDataBuilder.obj
 0002:0000d938       $unwind$?init@ConvexHullBuilder@physx@@QEAA_NIPEBVPxVec3@2@PEBIIIPEBUPxHullPolygon@2@_NPEAVConvexHullLib@2@@Z 0000000180053938     ConvexHullBuilder.obj
 0002:0000d950       $chain$0$?init@ConvexHullBuilder@physx@@QEAA_NIPEBVPxVec3@2@PEBIIIPEBUPxHullPolygon@2@_NPEAVConvexHullLib@2@@Z 0000000180053950     ConvexHullBuilder.obj
 0002:0000d964       $chain$2$?init@ConvexHullBuilder@physx@@QEAA_NIPEBVPxVec3@2@PEBIIIPEBUPxHullPolygon@2@_NPEAVConvexHullLib@2@@Z 0000000180053964     ConvexHullBuilder.obj
 0002:0000d97c       $chain$7$?init@ConvexHullBuilder@physx@@QEAA_NIPEBVPxVec3@2@PEBIIIPEBUPxHullPolygon@2@_NPEAVConvexHullLib@2@@Z 000000018005397c     ConvexHullBuilder.obj
 0002:0000d9a0       $chain$9$?init@ConvexHullBuilder@physx@@QEAA_NIPEBVPxVec3@2@PEBIIIPEBUPxHullPolygon@2@_NPEAVConvexHullLib@2@@Z 00000001800539a0     ConvexHullBuilder.obj
 0002:0000d9b8       $chain$10$?init@ConvexHullBuilder@physx@@QEAA_NIPEBVPxVec3@2@PEBIIIPEBUPxHullPolygon@2@_NPEAVConvexHullLib@2@@Z 00000001800539b8     ConvexHullBuilder.obj
 0002:0000d9cc       $chain$11$?init@ConvexHullBuilder@physx@@QEAA_NIPEBVPxVec3@2@PEBIIIPEBUPxHullPolygon@2@_NPEAVConvexHullLib@2@@Z 00000001800539cc     ConvexHullBuilder.obj
 0002:0000d9dc       $chain$12$?init@ConvexHullBuilder@physx@@QEAA_NIPEBVPxVec3@2@PEBIIIPEBUPxHullPolygon@2@_NPEAVConvexHullLib@2@@Z 00000001800539dc     ConvexHullBuilder.obj
 0002:0000d9ec       $chain$13$?init@ConvexHullBuilder@physx@@QEAA_NIPEBVPxVec3@2@PEBIIIPEBUPxHullPolygon@2@_NPEAVConvexHullLib@2@@Z 00000001800539ec     ConvexHullBuilder.obj
 0002:0000d9fc       $chain$14$?init@ConvexHullBuilder@physx@@QEAA_NIPEBVPxVec3@2@PEBIIIPEBUPxHullPolygon@2@_NPEAVConvexHullLib@2@@Z 00000001800539fc     ConvexHullBuilder.obj
 0002:0000da0c       $chain$15$?init@ConvexHullBuilder@physx@@QEAA_NIPEBVPxVec3@2@PEBIIIPEBUPxHullPolygon@2@_NPEAVConvexHullLib@2@@Z 0000000180053a0c     ConvexHullBuilder.obj
 0002:0000da1c       $chain$16$?init@ConvexHullBuilder@physx@@QEAA_NIPEBVPxVec3@2@PEBIIIPEBUPxHullPolygon@2@_NPEAVConvexHullLib@2@@Z 0000000180053a1c     ConvexHullBuilder.obj
 0002:0000da38       $chain$17$?init@ConvexHullBuilder@physx@@QEAA_NIPEBVPxVec3@2@PEBIIIPEBUPxHullPolygon@2@_NPEAVConvexHullLib@2@@Z 0000000180053a38     ConvexHullBuilder.obj
 0002:0000da4c       $unwind$?save@ConvexHullBuilder@physx@@QEBA_NAEAVPxOutputStream@2@_N@Z 0000000180053a4c     ConvexHullBuilder.obj
 0002:0000da5c       $chain$0$?save@ConvexHullBuilder@physx@@QEBA_NAEAVPxOutputStream@2@_N@Z 0000000180053a5c     ConvexHullBuilder.obj
 0002:0000da70       $chain$3$?save@ConvexHullBuilder@physx@@QEBA_NAEAVPxOutputStream@2@_N@Z 0000000180053a70     ConvexHullBuilder.obj
 0002:0000da8c       $chain$4$?save@ConvexHullBuilder@physx@@QEBA_NAEAVPxOutputStream@2@_N@Z 0000000180053a8c     ConvexHullBuilder.obj
 0002:0000daa0       $chain$5$?save@ConvexHullBuilder@physx@@QEBA_NAEAVPxOutputStream@2@_N@Z 0000000180053aa0     ConvexHullBuilder.obj
 0002:0000dab0       $unwind$?copy@ConvexHullBuilder@physx@@QEAA_NAEAUConvexHullData@Gu@2@AEAI@Z 0000000180053ab0     ConvexHullBuilder.obj
 0002:0000dab0       $unwind$??$copy_and_add_argument_to_buffer@D@@YAHQEBD0_KAEAV?$argument_list@D@?A0x5f5c8891@@@Z 0000000180053ab0     libucrt:argv_wildcards.obj
 0002:0000dacc       $unwind$?createEdgeList@ConvexHullBuilder@physx@@QEAA_N_NI@Z 0000000180053acc     ConvexHullBuilder.obj
 0002:0000dadc       $chain$4$?createEdgeList@ConvexHullBuilder@physx@@QEAA_N_NI@Z 0000000180053adc     ConvexHullBuilder.obj
 0002:0000db00       $chain$6$?createEdgeList@ConvexHullBuilder@physx@@QEAA_N_NI@Z 0000000180053b00     ConvexHullBuilder.obj
 0002:0000db24       $unwind$?checkHullPolygons@ConvexHullBuilder@physx@@QEBA_NXZ 0000000180053b24     ConvexHullBuilder.obj
 0002:0000db30       $chain$14$?checkHullPolygons@ConvexHullBuilder@physx@@QEBA_NXZ 0000000180053b30     ConvexHullBuilder.obj
 0002:0000db7c       $chain$16$?checkHullPolygons@ConvexHullBuilder@physx@@QEBA_NXZ 0000000180053b7c     ConvexHullBuilder.obj
 0002:0000dbc8       $chain$17$?checkHullPolygons@ConvexHullBuilder@physx@@QEBA_NXZ 0000000180053bc8     ConvexHullBuilder.obj
 0002:0000dbd8       $unwind$?calculateVertexMapTable@ConvexHullBuilder@physx@@QEAA_NI_N@Z 0000000180053bd8     ConvexHullBuilder.obj
 0002:0000dbf4       $unwind$?computeGeomCenter@ConvexHullBuilder@physx@@IEBA_NAEAVPxVec3@2@IPEAUHullTriangleData@2@@Z 0000000180053bf4     ConvexHullBuilder.obj
 0002:0000dbfc       $chain$1$?computeGeomCenter@ConvexHullBuilder@physx@@IEBA_NAEAVPxVec3@2@IPEAUHullTriangleData@2@@Z 0000000180053bfc     ConvexHullBuilder.obj
 0002:0000dc14       $chain$10$?computeGeomCenter@ConvexHullBuilder@physx@@IEBA_NAEAVPxVec3@2@IPEAUHullTriangleData@2@@Z 0000000180053c14     ConvexHullBuilder.obj
 0002:0000dc48       $chain$11$?computeGeomCenter@ConvexHullBuilder@physx@@IEBA_NAEAVPxVec3@2@IPEAUHullTriangleData@2@@Z 0000000180053c48     ConvexHullBuilder.obj
 0002:0000dc58       $chain$12$?computeGeomCenter@ConvexHullBuilder@physx@@IEBA_NAEAVPxVec3@2@IPEAUHullTriangleData@2@@Z 0000000180053c58     ConvexHullBuilder.obj
 0002:0000dc68       $chain$0$??$?_UE@@YAPEAX_KV?$ReflectionAllocator@E@shdfnd@physx@@PEBDH@Z 0000000180053c68     ConvexHullBuilder.obj
 0002:0000dc7c       $chain$1$??$?_UE@@YAPEAX_KV?$ReflectionAllocator@E@shdfnd@physx@@PEBDH@Z 0000000180053c7c     ConvexHullBuilder.obj
 0002:0000dc8c       $unwind$?cleanupVertices@ConvexHullLib@physx@@IEAA_NIPEBVPxVec3@2@IAEAIPEAV32@AEAV32@3@Z 0000000180053c8c     ConvexHullLib.obj
 0002:0000dcb4       $chain$6$?cleanupVertices@ConvexHullLib@physx@@IEAA_NIPEBVPxVec3@2@IAEAIPEAV32@AEAV32@3@Z 0000000180053cb4     ConvexHullLib.obj
 0002:0000dccc       $chain$12$?cleanupVertices@ConvexHullLib@physx@@IEAA_NIPEBVPxVec3@2@IAEAIPEAV32@AEAV32@3@Z 0000000180053ccc     ConvexHullLib.obj
 0002:0000dcf4       $chain$13$?cleanupVertices@ConvexHullLib@physx@@IEAA_NIPEBVPxVec3@2@IAEAIPEAV32@AEAV32@3@Z 0000000180053cf4     ConvexHullLib.obj
 0002:0000dd04       $chain$14$?cleanupVertices@ConvexHullLib@physx@@IEAA_NIPEBVPxVec3@2@IAEAIPEAV32@AEAV32@3@Z 0000000180053d04     ConvexHullLib.obj
 0002:0000dd14       $unwind$?shiftAndcleanupVertices@ConvexHullLib@physx@@IEAA_NIPEBVPxVec3@2@IAEAIPEAV32@AEAV32@3@Z 0000000180053d14     ConvexHullLib.obj
 0002:0000dd24       $chain$6$?shiftAndcleanupVertices@ConvexHullLib@physx@@IEAA_NIPEBVPxVec3@2@IAEAIPEAV32@AEAV32@3@Z 0000000180053d24     ConvexHullLib.obj
 0002:0000dd50       $chain$7$?shiftAndcleanupVertices@ConvexHullLib@physx@@IEAA_NIPEBVPxVec3@2@IAEAIPEAV32@AEAV32@3@Z 0000000180053d50     ConvexHullLib.obj
 0002:0000dd74       $chain$12$?shiftAndcleanupVertices@ConvexHullLib@physx@@IEAA_NIPEBVPxVec3@2@IAEAIPEAV32@AEAV32@3@Z 0000000180053d74     ConvexHullLib.obj
 0002:0000dd98       $chain$13$?shiftAndcleanupVertices@ConvexHullLib@physx@@IEAA_NIPEBVPxVec3@2@IAEAIPEAV32@AEAV32@3@Z 0000000180053d98     ConvexHullLib.obj
 0002:0000dda8       $chain$14$?shiftAndcleanupVertices@ConvexHullLib@physx@@IEAA_NIPEBVPxVec3@2@IAEAIPEAV32@AEAV32@3@Z 0000000180053da8     ConvexHullLib.obj
 0002:0000ddb8       $unwind$?swapLargestFace@ConvexHullLib@physx@@IEAAXAEAVPxConvexMeshDesc@2@@Z 0000000180053db8     ConvexHullLib.obj
 0002:0000ddc8       $chain$1$?swapLargestFace@ConvexHullLib@physx@@IEAAXAEAVPxConvexMeshDesc@2@@Z 0000000180053dc8     ConvexHullLib.obj
 0002:0000dde0       $chain$2$?swapLargestFace@ConvexHullLib@physx@@IEAAXAEAVPxConvexMeshDesc@2@@Z 0000000180053de0     ConvexHullLib.obj
 0002:0000ddf4       $chain$3$?swapLargestFace@ConvexHullLib@physx@@IEAAXAEAVPxConvexMeshDesc@2@@Z 0000000180053df4     ConvexHullLib.obj
 0002:0000de04       $chain$4$?swapLargestFace@ConvexHullLib@physx@@IEAAXAEAVPxConvexMeshDesc@2@@Z 0000000180053e04     ConvexHullLib.obj
 0002:0000de14       $unwind$?checkPointsAABBValidity@local@@YA_NIPEBVPxVec3@physx@@IMMAEAV23@1AEAIPEAV23@_N@Z 0000000180053e14     ConvexHullLib.obj
 0002:0000de30       $chain$5$?checkPointsAABBValidity@local@@YA_NIPEBVPxVec3@physx@@IMMAEAV23@1AEAIPEAV23@_N@Z 0000000180053e30     ConvexHullLib.obj
 0002:0000de58       $chain$6$?checkPointsAABBValidity@local@@YA_NIPEBVPxVec3@physx@@IMMAEAV23@1AEAIPEAV23@_N@Z 0000000180053e58     ConvexHullLib.obj
 0002:0000de68       $unwind$??0PxQuat@physx@@QEAA@AEBVPxMat33@1@@Z 0000000180053e68     ConvexHullUtils.obj
 0002:0000de68       $unwind$?UScore@UnDecorator@@SA?AUStringLiteral@@W4Tokens@@@Z 0000000180053e68     libvcruntime:undname.obj
 0002:0000de70       $chain$0$??0PxQuat@physx@@QEAA@AEBVPxMat33@1@@Z 0000000180053e70     ConvexHullUtils.obj
 0002:0000de84       $chain$1$??0PxQuat@physx@@QEAA@AEBVPxMat33@1@@Z 0000000180053e84     ConvexHullUtils.obj
 0002:0000de94       $unwind$?getInverse@PxMat33@physx@@QEBA?BV12@XZ 0000000180053e94     ConvexHullUtils.obj
 0002:0000deb4       $chain$1$?getInverse@PxMat33@physx@@QEBA?BV12@XZ 0000000180053eb4     ConvexHullUtils.obj
 0002:0000decc       $chain$2$?getInverse@PxMat33@physx@@QEBA?BV12@XZ 0000000180053ecc     ConvexHullUtils.obj
 0002:0000dedc       $unwind$??0ConvexHull@physx@@QEAA@AEBVPxVec3@1@AEBVPxTransform@1@AEBV?$Array@VPxPlane@physx@@V?$ReflectionAllocator@VPxPlane@physx@@@shdfnd@2@@shdfnd@1@@Z 0000000180053edc     ConvexHullUtils.obj
 0002:0000df14       $unwind$?findCandidatePlane@ConvexHull@physx@@QEBAHMM@Z 0000000180053f14     ConvexHullUtils.obj
 0002:0000df2c       $chain$11$?findCandidatePlane@ConvexHull@physx@@QEBAHMM@Z 0000000180053f2c     ConvexHullUtils.obj
 0002:0000df6c       $chain$12$?findCandidatePlane@ConvexHull@physx@@QEBAHMM@Z 0000000180053f6c     ConvexHullUtils.obj
 0002:0000df7c       $chain$13$?findCandidatePlane@ConvexHull@physx@@QEBAHMM@Z 0000000180053f7c     ConvexHullUtils.obj
 0002:0000dfbc       $unwind$?assertIntact@ConvexHull@physx@@QEBA_NM@Z 0000000180053fbc     ConvexHullUtils.obj
 0002:0000e000       $unwind$?maxNumVertsPerFace@ConvexHull@physx@@QEBAIXZ 0000000180054000     ConvexHullUtils.obj
 0002:0000e00c       $chain$0$?maxNumVertsPerFace@ConvexHull@physx@@QEBAIXZ 000000018005400c     ConvexHullUtils.obj
 0002:0000e020       $chain$1$?maxNumVertsPerFace@ConvexHull@physx@@QEBAIXZ 0000000180054020     ConvexHullUtils.obj
 0002:0000e030       $chain$1$?allocate@?$Array@VHalfEdge@ConvexHull@physx@@V?$ReflectionAllocator@VHalfEdge@ConvexHull@physx@@@shdfnd@3@@shdfnd@physx@@IEAAPEAVHalfEdge@ConvexHull@3@I@Z 0000000180054030     ConvexHullUtils.obj
 0002:0000e048       $chain$3$?allocate@?$Array@VHalfEdge@ConvexHull@physx@@V?$ReflectionAllocator@VHalfEdge@ConvexHull@physx@@@shdfnd@3@@shdfnd@physx@@IEAAPEAVHalfEdge@ConvexHull@3@I@Z 0000000180054048     ConvexHullUtils.obj
 0002:0000e05c       $chain$4$?allocate@?$Array@VHalfEdge@ConvexHull@physx@@V?$ReflectionAllocator@VHalfEdge@ConvexHull@physx@@@shdfnd@3@@shdfnd@physx@@IEAAPEAVHalfEdge@ConvexHull@3@I@Z 000000018005405c     ConvexHullUtils.obj
 0002:0000e06c       $chain$0$?recreate@?$Array@VHalfEdge@ConvexHull@physx@@V?$ReflectionAllocator@VHalfEdge@ConvexHull@physx@@@shdfnd@3@@shdfnd@physx@@IEAAXI@Z 000000018005406c     ConvexHullUtils.obj
 0002:0000e080       $chain$1$?recreate@?$Array@VHalfEdge@ConvexHull@physx@@V?$ReflectionAllocator@VHalfEdge@ConvexHull@physx@@@shdfnd@3@@shdfnd@physx@@IEAAXI@Z 0000000180054080     ConvexHullUtils.obj
 0002:0000e090       $chain$1$?allocate@?$Array@VPxPlane@physx@@V?$ReflectionAllocator@VPxPlane@physx@@@shdfnd@2@@shdfnd@physx@@IEAAPEAVPxPlane@3@I@Z 0000000180054090     ConvexHullUtils.obj
 0002:0000e0a8       $chain$3$?allocate@?$Array@VPxPlane@physx@@V?$ReflectionAllocator@VPxPlane@physx@@@shdfnd@2@@shdfnd@physx@@IEAAPEAVPxPlane@3@I@Z 00000001800540a8     ConvexHullUtils.obj
 0002:0000e0bc       $chain$4$?allocate@?$Array@VPxPlane@physx@@V?$ReflectionAllocator@VPxPlane@physx@@@shdfnd@2@@shdfnd@physx@@IEAAPEAVPxPlane@3@I@Z 00000001800540bc     ConvexHullUtils.obj
 0002:0000e0cc       $chain$0$?recreate@?$Array@VPxPlane@physx@@V?$ReflectionAllocator@VPxPlane@physx@@@shdfnd@2@@shdfnd@physx@@IEAAXI@Z 00000001800540cc     ConvexHullUtils.obj
 0002:0000e0e0       $chain$1$?recreate@?$Array@VPxPlane@physx@@V?$ReflectionAllocator@VPxPlane@physx@@@shdfnd@2@@shdfnd@physx@@IEAAXI@Z 00000001800540e0     ConvexHullUtils.obj
 0002:0000e0f0       $unwind$?convexHullCrop@physx@@YAPEAVConvexHull@1@AEBV21@AEBVPxPlane@1@M@Z 00000001800540f0     ConvexHullUtils.obj
 0002:0000e100       $chain$5$?convexHullCrop@physx@@YAPEAVConvexHull@1@AEBV21@AEBVPxPlane@1@M@Z 0000000180054100     ConvexHullUtils.obj
 0002:0000e128       $chain$6$?convexHullCrop@physx@@YAPEAVConvexHull@1@AEBV21@AEBVPxPlane@1@M@Z 0000000180054128     ConvexHullUtils.obj
 0002:0000e13c       $chain$7$?convexHullCrop@physx@@YAPEAVConvexHull@1@AEBV21@AEBVPxPlane@1@M@Z 000000018005413c     ConvexHullUtils.obj
 0002:0000e13c       $chain$9$?convexHullCrop@physx@@YAPEAVConvexHull@1@AEBV21@AEBVPxPlane@1@M@Z 000000018005413c     ConvexHullUtils.obj
 0002:0000e14c       $chain$8$?convexHullCrop@physx@@YAPEAVConvexHull@1@AEBV21@AEBVPxPlane@1@M@Z 000000018005414c     ConvexHullUtils.obj
 0002:0000e160       $chain$10$?convexHullCrop@physx@@YAPEAVConvexHull@1@AEBV21@AEBVPxPlane@1@M@Z 0000000180054160     ConvexHullUtils.obj
 0002:0000e170       $unwind$?computeOBBFromConvex@physx@@YA_NAEBVPxConvexMeshDesc@1@AEAVPxVec3@1@AEAVPxTransform@1@@Z 0000000180054170     ConvexHullUtils.obj
 0002:0000e194       $chain$4$?computeOBBFromConvex@physx@@YA_NAEBVPxConvexMeshDesc@1@AEAVPxVec3@1@AEAVPxTransform@1@@Z 0000000180054194     ConvexHullUtils.obj
 0002:0000e1b8       $chain$5$?computeOBBFromConvex@physx@@YA_NAEBVPxConvexMeshDesc@1@AEAVPxVec3@1@AEAVPxTransform@1@@Z 00000001800541b8     ConvexHullUtils.obj
 0002:0000e1c8       $unwind$?rotate@Box@Gu@physx@@QEBA?AVPxVec3@3@AEBV43@@Z 00000001800541c8     ConvexHullUtils.obj
 0002:0000e1d4       $unwind$?rotateInv@Box@Gu@physx@@QEBA?AVPxVec3@3@AEBV43@@Z 00000001800541d4     ConvexHullUtils.obj
 0002:0000e1d4       $unwind$?transform@Box@Gu@physx@@QEBA?AVPxVec3@3@AEBV43@@Z 00000001800541d4     ConvexHullUtils.obj
 0002:0000e1e0       $unwind$?computeAABBExtent@Box@Gu@physx@@QEBA?AVPxVec3@3@XZ 00000001800541e0     ConvexHullUtils.obj
 0002:0000e1ec       $unwind$?computeOBBSIMD@local@@YAXIPEBT__m128@@AEAT2@AEBT2@1@Z 00000001800541ec     ConvexHullUtils.obj
 0002:0000e218       $chain$1$?computeOBBSIMD@local@@YAXIPEBT__m128@@AEAT2@AEBT2@1@Z 0000000180054218     ConvexHullUtils.obj
 0002:0000e230       $chain$2$?computeOBBSIMD@local@@YAXIPEBT__m128@@AEAT2@AEBT2@1@Z 0000000180054230     ConvexHullUtils.obj
 0002:0000e240       $unwind$?build@ConvexMeshBuilder@physx@@QEAA_NAEBVPxConvexMeshDesc@2@I_NPEAVConvexHullLib@2@@Z 0000000180054240     ConvexMeshBuilder.obj
 0002:0000e250       $chain$0$?build@ConvexMeshBuilder@physx@@QEAA_NAEBVPxConvexMeshDesc@2@I_NPEAVConvexHullLib@2@@Z 0000000180054250     ConvexMeshBuilder.obj
 0002:0000e264       $chain$2$?build@ConvexMeshBuilder@physx@@QEAA_NAEBVPxConvexMeshDesc@2@I_NPEAVConvexHullLib@2@@Z 0000000180054264     ConvexMeshBuilder.obj
 0002:0000e27c       $chain$3$?build@ConvexMeshBuilder@physx@@QEAA_NAEBVPxConvexMeshDesc@2@I_NPEAVConvexHullLib@2@@Z 000000018005427c     ConvexMeshBuilder.obj
 0002:0000e28c       $chain$4$?build@ConvexMeshBuilder@physx@@QEAA_NAEBVPxConvexMeshDesc@2@I_NPEAVConvexHullLib@2@@Z 000000018005428c     ConvexMeshBuilder.obj
 0002:0000e29c       $unwind$?save@ConvexMeshBuilder@physx@@QEBA_NAEAVPxOutputStream@2@_N@Z 000000018005429c     ConvexMeshBuilder.obj
 0002:0000e2ac       $chain$0$?save@ConvexMeshBuilder@physx@@QEBA_NAEAVPxOutputStream@2@_N@Z 00000001800542ac     ConvexMeshBuilder.obj
 0002:0000e2c0       $chain$1$?save@ConvexMeshBuilder@physx@@QEBA_NAEAVPxOutputStream@2@_N@Z 00000001800542c0     ConvexMeshBuilder.obj
 0002:0000e2d0       $unwind$?loadConvexHull@ConvexMeshBuilder@physx@@QEAA_NAEBVPxConvexMeshDesc@2@PEAVConvexHullLib@2@@Z 00000001800542d0     ConvexMeshBuilder.obj
 0002:0000e2f0       $unwind$?computeHullPolygons@ConvexMeshBuilder@physx@@QEAA_NAEBIPEBVPxVec3@2@0PEBIAEAVPxAllocatorCallback@2@AEAIAEAPEAV32@4AEAPEAI4AEAPEAUPxHullPolygon@2@@Z 00000001800542f0     ConvexMeshBuilder.obj
 0002:0000e2fc       $chain$3$?computeHullPolygons@ConvexMeshBuilder@physx@@QEAA_NAEBIPEBVPxVec3@2@0PEBIAEAVPxAllocatorCallback@2@AEAIAEAPEAV32@4AEAPEAI4AEAPEAUPxHullPolygon@2@@Z 00000001800542fc     ConvexMeshBuilder.obj
 0002:0000e318       $chain$4$?computeHullPolygons@ConvexMeshBuilder@physx@@QEAA_NAEBIPEBVPxVec3@2@0PEBIAEAVPxAllocatorCallback@2@AEAIAEAPEAV32@4AEAPEAI4AEAPEAUPxHullPolygon@2@@Z 0000000180054318     ConvexMeshBuilder.obj
 0002:0000e32c       $unwind$?computeMassInfo@ConvexMeshBuilder@physx@@QEAAX_N@Z 000000018005432c     ConvexMeshBuilder.obj
 0002:0000e33c       $chain$0$?computeMassInfo@ConvexMeshBuilder@physx@@QEAAX_N@Z 000000018005433c     ConvexMeshBuilder.obj
 0002:0000e350       $chain$1$?computeMassInfo@ConvexMeshBuilder@physx@@QEAAX_N@Z 0000000180054350     ConvexMeshBuilder.obj
 0002:0000e364       $chain$5$?computeMassInfo@ConvexMeshBuilder@physx@@QEAAX_N@Z 0000000180054364     ConvexMeshBuilder.obj
 0002:0000e384       $chain$6$?computeMassInfo@ConvexMeshBuilder@physx@@QEAAX_N@Z 0000000180054384     ConvexMeshBuilder.obj
 0002:0000e394       $chain$7$?computeMassInfo@ConvexMeshBuilder@physx@@QEAAX_N@Z 0000000180054394     ConvexMeshBuilder.obj
 0002:0000e3a4       $chain$8$?computeMassInfo@ConvexMeshBuilder@physx@@QEAAX_N@Z 00000001800543a4     ConvexMeshBuilder.obj
 0002:0000e3b4       $unwind$?ComputeInternalExtent@@YAXAEAUConvexHullData@Gu@physx@@PEBUHullPolygonData@23@@Z 00000001800543b4     ConvexMeshBuilder.obj
 0002:0000e3e0       $chain$0$?ComputeInternalExtent@@YAXAEAUConvexHullData@Gu@physx@@PEBUHullPolygonData@23@@Z 00000001800543e0     ConvexMeshBuilder.obj
 0002:0000e3f4       $chain$1$?ComputeInternalExtent@@YAXAEAUConvexHullData@Gu@physx@@PEBUHullPolygonData@23@@Z 00000001800543f4     ConvexMeshBuilder.obj
 0002:0000e404       $unwind$?computeHullPolygons@ConvexPolygonsBuilder@physx@@QEAA_NAEBIPEBVPxVec3@2@0PEBI@Z 0000000180054404     ConvexPolygonsBuilder.obj
 0002:0000e428       $chain$0$?computeHullPolygons@ConvexPolygonsBuilder@physx@@QEAA_NAEBIPEBVPxVec3@2@0PEBI@Z 0000000180054428     ConvexPolygonsBuilder.obj
 0002:0000e43c       $chain$8$?computeHullPolygons@ConvexPolygonsBuilder@physx@@QEAA_NAEBIPEBVPxVec3@2@0PEBI@Z 000000018005443c     ConvexPolygonsBuilder.obj
 0002:0000e46c       $chain$9$?computeHullPolygons@ConvexPolygonsBuilder@physx@@QEAA_NAEBIPEBVPxVec3@2@0PEBI@Z 000000018005446c     ConvexPolygonsBuilder.obj
 0002:0000e49c       $unwind$?createPolygonData@ConvexPolygonsBuilder@physx@@AEAA_NXZ 000000018005449c     ConvexPolygonsBuilder.obj
 0002:0000e4ac       $chain$0$?createPolygonData@ConvexPolygonsBuilder@physx@@AEAA_NXZ 00000001800544ac     ConvexPolygonsBuilder.obj
 0002:0000e4c0       $chain$6$?createPolygonData@ConvexPolygonsBuilder@physx@@AEAA_NXZ 00000001800544c0     ConvexPolygonsBuilder.obj
 0002:0000e4e8       $chain$7$?createPolygonData@ConvexPolygonsBuilder@physx@@AEAA_NXZ 00000001800544e8     ConvexPolygonsBuilder.obj
 0002:0000e4f8       $chain$8$?createPolygonData@ConvexPolygonsBuilder@physx@@AEAA_NXZ 00000001800544f8     ConvexPolygonsBuilder.obj
 0002:0000e508       $chain$9$?createPolygonData@ConvexPolygonsBuilder@physx@@AEAA_NXZ 0000000180054508     ConvexPolygonsBuilder.obj
 0002:0000e534       $chain$17$?createPolygonData@ConvexPolygonsBuilder@physx@@AEAA_NXZ 0000000180054534     ConvexPolygonsBuilder.obj
 0002:0000e564       $chain$18$?createPolygonData@ConvexPolygonsBuilder@physx@@AEAA_NXZ 0000000180054564     ConvexPolygonsBuilder.obj
 0002:0000e574       $unwind$?createTrianglesFromPolygons@ConvexPolygonsBuilder@physx@@AEAA_NXZ 0000000180054574     ConvexPolygonsBuilder.obj
 0002:0000e598       $chain$3$?createTrianglesFromPolygons@ConvexPolygonsBuilder@physx@@AEAA_NXZ 0000000180054598     ConvexPolygonsBuilder.obj
 0002:0000e5b8       $chain$4$?createTrianglesFromPolygons@ConvexPolygonsBuilder@physx@@AEAA_NXZ 00000001800545b8     ConvexPolygonsBuilder.obj
 0002:0000e5c8       $unwind$?findLineStrip@@YA_NAEAV?$Array@IV?$ReflectionAllocator@I@shdfnd@physx@@@shdfnd@physx@@AEBV?$Array@VPair@@V?$ReflectionAllocator@VPair@@@shdfnd@physx@@@23@@Z 00000001800545c8     ConvexPolygonsBuilder.obj
 0002:0000e5d4       $chain$3$?findLineStrip@@YA_NAEAV?$Array@IV?$ReflectionAllocator@I@shdfnd@physx@@@shdfnd@physx@@AEBV?$Array@VPair@@V?$ReflectionAllocator@VPair@@@shdfnd@physx@@@23@@Z 00000001800545d4     ConvexPolygonsBuilder.obj
 0002:0000e5f4       $chain$5$?findLineStrip@@YA_NAEAV?$Array@IV?$ReflectionAllocator@I@shdfnd@physx@@@shdfnd@physx@@AEBV?$Array@VPair@@V?$ReflectionAllocator@VPair@@@shdfnd@physx@@@23@@Z 00000001800545f4     ConvexPolygonsBuilder.obj
 0002:0000e60c       $chain$6$?findLineStrip@@YA_NAEAV?$Array@IV?$ReflectionAllocator@I@shdfnd@physx@@@shdfnd@physx@@AEBV?$Array@VPair@@V?$ReflectionAllocator@VPair@@@shdfnd@physx@@@23@@Z 000000018005460c     ConvexPolygonsBuilder.obj
 0002:0000e61c       $chain$7$?findLineStrip@@YA_NAEAV?$Array@IV?$ReflectionAllocator@I@shdfnd@physx@@@shdfnd@physx@@AEBV?$Array@VPair@@V?$ReflectionAllocator@VPair@@@shdfnd@physx@@@23@@Z 000000018005461c     ConvexPolygonsBuilder.obj
 0002:0000e644       $chain$1$?allocate@?$Array@VPair@@V?$ReflectionAllocator@VPair@@@shdfnd@physx@@@shdfnd@physx@@IEAAPEAVPair@@I@Z 0000000180054644     ConvexPolygonsBuilder.obj
 0002:0000e65c       $chain$3$?allocate@?$Array@VPair@@V?$ReflectionAllocator@VPair@@@shdfnd@physx@@@shdfnd@physx@@IEAAPEAVPair@@I@Z 000000018005465c     ConvexPolygonsBuilder.obj
 0002:0000e670       $chain$4$?allocate@?$Array@VPair@@V?$ReflectionAllocator@VPair@@@shdfnd@physx@@@shdfnd@physx@@IEAAPEAVPair@@I@Z 0000000180054670     ConvexPolygonsBuilder.obj
 0002:0000e680       $unwind$?TestDuplicateTriangles@@YA_NAEAIPEAU?$TriangleT@I@Gu@physx@@_N@Z 0000000180054680     ConvexPolygonsBuilder.obj
 0002:0000e69c       $unwind$?checkRedundantVertices@@YAXAEAIAEAV?$Array@IV?$ReflectionAllocator@I@shdfnd@physx@@@shdfnd@physx@@AEBVConvexPolygonsBuilder@3@11@Z 000000018005469c     ConvexPolygonsBuilder.obj
 0002:0000e6b8       $unwind$?extractHullPolygons@@YA_NAEAIAEAV?$Array@IV?$ReflectionAllocator@I@shdfnd@physx@@@shdfnd@physx@@AEBVConvexPolygonsBuilder@3@PEAV123@1@Z 00000001800546b8     ConvexPolygonsBuilder.obj
 0002:0000e6d4       $unwind$?FloodFill@Local@?7??extractHullPolygons@@YA_NAEAIAEAV?$Array@IV?$ReflectionAllocator@I@shdfnd@physx@@@shdfnd@physx@@AEBVConvexPolygonsBuilder@5@PEAV345@1@Z@SAX1PEBVAdjTriangle@5@IPEA_N@Z 00000001800546d4     ConvexPolygonsBuilder.obj
 0002:0000e6e4       $chain$0$?FloodFill@Local@?7??extractHullPolygons@@YA_NAEAIAEAV?$Array@IV?$ReflectionAllocator@I@shdfnd@physx@@@shdfnd@physx@@AEBVConvexPolygonsBuilder@5@PEAV345@1@Z@SAX1PEBVAdjTriangle@5@IPEA_N@Z 00000001800546e4     ConvexPolygonsBuilder.obj
 0002:0000e6f8       $chain$1$?FloodFill@Local@?7??extractHullPolygons@@YA_NAEAIAEAV?$Array@IV?$ReflectionAllocator@I@shdfnd@physx@@@shdfnd@physx@@AEBVConvexPolygonsBuilder@5@PEAV345@1@Z@SAX1PEBVAdjTriangle@5@IPEA_N@Z 00000001800546f8     ConvexPolygonsBuilder.obj
 0002:0000e708       $unwind$?CheckFloodFillFace@Local@?7??extractHullPolygons@@YA_NAEAIAEAV?$Array@IV?$ReflectionAllocator@I@shdfnd@physx@@@shdfnd@physx@@AEBVConvexPolygonsBuilder@5@PEAV345@1@Z@SA_NIPEBVAdjTriangle@5@PEBI@Z 0000000180054708     ConvexPolygonsBuilder.obj
 0002:0000e720       $unwind$?createConvexHull@QuickHullConvexHullLib@physx@@UEAA?AW4Enum@PxConvexMeshCookingResult@2@XZ 0000000180054720     QuickHullConvexHullLib.obj
 0002:0000e738       $unwind$?createEdgeList@QuickHullConvexHullLib@physx@@UEAA_NIPEBEPEAPEAEPEAPEAG2@Z 0000000180054738     QuickHullConvexHullLib.obj
 0002:0000e758       $unwind$?expandHullOBB@QuickHullConvexHullLib@physx@@IEAA?AW4Enum@PxConvexMeshCookingResult@2@XZ 0000000180054758     QuickHullConvexHullLib.obj
 0002:0000e764       $chain$4$?expandHullOBB@QuickHullConvexHullLib@physx@@IEAA?AW4Enum@PxConvexMeshCookingResult@2@XZ 0000000180054764     QuickHullConvexHullLib.obj
 0002:0000e788       $chain$5$?expandHullOBB@QuickHullConvexHullLib@physx@@IEAA?AW4Enum@PxConvexMeshCookingResult@2@XZ 0000000180054788     QuickHullConvexHullLib.obj
 0002:0000e79c       $chain$6$?expandHullOBB@QuickHullConvexHullLib@physx@@IEAA?AW4Enum@PxConvexMeshCookingResult@2@XZ 000000018005479c     QuickHullConvexHullLib.obj
 0002:0000e7ac       $chain$7$?expandHullOBB@QuickHullConvexHullLib@physx@@IEAA?AW4Enum@PxConvexMeshCookingResult@2@XZ 00000001800547ac     QuickHullConvexHullLib.obj
 0002:0000e7bc       $unwind$?expandHull@QuickHullConvexHullLib@physx@@IEAA?AW4Enum@PxConvexMeshCookingResult@2@XZ 00000001800547bc     QuickHullConvexHullLib.obj
 0002:0000e7e0       $unwind$?cleanupForSimplex@QuickHullConvexHullLib@physx@@IEAA_NPEAVPxVec3@2@IPEAUQuickHullVertex@local@@1AEAM2@Z 00000001800547e0     QuickHullConvexHullLib.obj
 0002:0000e804       $chain$4$?cleanupForSimplex@QuickHullConvexHullLib@physx@@IEAA_NPEAVPxVec3@2@IPEAUQuickHullVertex@local@@1AEAM2@Z 0000000180054804     QuickHullConvexHullLib.obj
 0002:0000e828       $chain$6$?cleanupForSimplex@QuickHullConvexHullLib@physx@@IEAA_NPEAVPxVec3@2@IPEAUQuickHullVertex@local@@1AEAM2@Z 0000000180054828     QuickHullConvexHullLib.obj
 0002:0000e840       $chain$7$?cleanupForSimplex@QuickHullConvexHullLib@physx@@IEAA_NPEAVPxVec3@2@IPEAUQuickHullVertex@local@@1AEAM2@Z 0000000180054840     QuickHullConvexHullLib.obj
 0002:0000e854       $chain$8$?cleanupForSimplex@QuickHullConvexHullLib@physx@@IEAA_NPEAVPxVec3@2@IPEAUQuickHullVertex@local@@1AEAM2@Z 0000000180054854     QuickHullConvexHullLib.obj
 0002:0000e868       $chain$9$?cleanupForSimplex@QuickHullConvexHullLib@physx@@IEAA_NPEAVPxVec3@2@IPEAUQuickHullVertex@local@@1AEAM2@Z 0000000180054868     QuickHullConvexHullLib.obj
 0002:0000e878       $chain$10$?cleanupForSimplex@QuickHullConvexHullLib@physx@@IEAA_NPEAVPxVec3@2@IPEAUQuickHullVertex@local@@1AEAM2@Z 0000000180054878     QuickHullConvexHullLib.obj
 0002:0000e888       $chain$11$?cleanupForSimplex@QuickHullConvexHullLib@physx@@IEAA_NPEAVPxVec3@2@IPEAUQuickHullVertex@local@@1AEAM2@Z 0000000180054888     QuickHullConvexHullLib.obj
 0002:0000e898       $chain$12$?cleanupForSimplex@QuickHullConvexHullLib@physx@@IEAA_NPEAVPxVec3@2@IPEAUQuickHullVertex@local@@1AEAM2@Z 0000000180054898     QuickHullConvexHullLib.obj
 0002:0000e8a8       $unwind$?fillConvexMeshDescFromQuickHull@QuickHullConvexHullLib@physx@@IEAAXAEAVPxConvexMeshDesc@2@@Z 00000001800548a8     QuickHullConvexHullLib.obj
 0002:0000e8c0       $unwind$?fillConvexMeshDescFromCroppedHull@QuickHullConvexHullLib@physx@@IEAAXAEAVPxConvexMeshDesc@2@@Z 00000001800548c0     QuickHullConvexHullLib.obj
 0002:0000e8d8       $chain$0$??_GConvexHull@physx@@QEAAPEAXI@Z 00000001800548d8     QuickHullConvexHullLib.obj
 0002:0000e8ec       $chain$1$??_GConvexHull@physx@@QEAAPEAXI@Z 00000001800548ec     QuickHullConvexHullLib.obj
 0002:0000e8fc       $unwind$?mergeAdjacentFace@QuickHullFace@local@@QEAA_NPEAUQuickHullHalfEdge@2@AEAV?$Array@PEAUQuickHullFace@local@@V?$ReflectionAllocator@PEAUQuickHullFace@local@@@shdfnd@physx@@@shdfnd@physx@@@Z 00000001800548fc     QuickHullConvexHullLib.obj
 0002:0000e914       $chain$4$?mergeAdjacentFace@QuickHullFace@local@@QEAA_NPEAUQuickHullHalfEdge@2@AEAV?$Array@PEAUQuickHullFace@local@@V?$ReflectionAllocator@PEAUQuickHullFace@local@@@shdfnd@physx@@@shdfnd@physx@@@Z 0000000180054914     QuickHullConvexHullLib.obj
 0002:0000e938       $chain$5$?mergeAdjacentFace@QuickHullFace@local@@QEAA_NPEAUQuickHullHalfEdge@2@AEAV?$Array@PEAUQuickHullFace@local@@V?$ReflectionAllocator@PEAUQuickHullFace@local@@@shdfnd@physx@@@shdfnd@physx@@@Z 0000000180054938     QuickHullConvexHullLib.obj
 0002:0000e938       $chain$8$?mergeAdjacentFace@QuickHullFace@local@@QEAA_NPEAUQuickHullHalfEdge@2@AEAV?$Array@PEAUQuickHullFace@local@@V?$ReflectionAllocator@PEAUQuickHullFace@local@@@shdfnd@physx@@@shdfnd@physx@@@Z 0000000180054938     QuickHullConvexHullLib.obj
 0002:0000e948       $chain$6$?mergeAdjacentFace@QuickHullFace@local@@QEAA_NPEAUQuickHullHalfEdge@2@AEAV?$Array@PEAUQuickHullFace@local@@V?$ReflectionAllocator@PEAUQuickHullFace@local@@@shdfnd@physx@@@shdfnd@physx@@@Z 0000000180054948     QuickHullConvexHullLib.obj
 0002:0000e96c       $chain$7$?mergeAdjacentFace@QuickHullFace@local@@QEAA_NPEAUQuickHullHalfEdge@2@AEAV?$Array@PEAUQuickHullFace@local@@V?$ReflectionAllocator@PEAUQuickHullFace@local@@@shdfnd@physx@@@shdfnd@physx@@@Z 000000018005496c     QuickHullConvexHullLib.obj
 0002:0000e980       $unwind$?connectHalfEdges@QuickHullFace@local@@AEAAPEAU12@PEAUQuickHullHalfEdge@2@0@Z 0000000180054980     QuickHullConvexHullLib.obj
 0002:0000e988       $chain$0$?connectHalfEdges@QuickHullFace@local@@AEAAPEAU12@PEAUQuickHullHalfEdge@2@0@Z 0000000180054988     QuickHullConvexHullLib.obj
 0002:0000e99c       $chain$4$?connectHalfEdges@QuickHullFace@local@@AEAAPEAU12@PEAUQuickHullHalfEdge@2@0@Z 000000018005499c     QuickHullConvexHullLib.obj
 0002:0000e9bc       $chain$5$?connectHalfEdges@QuickHullFace@local@@AEAAPEAU12@PEAUQuickHullHalfEdge@2@0@Z 00000001800549bc     QuickHullConvexHullLib.obj
 0002:0000e9cc       $chain$6$?connectHalfEdges@QuickHullFace@local@@AEAAPEAU12@PEAUQuickHullHalfEdge@2@0@Z 00000001800549cc     QuickHullConvexHullLib.obj
 0002:0000e9dc       $unwind$?parseInputVertices@QuickHull@local@@QEAAXPEBVPxVec3@physx@@I@Z 00000001800549dc     QuickHullConvexHullLib.obj
 0002:0000e9ec       $chain$0$?parseInputVertices@QuickHull@local@@QEAAXPEBVPxVec3@physx@@I@Z 00000001800549ec     QuickHullConvexHullLib.obj
 0002:0000ea00       $chain$1$?parseInputVertices@QuickHull@local@@QEAAXPEBVPxVec3@physx@@I@Z 0000000180054a00     QuickHullConvexHullLib.obj
 0002:0000ea10       $unwind$?buildHull@QuickHull@local@@QEAA?AW4Enum@QuickHullResult@2@XZ 0000000180054a10     QuickHullConvexHullLib.obj
 0002:0000ea24       $unwind$?computeMinMaxVerts@QuickHull@local@@IEAAXXZ 0000000180054a24     QuickHullConvexHullLib.obj
 0002:0000ea30       $unwind$?findSimplex@QuickHull@local@@IEAA_NXZ 0000000180054a30     QuickHullConvexHullLib.obj
 0002:0000ea44       $chain$8$?findSimplex@QuickHull@local@@IEAA_NXZ 0000000180054a44     QuickHullConvexHullLib.obj
 0002:0000ea78       $chain$12$?findSimplex@QuickHull@local@@IEAA_NXZ 0000000180054a78     QuickHullConvexHullLib.obj
 0002:0000ea98       $chain$13$?findSimplex@QuickHull@local@@IEAA_NXZ 0000000180054a98     QuickHullConvexHullLib.obj
 0002:0000ea98       $chain$15$?findSimplex@QuickHull@local@@IEAA_NXZ 0000000180054a98     QuickHullConvexHullLib.obj
 0002:0000eacc       $chain$14$?findSimplex@QuickHull@local@@IEAA_NXZ 0000000180054acc     QuickHullConvexHullLib.obj
 0002:0000eb10       $chain$16$?findSimplex@QuickHull@local@@IEAA_NXZ 0000000180054b10     QuickHullConvexHullLib.obj
 0002:0000eb20       $unwind$?addSimplex@QuickHull@local@@IEAAXPEAUQuickHullVertex@2@_N@Z 0000000180054b20     QuickHullConvexHullLib.obj
 0002:0000eb34       $chain$2$?addSimplex@QuickHull@local@@IEAAXPEAUQuickHullVertex@2@_N@Z 0000000180054b34     QuickHullConvexHullLib.obj
 0002:0000eb50       $chain$8$?addSimplex@QuickHull@local@@IEAAXPEAUQuickHullVertex@2@_N@Z 0000000180054b50     QuickHullConvexHullLib.obj
 0002:0000eb74       $chain$3$?addSimplex@QuickHull@local@@IEAAXPEAUQuickHullVertex@2@_N@Z 0000000180054b74     QuickHullConvexHullLib.obj
 0002:0000eb84       $unwind$?nextPointToAdd@QuickHull@local@@IEAAPEAUQuickHullVertex@2@AEAPEAUQuickHullFace@2@@Z 0000000180054b84     QuickHullConvexHullLib.obj
 0002:0000eb98       $unwind$?addPointToHull@QuickHull@local@@IEAA_NPEBUQuickHullVertex@2@AEAUQuickHullFace@2@AEA_N@Z 0000000180054b98     QuickHullConvexHullLib.obj
 0002:0000ebac       $chain$1$?addPointToHull@QuickHull@local@@IEAA_NPEBUQuickHullVertex@2@AEAUQuickHullFace@2@AEA_N@Z 0000000180054bac     QuickHullConvexHullLib.obj
 0002:0000ebc4       $chain$2$?addPointToHull@QuickHull@local@@IEAA_NPEBUQuickHullVertex@2@AEAUQuickHullFace@2@AEA_N@Z 0000000180054bc4     QuickHullConvexHullLib.obj
 0002:0000ebd8       $unwind$?createTriangle@QuickHull@local@@IEAAPEAUQuickHullFace@2@AEBUQuickHullVertex@2@00@Z 0000000180054bd8     QuickHullConvexHullLib.obj
 0002:0000ec00       $unwind$?calculateHorizon@QuickHull@local@@IEAAXAEBVPxVec3@physx@@PEAUQuickHullHalfEdge@2@AEAUQuickHullFace@2@AEAV?$Array@PEAUQuickHullHalfEdge@local@@V?$ReflectionAllocator@PEAUQuickHullHalfEdge@local@@@shdfnd@physx@@@shdfnd@4@AEAV?$Array@PEAUQuickHullFace@local@@V?$ReflectionAllocator@PEAUQuickHullFace@local@@@shdfnd@physx@@@84@@Z 0000000180054c00     QuickHullConvexHullLib.obj
 0002:0000ec18       $unwind$?doAdjacentMerge@QuickHull@local@@IEAA_NAEAUQuickHullFace@2@_NAEA_N@Z 0000000180054c18     QuickHullConvexHullLib.obj
 0002:0000ec28       $chain$1$?doAdjacentMerge@QuickHull@local@@IEAA_NAEAUQuickHullFace@2@_NAEA_N@Z 0000000180054c28     QuickHullConvexHullLib.obj
 0002:0000ec40       $chain$2$?doAdjacentMerge@QuickHull@local@@IEAA_NAEAUQuickHullFace@2@_NAEA_N@Z 0000000180054c40     QuickHullConvexHullLib.obj
 0002:0000ec54       $chain$3$?doAdjacentMerge@QuickHull@local@@IEAA_NAEAUQuickHullFace@2@_NAEA_N@Z 0000000180054c54     QuickHullConvexHullLib.obj
 0002:0000ec64       $unwind$?resolveUnclaimedPoints@QuickHull@local@@IEAAXAEBV?$Array@PEAUQuickHullFace@local@@V?$ReflectionAllocator@PEAUQuickHullFace@local@@@shdfnd@physx@@@shdfnd@physx@@@Z 0000000180054c64     QuickHullConvexHullLib.obj
 0002:0000ec74       $chain$1$?resolveUnclaimedPoints@QuickHull@local@@IEAAXAEBV?$Array@PEAUQuickHullFace@local@@V?$ReflectionAllocator@PEAUQuickHullFace@local@@@shdfnd@physx@@@shdfnd@physx@@@Z 0000000180054c74     QuickHullConvexHullLib.obj
 0002:0000ec8c       $chain$2$?resolveUnclaimedPoints@QuickHull@local@@IEAAXAEBV?$Array@PEAUQuickHullFace@local@@V?$ReflectionAllocator@PEAUQuickHullFace@local@@@shdfnd@physx@@@shdfnd@physx@@@Z 0000000180054c8c     QuickHullConvexHullLib.obj
 0002:0000ec9c       $unwind$?postMergeHull@QuickHull@local@@IEAAXXZ 0000000180054c9c     QuickHullConvexHullLib.obj
 0002:0000eca8       $chain$5$?postMergeHull@QuickHull@local@@IEAAXXZ 0000000180054ca8     QuickHullConvexHullLib.obj
 0002:0000ecd0       $chain$6$?postMergeHull@QuickHull@local@@IEAAXXZ 0000000180054cd0     QuickHullConvexHullLib.obj
 0002:0000ece0       $chain$7$?postMergeHull@QuickHull@local@@IEAAXXZ 0000000180054ce0     QuickHullConvexHullLib.obj
 0002:0000ed08       $unwind$?canMergeFaces@QuickHull@local@@IEAA_NAEBUQuickHullHalfEdge@2@@Z 0000000180054d08     QuickHullConvexHullLib.obj
 0002:0000ed4c       $unwind$?init@?$MemBlock@UQuickHullHalfEdge@local@@$0A@@local@@QEAAXI@Z 0000000180054d4c     QuickHullConvexHullLib.obj
 0002:0000ed58       $unwind$??1?$MemBlock@UQuickHullFace@local@@$00@local@@QEAA@XZ 0000000180054d58     QuickHullConvexHullLib.obj
 0002:0000ed58       $unwind$??1?$MemBlock@UQuickHullHalfEdge@local@@$0A@@local@@QEAA@XZ 0000000180054d58     QuickHullConvexHullLib.obj
 0002:0000ed64       $chain$0$??1?$MemBlock@UQuickHullFace@local@@$00@local@@QEAA@XZ 0000000180054d64     QuickHullConvexHullLib.obj
 0002:0000ed64       $chain$0$??1?$MemBlock@UQuickHullHalfEdge@local@@$0A@@local@@QEAA@XZ 0000000180054d64     QuickHullConvexHullLib.obj
 0002:0000ed78       $chain$1$??1?$MemBlock@UQuickHullFace@local@@$00@local@@QEAA@XZ 0000000180054d78     QuickHullConvexHullLib.obj
 0002:0000ed78       $chain$1$??1?$MemBlock@UQuickHullHalfEdge@local@@$0A@@local@@QEAA@XZ 0000000180054d78     QuickHullConvexHullLib.obj
 0002:0000ed88       $unwind$?getFreeItem@?$MemBlock@UQuickHullHalfEdge@local@@$0A@@local@@QEAAPEAUQuickHullHalfEdge@2@XZ 0000000180054d88     QuickHullConvexHullLib.obj
 0002:0000ed94       $chain$1$?allocate@?$Array@PEAUQuickHullHalfEdge@local@@V?$ReflectionAllocator@PEAUQuickHullHalfEdge@local@@@shdfnd@physx@@@shdfnd@physx@@IEAAPEAPEAUQuickHullHalfEdge@local@@I@Z 0000000180054d94     QuickHullConvexHullLib.obj
 0002:0000edac       $chain$3$?allocate@?$Array@PEAUQuickHullHalfEdge@local@@V?$ReflectionAllocator@PEAUQuickHullHalfEdge@local@@@shdfnd@physx@@@shdfnd@physx@@IEAAPEAPEAUQuickHullHalfEdge@local@@I@Z 0000000180054dac     QuickHullConvexHullLib.obj
 0002:0000edc0       $chain$4$?allocate@?$Array@PEAUQuickHullHalfEdge@local@@V?$ReflectionAllocator@PEAUQuickHullHalfEdge@local@@@shdfnd@physx@@@shdfnd@physx@@IEAAPEAPEAUQuickHullHalfEdge@local@@I@Z 0000000180054dc0     QuickHullConvexHullLib.obj
 0002:0000edd0       $chain$0$?recreate@?$Array@PEAUQuickHullHalfEdge@local@@V?$ReflectionAllocator@PEAUQuickHullHalfEdge@local@@@shdfnd@physx@@@shdfnd@physx@@IEAAXI@Z 0000000180054dd0     QuickHullConvexHullLib.obj
 0002:0000ede4       $chain$1$?recreate@?$Array@PEAUQuickHullHalfEdge@local@@V?$ReflectionAllocator@PEAUQuickHullHalfEdge@local@@@shdfnd@physx@@@shdfnd@physx@@IEAAXI@Z 0000000180054de4     QuickHullConvexHullLib.obj
 0002:0000edf4       $unwind$?init@?$MemBlock@UQuickHullFace@local@@$00@local@@QEAAXI@Z 0000000180054df4     QuickHullConvexHullLib.obj
 0002:0000ee04       $unwind$?getFreeItem@?$MemBlock@UQuickHullFace@local@@$00@local@@QEAAPEAUQuickHullFace@2@XZ 0000000180054e04     QuickHullConvexHullLib.obj
 0002:0000ee14       $chain$1$?allocate@?$Array@PEAUQuickHullFace@local@@V?$ReflectionAllocator@PEAUQuickHullFace@local@@@shdfnd@physx@@@shdfnd@physx@@IEAAPEAPEAUQuickHullFace@local@@I@Z 0000000180054e14     QuickHullConvexHullLib.obj
 0002:0000ee2c       $chain$3$?allocate@?$Array@PEAUQuickHullFace@local@@V?$ReflectionAllocator@PEAUQuickHullFace@local@@@shdfnd@physx@@@shdfnd@physx@@IEAAPEAPEAUQuickHullFace@local@@I@Z 0000000180054e2c     QuickHullConvexHullLib.obj
 0002:0000ee40       $chain$4$?allocate@?$Array@PEAUQuickHullFace@local@@V?$ReflectionAllocator@PEAUQuickHullFace@local@@@shdfnd@physx@@@shdfnd@physx@@IEAAPEAPEAUQuickHullFace@local@@I@Z 0000000180054e40     QuickHullConvexHullLib.obj
 0002:0000ee50       $chain$0$?recreate@?$Array@PEAUQuickHullFace@local@@V?$ReflectionAllocator@PEAUQuickHullFace@local@@@shdfnd@physx@@@shdfnd@physx@@IEAAXI@Z 0000000180054e50     QuickHullConvexHullLib.obj
 0002:0000ee64       $chain$1$?recreate@?$Array@PEAUQuickHullFace@local@@V?$ReflectionAllocator@PEAUQuickHullFace@local@@@shdfnd@physx@@@shdfnd@physx@@IEAAXI@Z 0000000180054e64     QuickHullConvexHullLib.obj
 0002:0000ee74       $chain$1$?allocate@?$Array@PEAUQuickHullVertex@local@@V?$ReflectionAllocator@PEAUQuickHullVertex@local@@@shdfnd@physx@@@shdfnd@physx@@IEAAPEAPEAUQuickHullVertex@local@@I@Z 0000000180054e74     QuickHullConvexHullLib.obj
 0002:0000ee8c       $chain$3$?allocate@?$Array@PEAUQuickHullVertex@local@@V?$ReflectionAllocator@PEAUQuickHullVertex@local@@@shdfnd@physx@@@shdfnd@physx@@IEAAPEAPEAUQuickHullVertex@local@@I@Z 0000000180054e8c     QuickHullConvexHullLib.obj
 0002:0000eea0       $chain$4$?allocate@?$Array@PEAUQuickHullVertex@local@@V?$ReflectionAllocator@PEAUQuickHullVertex@local@@@shdfnd@physx@@@shdfnd@physx@@IEAAPEAPEAUQuickHullVertex@local@@I@Z 0000000180054ea0     QuickHullConvexHullLib.obj
 0002:0000eeb0       $chain$0$?recreate@?$Array@PEAUQuickHullVertex@local@@V?$ReflectionAllocator@PEAUQuickHullVertex@local@@@shdfnd@physx@@@shdfnd@physx@@IEAAXI@Z 0000000180054eb0     QuickHullConvexHullLib.obj
 0002:0000eec4       $chain$1$?recreate@?$Array@PEAUQuickHullVertex@local@@V?$ReflectionAllocator@PEAUQuickHullVertex@local@@@shdfnd@physx@@@shdfnd@physx@@IEAAXI@Z 0000000180054ec4     QuickHullConvexHullLib.obj
 0002:0000eed4       $chain$1$?allocate@?$Array@UExpandPoint@local@@V?$ReflectionAllocator@UExpandPoint@local@@@shdfnd@physx@@@shdfnd@physx@@IEAAPEAUExpandPoint@local@@I@Z 0000000180054ed4     QuickHullConvexHullLib.obj
 0002:0000eeec       $chain$3$?allocate@?$Array@UExpandPoint@local@@V?$ReflectionAllocator@UExpandPoint@local@@@shdfnd@physx@@@shdfnd@physx@@IEAAPEAUExpandPoint@local@@I@Z 0000000180054eec     QuickHullConvexHullLib.obj
 0002:0000ef00       $chain$4$?allocate@?$Array@UExpandPoint@local@@V?$ReflectionAllocator@UExpandPoint@local@@@shdfnd@physx@@@shdfnd@physx@@IEAAPEAUExpandPoint@local@@I@Z 0000000180054f00     QuickHullConvexHullLib.obj
 0002:0000ef10       $chain$0$?recreate@?$Array@UExpandPoint@local@@V?$ReflectionAllocator@UExpandPoint@local@@@shdfnd@physx@@@shdfnd@physx@@IEAAXI@Z 0000000180054f10     QuickHullConvexHullLib.obj
 0002:0000ef24       $chain$1$?recreate@?$Array@UExpandPoint@local@@V?$ReflectionAllocator@UExpandPoint@local@@@shdfnd@physx@@@shdfnd@physx@@IEAAXI@Z 0000000180054f24     QuickHullConvexHullLib.obj
 0002:0000ef34       $unwind$?computeVolumeIntegralsEberly@physx@@YA_NAEBVPxConvexMeshDesc@1@MAEAUPxIntegrals@1@AEBVPxVec3@1@@Z 0000000180054f34     VolumeIntegration.obj
 0002:0000ef34       $unwind$?computeVolumeIntegralsEberlySIMD@physx@@YA_NAEBVPxConvexMeshDesc@1@MAEAUPxIntegrals@1@AEBVPxVec3@1@@Z 0000000180054f34     VolumeIntegration.obj
 0002:0000ef34       $unwind$__unDName          0000000180054f34     libvcruntime:undname.obj
 0002:0000ef34       $unwind$_raise_exc         0000000180054f34     libucrt:fpexcept.obj
 0002:0000ef34       $unwind$_raise_excf        0000000180054f34     libucrt:fpexcept.obj
 0002:0000ef3c       $unwind$?computeVolumeIntegralsSIMD@VolumeIntegratorEberly@?A0x1f64996d@physx@@QEAA_NAEAUPxIntegrals@3@AEBVPxVec3@3@@Z 0000000180054f3c     VolumeIntegration.obj
 0002:0000ef74       $chain$1$?computeVolumeIntegralsSIMD@VolumeIntegratorEberly@?A0x1f64996d@physx@@QEAA_NAEAUPxIntegrals@3@AEBVPxVec3@3@@Z 0000000180054f74     VolumeIntegration.obj
 0002:0000ef8c       $chain$2$?computeVolumeIntegralsSIMD@VolumeIntegratorEberly@?A0x1f64996d@physx@@QEAA_NAEAUPxIntegrals@3@AEBVPxVec3@3@@Z 0000000180054f8c     VolumeIntegration.obj
 0002:0000ef9c       $unwind$?computeVolumeIntegrals@VolumeIntegratorEberly@?A0x1f64996d@physx@@QEAA_NAEAUPxIntegrals@3@AEBVPxVec3@3@@Z 0000000180054f9c     VolumeIntegration.obj
 0002:0000efd4       $chain$0$?computeVolumeIntegrals@VolumeIntegratorEberly@?A0x1f64996d@physx@@QEAA_NAEAUPxIntegrals@3@AEBVPxVec3@3@@Z 0000000180054fd4     VolumeIntegration.obj
 0002:0000efe8       $chain$3$?computeVolumeIntegrals@VolumeIntegratorEberly@?A0x1f64996d@physx@@QEAA_NAEAUPxIntegrals@3@AEBVPxVec3@3@@Z 0000000180054fe8     VolumeIntegration.obj
 0002:0000f004       $chain$4$?computeVolumeIntegrals@VolumeIntegratorEberly@?A0x1f64996d@physx@@QEAA_NAEAUPxIntegrals@3@AEBVPxVec3@3@@Z 0000000180055004     VolumeIntegration.obj
 0002:0000f014       $chain$5$?computeVolumeIntegrals@VolumeIntegratorEberly@?A0x1f64996d@physx@@QEAA_NAEAUPxIntegrals@3@AEBVPxVec3@3@@Z 0000000180055014     VolumeIntegration.obj
 0002:0000f024       $chain$1$?cookingDelayHook@@YAP6A_JXZIPEAUDelayLoadInfo@@@Z 0000000180055024     WindowsCookingDelayLoadHook.obj
 0002:0000f03c       $chain$3$?cookingDelayHook@@YAP6A_JXZIPEAUDelayLoadInfo@@@Z 000000018005503c     WindowsCookingDelayLoadHook.obj
 0002:0000f03c       $chain$5$?cookingDelayHook@@YAP6A_JXZIPEAUDelayLoadInfo@@@Z 000000018005503c     WindowsCookingDelayLoadHook.obj
 0002:0000f054       $chain$6$?cookingDelayHook@@YAP6A_JXZIPEAUDelayLoadInfo@@@Z 0000000180055054     WindowsCookingDelayLoadHook.obj
 0002:0000f064       xdata                      0000000180055064     PhysXCommon_64:PhysXCommon_64.dll
 0002:0000f06c       xdata                      000000018005506c     PhysXFoundation_64:PhysXFoundation_64.dll
 0002:0000f074       $unwind$?DloadObtainSection@@YAPEAXPEAK0@Z 0000000180055074     Delayimp:delayhlp.obj
 0002:0000f074       $unwind$strstr             0000000180055074     libvcruntime:strstr.obj
 0002:0000f084       $unwind$?DloadProtectSection@@YAXKPEAK@Z 0000000180055084     Delayimp:delayhlp.obj
 0002:0000f094       $unwind$__delayLoadHelper2 0000000180055094     Delayimp:delayhlp.obj
 0002:0000f0b0       $xdatasym                  00000001800550b0     LIBCMT:chkstk.obj
 0002:0000f0b8       $unwind$?dllmain_crt_process_attach@@YAHQEAUHINSTANCE__@@QEAX@Z 00000001800550b8     LIBCMT:dll_dllmain.obj
 0002:0000f0f4       $unwind$?fin$0@?0??dllmain_crt_process_attach@@YAHQEAUHINSTANCE__@@QEAX@Z@4HA 00000001800550f4     LIBCMT:dll_dllmain.obj
 0002:0000f0f4       $unwind$?fin$0@?0??dllmain_crt_process_detach@@YAH_N@Z@4HA 00000001800550f4     LIBCMT:dll_dllmain.obj
 0002:0000f0f4       $unwind$?fin$1@?0??dllmain_crt_process_detach@@YAH_N@Z@4HA 00000001800550f4     LIBCMT:dll_dllmain.obj
 0002:0000f0f4       $unwind$_IsNonwritableInCurrentImage$filt$0 00000001800550f4     LIBCMT:pesect.obj
 0002:0000f0f4       $unwind$?filt$0@?0??CxxCallCatchBlock@__FrameHandler4@@SAPEAXPEAU_EXCEPTION_RECORD@@@Z@4HA 00000001800550f4     libvcruntime:frame.obj
 0002:0000f0f4       $unwind$__unDNameEx$fin$0  00000001800550f4     libvcruntime:undname.obj
 0002:0000f0f4       $unwind$_query_new_handler$fin$0 00000001800550f4     libucrt:new_handler.obj
 0002:0000f0f4       $unwind$?fin$0@?0???$?RV<lambda_0ae27a3a962d80f24befdcbee591983d>@@AEAV<lambda_8d0ee55de4b1038c4002e0adecdf1839>@@V<lambda_dc504788e8f1664fe9b84e20bfb512f2>@@@?$__crt_seh_guarded_call@X@@QEAAX$$QEAV<lambda_0ae27a3a962d80f24befdcbee591983d>@@AEAV<lambda_8d0ee55de4b1038c4002e0adecdf1839>@@$$QEAV<lambda_dc504788e8f1664fe9b84e20bfb512f2>@@@Z@4HA 00000001800550f4     libucrt:per_thread_data.obj
 0002:0000f0f4       $unwind$?fin$0@?0???$?RV<lambda_2d41944a1d46af3157314b8a01080d33>@@AEAV<lambda_8f455de75cd7d7f24b4096f044d8b9e6>@@V<lambda_aa500f224e6afead328df44964fe2772>@@@?$__crt_seh_guarded_call@X@@QEAAX$$QEAV<lambda_2d41944a1d46af3157314b8a01080d33>@@AEAV<lambda_8f455de75cd7d7f24b4096f044d8b9e6>@@$$QEAV<lambda_aa500f224e6afead328df44964fe2772>@@@Z@4HA 00000001800550f4     libucrt:per_thread_data.obj
 0002:0000f0f4       $unwind$?fin$0@?0???$?RV<lambda_aa87e3671a710a21b5dc78c0bdf72e11>@@AEAV<lambda_92619d2358a28f41a33ba319515a20b9>@@V<lambda_6992ecaafeb10aed2b74cb1fae11a551>@@@?$__crt_seh_guarded_call@X@@QEAAX$$QEAV<lambda_aa87e3671a710a21b5dc78c0bdf72e11>@@AEAV<lambda_92619d2358a28f41a33ba319515a20b9>@@$$QEAV<lambda_6992ecaafeb10aed2b74cb1fae11a551>@@@Z@4HA 00000001800550f4     libucrt:per_thread_data.obj
 0002:0000f0f4       $unwind$?fin$0@?0???$?RV<lambda_f2e299630e499de9f9a165e60fcd3db5>@@AEAV<lambda_2ae9d31cdba2644fcbeaf08da7c24588>@@V<lambda_40d01ff24d0e7b3814fdbdcee8eab3c7>@@@?$__crt_seh_guarded_call@X@@QEAAX$$QEAV<lambda_f2e299630e499de9f9a165e60fcd3db5>@@AEAV<lambda_2ae9d31cdba2644fcbeaf08da7c24588>@@$$QEAV<lambda_40d01ff24d0e7b3814fdbdcee8eab3c7>@@@Z@4HA 00000001800550f4     libucrt:per_thread_data.obj
 0002:0000f0f4       $unwind$__acrt_update_thread_locale_data$fin$0 00000001800550f4     libucrt:locale_refcounting.obj
 0002:0000f0f4       $unwind$?fin$0@?0???$?RV<lambda_410d79af7f07d98d83a3f525b3859a53>@@AEAV<lambda_3e16ef9562a7dcce91392c22ab16ea36>@@V<lambda_38119f0e861e05405d8a144b9b982f0a>@@@?$__crt_seh_guarded_call@X@@QEAAX$$QEAV<lambda_410d79af7f07d98d83a3f525b3859a53>@@AEAV<lambda_3e16ef9562a7dcce91392c22ab16ea36>@@$$QEAV<lambda_38119f0e861e05405d8a144b9b982f0a>@@@Z@4HA 00000001800550f4     libucrt:wsetlocale.obj
 0002:0000f0f4       $unwind$?fin$0@?0???$?RV<lambda_751a882b2c74d4b022dec766aa51a29a>@@AEAV<lambda_628dfdc04ba53c8bfc02c9951375f3f5>@@V<lambda_f6c7be5f7998530c34de24c7437d6b54>@@@?$__crt_seh_guarded_call@H@@QEAAH$$QEAV<lambda_751a882b2c74d4b022dec766aa51a29a>@@AEAV<lambda_628dfdc04ba53c8bfc02c9951375f3f5>@@$$QEAV<lambda_f6c7be5f7998530c34de24c7437d6b54>@@@Z@4HA 00000001800550f4     libucrt:close.obj
 0002:0000f0f4       $unwind$?fin$0@?0???$?RV<lambda_a37b2b86f63e897a80ea819b0eb08c01>@@AEAV<lambda_38ce7e780aa69e748d6df282ebc68efe>@@V<lambda_99fb1378e971ab6e7edea83e3a7a83a2>@@@?$__crt_seh_guarded_call@H@@QEAAH$$QEAV<lambda_a37b2b86f63e897a80ea819b0eb08c01>@@AEAV<lambda_38ce7e780aa69e748d6df282ebc68efe>@@$$QEAV<lambda_99fb1378e971ab6e7edea83e3a7a83a2>@@@Z@4HA 00000001800550f4     libucrt:commit.obj
 0002:0000f0f4       $unwind$__acrt_initialize_lowio$fin$0 00000001800550f4     libucrt:ioinit.obj
 0002:0000f0f4       $unwind$__acrt_lowio_ensure_fh_exists$fin$0 00000001800550f4     libucrt:osfinfo.obj
 0002:0000f0f4       $unwind$_write$fin$0       00000001800550f4     libucrt:write.obj
 0002:0000f0f4       $unwind$?fin$0@?0???$?RV<lambda_efdfa57d1f175319df784efa44bb7b81>@@AEAV<lambda_5f0a4c1567f8adc6734073e5d1e1b35c>@@V<lambda_2e8a7d3640ea6ccb4c2413664c2db6fd>@@@?$__crt_seh_guarded_call@X@@QEAAX$$QEAV<lambda_efdfa57d1f175319df784efa44bb7b81>@@AEAV<lambda_5f0a4c1567f8adc6734073e5d1e1b35c>@@$$QEAV<lambda_2e8a7d3640ea6ccb4c2413664c2db6fd>@@@Z@4HA 00000001800550f4     libucrt:mbctype.obj
 0002:0000f0f4       $unwind$?fin$0@?0??update_thread_multibyte_data_internal@@YAPEAU__crt_multibyte_data@@QEAU__acrt_ptd@@QEAPEAU1@@Z@4HA 00000001800550f4     libucrt:mbctype.obj
 0002:0000f0f4       $unwind$?fin$0@?0???$?RV<lambda_450d765d439847d4c735a33c368b5fc0>@@AEAV<lambda_44731a7d0e6d81c3e6aa82d741081786>@@V<lambda_601a2a7da3b7a96e9554ac7215c4b07c>@@@?$__crt_seh_guarded_call@P6AXH@Z@@QEAAP6AXH@Z$$QEAV<lambda_450d765d439847d4c735a33c368b5fc0>@@AEAV<lambda_44731a7d0e6d81c3e6aa82d741081786>@@$$QEAV<lambda_601a2a7da3b7a96e9554ac7215c4b07c>@@@Z@4HA 00000001800550f4     libucrt:signal.obj
 0002:0000f0f4       $unwind$raise$fin$0        00000001800550f4     libucrt:signal.obj
 0002:0000f0f4       $unwind$?filt$0@?0???R<lambda_6e4b09c48022b2350581041d5f6b0c4c>@@QEBA@XZ@4HA 00000001800550f4     libucrt:exit.obj
 0002:0000f0f4       $unwind$?fin$0@?0???$?RV<lambda_d80eeec6fff315bfe5c115232f3240e3>@@AEAV<lambda_6e4b09c48022b2350581041d5f6b0c4c>@@V<lambda_2358e3775559c9db80273638284d5e45>@@@?$__crt_seh_guarded_call@X@@QEAAX$$QEAV<lambda_d80eeec6fff315bfe5c115232f3240e3>@@AEAV<lambda_6e4b09c48022b2350581041d5f6b0c4c>@@$$QEAV<lambda_2358e3775559c9db80273638284d5e45>@@@Z@4HA 00000001800550f4     libucrt:exit.obj
 0002:0000f0f4       $unwind$?fin$0@?0???$?RV<lambda_7777bce6b2f8c936911f934f8298dc43>@@AEAV<lambda_f03950bc5685219e0bcd2087efbe011e>@@V<lambda_3883c3dff614d5e0c5f61bb1ac94921c>@@@?$__crt_seh_guarded_call@H@@QEAAH$$QEAV<lambda_7777bce6b2f8c936911f934f8298dc43>@@AEAV<lambda_f03950bc5685219e0bcd2087efbe011e>@@$$QEAV<lambda_3883c3dff614d5e0c5f61bb1ac94921c>@@@Z@4HA 00000001800550f4     libucrt:onexit.obj
 0002:0000f0f4       $unwind$_fcloseall$fin$0   00000001800550f4     libucrt:closeall.obj
 0002:0000f0f4       $unwind$fclose$fin$0       00000001800550f4     libucrt:fclose.obj
 0002:0000f0f4       $unwind$?fin$0@?0???$?RV<lambda_842d9ff0dc9ef11c61343bbaebe7f885>@@AEAV<lambda_c5860995281e5c4ce005b3de8f5874ee>@@V<lambda_d90129c13df834fdcbf8d2b88dafcf2d>@@@?$__crt_seh_guarded_call@X@@QEAAX$$QEAV<lambda_842d9ff0dc9ef11c61343bbaebe7f885>@@AEAV<lambda_c5860995281e5c4ce005b3de8f5874ee>@@$$QEAV<lambda_d90129c13df834fdcbf8d2b88dafcf2d>@@@Z@4HA 00000001800550f4     libucrt:fflush.obj
 0002:0000f0f4       $unwind$?fin$0@?0???$?RV<lambda_886d6c58226a84441f68b9f2b8217b83>@@AEAV<lambda_ab61a845afdef5b7c387490eaf3616ee>@@V<lambda_f7f22ab5edc0698d5f6905b0d3f44752>@@@?$__crt_seh_guarded_call@X@@QEAAX$$QEAV<lambda_886d6c58226a84441f68b9f2b8217b83>@@AEAV<lambda_ab61a845afdef5b7c387490eaf3616ee>@@$$QEAV<lambda_f7f22ab5edc0698d5f6905b0d3f44752>@@@Z@4HA 00000001800550f4     libucrt:fflush.obj
 0002:0000f0f4       $unwind$_ctrlfp$filt$0     00000001800550f4     libucrt:fpctrl.obj
 0002:0000f0f4       $unwind$common_control87$filt$0 00000001800550f4     libucrt:ieee.obj
 0002:0000f0fc       $unwind$?dllmain_crt_process_detach@@YAH_N@Z 00000001800550fc     LIBCMT:dll_dllmain.obj
 0002:0000f150       $unwind$?dllmain_dispatch@@YAHQEAUHINSTANCE__@@KQEAX@Z 0000000180055150     LIBCMT:dll_dllmain.obj
 0002:0000f178       $unwind$?filt$0@?0??dllmain_dispatch@@YAHQEAUHINSTANCE__@@KQEAX@Z@4HA 0000000180055178     LIBCMT:dll_dllmain.obj
 0002:0000f178       $unwind$?filt$0@?0??FrameUnwindToState@__FrameHandler4@@SAXPEA_KPEAU_xDISPATCHER_CONTEXT@@PEAUFuncInfo4@FH4@@H@Z@4HA 0000000180055178     libvcruntime:frame.obj
 0002:0000f178       $unwind$?fin$1@?0??FrameUnwindToState@__FrameHandler4@@SAXPEA_KPEAU_xDISPATCHER_CONTEXT@@PEAUFuncInfo4@FH4@@H@Z@4HA 0000000180055178     libvcruntime:frame.obj
 0002:0000f180       $unwind$__isa_available_init 0000000180055180     LIBCMT:cpu_disp.obj
 0002:0000f190       $xdatasym                  0000000180055190     LIBCMT:svml_ssinf4_sse2.obj
 0002:0000f1c8       $xdatasym                  00000001800551c8     LIBCMT:svml_ssinf4_sse4.obj
 0002:0000f1fc       $unwind$__security_init_cookie 00000001800551fc     LIBCMT:gs_support.obj
 0002:0000f208       $unwind$__scrt_is_nonwritable_in_current_image 0000000180055208     LIBCMT:utility.obj
 0002:0000f228       $unwind$__scrt_is_nonwritable_in_current_image$filt$0 0000000180055228     LIBCMT:utility.obj
 0002:0000f230       $unwind$__scrt_fastfail    0000000180055230     LIBCMT:utility_desktop.obj
 0002:0000f240       $xdatasym                  0000000180055240     LIBCMT:guard_dispatch.obj
 0002:0000f248       $xdatasym                  0000000180055248     LIBCMT:guard_xfg_dispatch.obj
 0002:0000f250       $xdatasym                  0000000180055250     LIBCMT:svml_s_sin_cout.obj
 0002:0000f258       $unwind$__C_specific_handler 0000000180055258     libvcruntime:riscchandler.obj
 0002:0000f258       $unwind$__std_type_info_name 0000000180055258     libvcruntime:std_type_info.obj
 0002:0000f278       $xdatasym                  0000000180055278     libvcruntime:memset.obj
 0002:0000f288       $xdatasym                  0000000180055288     libvcruntime:memcpy.obj
 0002:0000f298       $unwind$__DestructExceptionObject 0000000180055298     libvcruntime:ehhelpers.obj
 0002:0000f2b8       $unwind$__DestructExceptionObject$filt$0 00000001800552b8     libvcruntime:ehhelpers.obj
 0002:0000f2b8       $unwind$?fin$1@?0??CxxCallCatchBlock@__FrameHandler4@@SAPEAXPEAU_EXCEPTION_RECORD@@@Z@4HA 00000001800552b8     libvcruntime:frame.obj
 0002:0000f2c4       $unwind$__unDNameEx        00000001800552c4     libvcruntime:undname.obj
 0002:0000f2f4       $unwind$sprintf_s          00000001800552f4     libvcruntime:undname.obj
 0002:0000f304       $unwind$??0DName@@QEAA@_J@Z 0000000180055304     libvcruntime:undname.obj
 0002:0000f304       $unwind$??0DName@@QEAA@_K@Z 0000000180055304     libvcruntime:undname.obj
 0002:0000f314       $unwind$?doPchar@DName@@AEAAXD@Z 0000000180055314     libvcruntime:undname.obj
 0002:0000f320       $unwind$?getDecoratedName@UnDecorator@@CA?AVDName@@XZ 0000000180055320     libvcruntime:undname.obj
 0002:0000f340       $cppxdata$?getDecoratedName@UnDecorator@@CA?AVDName@@XZ 0000000180055340     libvcruntime:undname.obj
 0002:0000f349       $stateUnwindMap$?getDecoratedName@UnDecorator@@CA?AVDName@@XZ 0000000180055349     libvcruntime:undname.obj
 0002:0000f350       $ip2state$?getDecoratedName@UnDecorator@@CA?AVDName@@XZ 0000000180055350     libvcruntime:undname.obj
 0002:0000f358       $unwind$?getZName@UnDecorator@@CA?AVDName@@_N0@Z 0000000180055358     libvcruntime:undname.obj
 0002:0000f37c       $unwind$?getOperatorName@UnDecorator@@CA?AVDName@@_NPEA_N@Z 000000018005537c     libvcruntime:undname.obj
 0002:0000f398       $unwind$?getScope@UnDecorator@@CA?AVDName@@XZ 0000000180055398     libvcruntime:undname.obj
 0002:0000f3b4       $unwind$?getScopedName@UnDecorator@@CA?AVDName@@XZ 00000001800553b4     libvcruntime:undname.obj
 0002:0000f3c4       $unwind$?getSignedDimension@UnDecorator@@CA?AVDName@@XZ 00000001800553c4     libvcruntime:undname.obj
 0002:0000f3c4       $unwind$_mbsdec_l          00000001800553c4     libucrt:mbsdec.obj
 0002:0000f3d0       $unwind$?getDimension@UnDecorator@@CA?AVDName@@_N@Z 00000001800553d0     libvcruntime:undname.obj
 0002:0000f3e8       $unwind$?getFloatingPoint@UnDecorator@@CA?AVDName@@H@Z 00000001800553e8     libvcruntime:undname.obj
 0002:0000f404       $unwind$?getValueObject@UnDecorator@@CA?AVDName@@XZ 0000000180055404     libvcruntime:undname.obj
 0002:0000f410       $unwind$?getPointerToMember@UnDecorator@@CA?AVDName@@XZ 0000000180055410     libvcruntime:undname.obj
 0002:0000f41c       $unwind$?getTemplateName@UnDecorator@@CA?AVDName@@_N@Z 000000018005541c     libvcruntime:undname.obj
 0002:0000f438       $unwind$?getTemplateArgumentList@UnDecorator@@CA?AVDName@@XZ 0000000180055438     libvcruntime:undname.obj
 0002:0000f458       $unwind$?getTemplateNonTypeArgument@UnDecorator@@CA?AVDName@@XZ 0000000180055458     libvcruntime:undname.obj
 0002:0000f478       $unwind$?getTemplateTypeArgument@UnDecorator@@CA?AVDName@@XZ 0000000180055478     libvcruntime:undname.obj
 0002:0000f490       $unwind$?composeDeclaration@UnDecorator@@CA?AVDName@@AEBV2@@Z 0000000180055490     libvcruntime:undname.obj
 0002:0000f4ac       $unwind$?getArgumentTypes@UnDecorator@@CA?AVDName@@XZ 00000001800554ac     libvcruntime:undname.obj
 0002:0000f4ac       $unwind$?getBasedType@UnDecorator@@CA?AVDName@@XZ 00000001800554ac     libvcruntime:undname.obj
 0002:0000f4ac       $unwind$?getEnumType@UnDecorator@@CA?AVDName@@XZ 00000001800554ac     libvcruntime:undname.obj
 0002:0000f4b8       $unwind$?getCallingConvention@UnDecorator@@CA?AVDName@@XZ 00000001800554b8     libvcruntime:undname.obj
 0002:0000f4c8       $unwind$?getDataType@UnDecorator@@CA?AVDName@@PEAV2@@Z 00000001800554c8     libvcruntime:undname.obj
 0002:0000f4d4       $unwind$?getExtendedDataIndirectType@UnDecorator@@CA?AVDName@@AEAW4IndirectionKind@@AEA_NH@Z 00000001800554d4     libvcruntime:undname.obj
 0002:0000f4d4       $unwind$?getPrimaryDataType@UnDecorator@@CA?AVDName@@AEBV2@@Z 00000001800554d4     libvcruntime:undname.obj
 0002:0000f4d4       $unwind$?getPtrRefDataType@UnDecorator@@CA?AVDName@@AEBV2@H@Z 00000001800554d4     libvcruntime:undname.obj
 0002:0000f4e4       $unwind$?getDataIndirectType@UnDecorator@@CA?AVDName@@AEBV2@W4IndirectionKind@@0H@Z 00000001800554e4     libvcruntime:undname.obj
 0002:0000f504       $unwind$?getBasicDataType@UnDecorator@@CA?AVDName@@AEBV2@@Z 0000000180055504     libvcruntime:undname.obj
 0002:0000f51c       $unwind$?getECSUDataType@UnDecorator@@CA?AVDName@@XZ 000000018005551c     libvcruntime:undname.obj
 0002:0000f52c       $unwind$?getPtrRefType@UnDecorator@@CA?AVDName@@AEBV2@0W4IndirectionKind@@@Z 000000018005552c     libvcruntime:undname.obj
 0002:0000f544       $unwind$?getArrayType@UnDecorator@@CA?AVDName@@AEBV2@@Z 0000000180055544     libvcruntime:undname.obj
 0002:0000f55c       $unwind$?getFunctionIndirectType@UnDecorator@@CA?AVDName@@AEBV2@@Z 000000018005555c     libvcruntime:undname.obj
 0002:0000f57c       $unwind$?getArgumentList@UnDecorator@@CA?AVDName@@XZ 000000018005557c     libvcruntime:undname.obj
 0002:0000f57c       $unwind$?fp_format_e@@YAHQEBNQEAD_K12H_NIQEAU__crt_locale_pointers@@W4__acrt_rounding_mode@@@Z 000000018005557c     libucrt:cvt.obj
 0002:0000f57c       $unwind$_mbtowc_l          000000018005557c     libucrt:mbtowc.obj
 0002:0000f57c       $unwind$__acrt_LCMapStringEx 000000018005557c     libucrt:winapi_thunks.obj
 0002:0000f590       $unwind$?getRestrictionSpec@UnDecorator@@CA?AVDName@@XZ 0000000180055590     libvcruntime:undname.obj
 0002:0000f5a4       $unwind$?getLexicalFrame@UnDecorator@@CA?AVDName@@XZ 00000001800555a4     libvcruntime:undname.obj
 0002:0000f5a4       $unwind$?parseDecoratedName@UnDecorator@@CA?AVDName@@XZ 00000001800555a4     libvcruntime:undname.obj
 0002:0000f5b0       $unwind$?getExternalDataType@UnDecorator@@CA?AVDName@@AEBV2@@Z 00000001800555b0     libvcruntime:undname.obj
 0002:0000f5c0       $unwind$?getVfTableType@UnDecorator@@CA?AVDName@@AEBV2@@Z 00000001800555c0     libvcruntime:undname.obj
 0002:0000f5d8       $xdatasym                  00000001800555d8     libvcruntime:notify.obj
 0002:0000f5e4       $unwind$?DecompFuncInfo@FH4@@YA_JPEAEAEAUFuncInfo4@1@_KH_N@Z 00000001800555e4     libvcruntime:risctrnsctrl.obj
 0002:0000f5fc       $unwind$?UnwindNestedFrames@__FrameHandler4@@SAXPEA_KPEAUEHExceptionRecord@@PEAU_CONTEXT@@0PEAXPEAUFuncInfo4@FH4@@HHPEAUHandlerType4@5@PEAU_xDISPATCHER_CONTEXT@@E@Z 00000001800555fc     libvcruntime:risctrnsctrl.obj
 0002:0000f610       $unwind$?GetRangeOfTrysToCheck@__FrameHandler4@@SA?AU?$pair@Viterator@TryBlockMap4@FH4@@V123@@std@@AEAVTryBlockMap4@FH4@@HPEAU_xDISPATCHER_CONTEXT@@PEAUFuncInfo4@5@H@Z 0000000180055610     libvcruntime:risctrnsctrl.obj
 0002:0000f62c       $unwind$__CxxFrameHandler4 000000018005562c     libvcruntime:risctrnsctrl.obj
 0002:0000f640       $unwind$??$_CallSETranslator@V__FrameHandler4@@@@YAHPEAUEHExceptionRecord@@PEA_KPEAU_CONTEXT@@PEAU_xDISPATCHER_CONTEXT@@PEAUFuncInfo4@FH4@@K1H@Z 0000000180055640     libvcruntime:risctrnsctrl.obj
 0002:0000f660       $unwind$?filt$0@?0???$_CallSETranslator@V__FrameHandler4@@@@YAHPEAUEHExceptionRecord@@PEA_KPEAU_CONTEXT@@PEAU_xDISPATCHER_CONTEXT@@PEAUFuncInfo4@FH4@@K1H@Z@4HA 0000000180055660     libvcruntime:risctrnsctrl.obj
 0002:0000f66c       $unwind$?try_get_function@@YAPEAXW4function_id@?A0xf6f43728@@QEBDQEBW4module_id@2@2@Z 000000018005566c     libvcruntime:winapi_downlevel.obj
 0002:0000f66c       $unwind$?try_get_function@@YAPEAXW4function_id@?A0x391cf84c@@QEBDQEBW4module_id@2@2@Z 000000018005566c     libucrt:winapi_thunks.obj
 0002:0000f688       $unwind$?StateFromIp@__FrameHandler4@@SAHPEAUFuncInfo4@FH4@@PEAU_xDISPATCHER_CONTEXT@@_K@Z 0000000180055688     libvcruntime:ehstate.obj
 0002:0000f69c       $unwind$?getStartStop@UWMap4@FH4@@QEAAXHHAEAViterator@12@0@Z 000000018005569c     libvcruntime:frame.obj
 0002:0000f6b4       $unwind$?FrameUnwindToState@__FrameHandler4@@SAXPEA_KPEAU_xDISPATCHER_CONTEXT@@PEAUFuncInfo4@FH4@@H@Z 00000001800556b4     libvcruntime:frame.obj
 0002:0000f6fc       $unwind$?CxxCallCatchBlock@__FrameHandler4@@SAPEAXPEAU_EXCEPTION_RECORD@@@Z 00000001800556fc     libvcruntime:frame.obj
 0002:0000f758       $unwind$?IsInExceptionSpec@@YAEPEAUEHExceptionRecord@@PEBU_s_ESTypeList@@@Z 0000000180055758     libvcruntime:frame.obj
 0002:0000f774       $unwind$??$__InternalCxxFrameHandler@V__FrameHandler4@@@@YA?AW4_EXCEPTION_DISPOSITION@@PEAUEHExceptionRecord@@PEA_KPEAU_CONTEXT@@PEAU_xDISPATCHER_CONTEXT@@PEAUFuncInfo4@FH4@@H1E@Z 0000000180055774     libvcruntime:frame.obj
 0002:0000f78c       $unwind$__GSHandlerCheck_SEH 000000018005578c     LIBCMT:gshandlerseh.obj
 0002:0000f78c       $unwind$??$TypeMatchHelper@V__FrameHandler3@@@@YAHPEBU_s_HandlerType@@PEBU_s_CatchableType@@PEBU_s_ThrowInfo@@@Z 000000018005578c     libvcruntime:frame.obj
 0002:0000f78c       $unwind$??$TypeMatchHelper@V__FrameHandler4@@@@YAHPEAUHandlerType4@FH4@@PEBU_s_CatchableType@@PEBU_s_ThrowInfo@@@Z 000000018005578c     libvcruntime:frame.obj
 0002:0000f78c       $unwind$?initialize_stdio_handles_nolock@@YAXXZ 000000018005578c     libucrt:ioinit.obj
 0002:0000f78c       $unwind$__acrt_initialize_stdio 000000018005578c     libucrt:_file.obj
 0002:0000f78c       $unwind$?type_case_integer@?$output_processor@DV?$string_output_adapter@D@__crt_stdio_output@@V?$format_validation_base@DV?$string_output_adapter@D@__crt_stdio_output@@@2@@__crt_stdio_output@@AEAA_NI_N@Z 000000018005578c     libucrt:output.obj
 0002:0000f7a4       $unwind$??$BuildCatchObjectHelperInternal@V__FrameHandler4@@@@YAHPEAUEHExceptionRecord@@PEAXPEAUHandlerType4@FH4@@PEBU_s_CatchableType@@@Z 00000001800557a4     libvcruntime:frame.obj
 0002:0000f7e4       $unwind$??$BuildCatchObjectInternal@V__FrameHandler4@@@@YAXPEAUEHExceptionRecord@@PEAXPEAUHandlerType4@FH4@@PEBU_s_CatchableType@@@Z 00000001800557e4     libvcruntime:frame.obj
 0002:0000f810       $unwind$??$FindHandler@V__FrameHandler4@@@@YAXPEAUEHExceptionRecord@@PEA_KPEAU_CONTEXT@@PEAU_xDISPATCHER_CONTEXT@@PEAUFuncInfo4@FH4@@EH1@Z 0000000180055810     libvcruntime:frame.obj
 0002:0000f830       $unwind$??$CatchIt@V__FrameHandler4@@@@YAXPEAUEHExceptionRecord@@PEA_KPEAU_CONTEXT@@PEAU_xDISPATCHER_CONTEXT@@PEAUFuncInfo4@FH4@@PEAUHandlerType4@4@PEBU_s_CatchableType@@PEAUTryBlockMapEntry4@4@H1EE@Z 0000000180055830     libvcruntime:frame.obj
 0002:0000f848       $unwind$??$FindHandlerForForeignException@V__FrameHandler4@@@@YAXPEAUEHExceptionRecord@@PEA_KPEAU_CONTEXT@@PEAU_xDISPATCHER_CONTEXT@@PEAUFuncInfo4@FH4@@HH1@Z 0000000180055848     libvcruntime:frame.obj
 0002:0000f868       $xdatasym                  0000000180055868     libvcruntime:handlers.obj
 0002:0000f888       $unwind$_CxxThrowException 0000000180055888     libvcruntime:throw.obj
 0002:0000f898       $xdatasym                  0000000180055898     libucrt:strcmp.obj
 0002:0000f89c       $unwind$atan2f             000000018005589c     libucrt:atan2f.obj
 0002:0000f8c0       $xdatasym                  00000001800558c0     libucrt:cosf.obj
 0002:0000f8c8       $xdatasym                  00000001800558c8     libucrt:sinf.obj
 0002:0000f8d0       $unwind$?common_exit@@YAXHW4_crt_exit_cleanup_mode@@W4_crt_exit_return_mode@@@Z 00000001800558d0     libucrt:exit.obj
 0002:0000f8dc       $unwind$??R<lambda_6e4b09c48022b2350581041d5f6b0c4c>@@QEBA@XZ 00000001800558dc     libucrt:exit.obj
 0002:0000f8fc       $unwind$??$?RV<lambda_d80eeec6fff315bfe5c115232f3240e3>@@AEAV<lambda_6e4b09c48022b2350581041d5f6b0c4c>@@V<lambda_2358e3775559c9db80273638284d5e45>@@@?$__crt_seh_guarded_call@X@@QEAAX$$QEAV<lambda_d80eeec6fff315bfe5c115232f3240e3>@@AEAV<lambda_6e4b09c48022b2350581041d5f6b0c4c>@@$$QEAV<lambda_2358e3775559c9db80273638284d5e45>@@@Z 00000001800558fc     libucrt:exit.obj
 0002:0000f920       $unwind$_configure_narrow_argv 0000000180055920     libucrt:argv_parsing.obj
 0002:0000f934       $unwind$?should_round_up@@YA_NQEBN_KFW4__acrt_rounding_mode@@@Z 0000000180055934     libucrt:cvt.obj
 0002:0000f934       $unwind$??$parse_command_line@D@@YAXPEADPEAPEAD0PEA_K2@Z 0000000180055934     libucrt:argv_parsing.obj
 0002:0000f950       $unwind$??$free_environment@D@@YAXQEAPEAD@Z 0000000180055950     libucrt:environment_initialization.obj
 0002:0000f950       $unwind$??$free_environment@_W@@YAXQEAPEA_W@Z 0000000180055950     libucrt:environment_initialization.obj
 0002:0000f95c       $unwind$??$create_environment@D@@YAQEAPEADQEAD@Z 000000018005595c     libucrt:environment_initialization.obj
 0002:0000f974       $unwind$_execute_onexit_table 0000000180055974     libucrt:onexit.obj
 0002:0000f97c       $unwind$__acrt_fp_strflt_to_string 000000018005597c     libucrt:_fptostr.obj
 0002:0000f97c       $unwind$__acrt_DownlevelLocaleNameToLCID 000000018005597c     libucrt:lcidtoname_downlevel.obj
 0002:0000f97c       $unwind$??R<lambda_f03950bc5685219e0bcd2087efbe011e>@@QEBAHXZ 000000018005597c     libucrt:onexit.obj
 0002:0000f994       $unwind$??$?RV<lambda_7777bce6b2f8c936911f934f8298dc43>@@AEAV<lambda_f03950bc5685219e0bcd2087efbe011e>@@V<lambda_3883c3dff614d5e0c5f61bb1ac94921c>@@@?$__crt_seh_guarded_call@H@@QEAAH$$QEAV<lambda_7777bce6b2f8c936911f934f8298dc43>@@AEAV<lambda_f03950bc5685219e0bcd2087efbe011e>@@$$QEAV<lambda_3883c3dff614d5e0c5f61bb1ac94921c>@@@Z 0000000180055994     libucrt:onexit.obj
 0002:0000f9b8       $unwind$terminate          00000001800559b8     libucrt:terminate.obj
 0002:0000f9d8       $unwind$?write_string@?$string_output_adapter@D@__crt_stdio_output@@QEBAXQEBDHQEAHAEAV__crt_deferred_errno_cache@@@Z 00000001800559d8     libucrt:output.obj
 0002:0000f9f0       $unwind$??$common_vsprintf@Vformat_validation_base@__crt_stdio_output@@D@@YAH_KQEAD0QEBDQEAU__crt_locale_pointers@@1@Z 00000001800559f0     libucrt:output.obj
 0002:0000fa10       $unwind$??$write_multiple_characters@V?$string_output_adapter@D@__crt_stdio_output@@D@__crt_stdio_output@@YAXAEBV?$string_output_adapter@D@0@DHQEAH@Z 0000000180055a10     libucrt:output.obj
 0002:0000fa1c       $unwind$?parse_int_from_format_string@?$output_processor@DV?$string_output_adapter@D@__crt_stdio_output@@V?$format_validation_base@DV?$string_output_adapter@D@__crt_stdio_output@@@2@@__crt_stdio_output@@AEAA_NQEAH@Z 0000000180055a1c     libucrt:output.obj
 0002:0000fa30       $unwind$?state_case_type@?$output_processor@DV?$string_output_adapter@D@__crt_stdio_output@@V?$format_validation_base@DV?$string_output_adapter@D@__crt_stdio_output@@@2@@__crt_stdio_output@@AEAA_NXZ 0000000180055a30     libucrt:output.obj
 0002:0000fa48       $unwind$?type_case_a@?$output_processor@DV?$string_output_adapter@D@__crt_stdio_output@@V?$format_validation_base@DV?$string_output_adapter@D@__crt_stdio_output@@@2@@__crt_stdio_output@@AEAA_NXZ 0000000180055a48     libucrt:output.obj
 0002:0000fa54       $unwind$?write_stored_string_tchar@?$output_processor@DV?$string_output_adapter@D@__crt_stdio_output@@V?$format_validation_base@DV?$string_output_adapter@D@__crt_stdio_output@@@2@@__crt_stdio_output@@AEAA_ND@Z 0000000180055a54     libucrt:output.obj
 0002:0000fa6c       $unwind$??$type_case_integer_parse_into_buffer@I@?$output_processor@DV?$string_output_adapter@D@__crt_stdio_output@@V?$format_validation_base@DV?$string_output_adapter@D@__crt_stdio_output@@@2@@__crt_stdio_output@@AEAAXII_N@Z 0000000180055a6c     libucrt:output.obj
 0002:0000fa6c       $unwind$??$type_case_integer_parse_into_buffer@_K@?$output_processor@DV?$string_output_adapter@D@__crt_stdio_output@@V?$format_validation_base@DV?$string_output_adapter@D@__crt_stdio_output@@@2@@__crt_stdio_output@@AEAAX_KI_N@Z 0000000180055a6c     libucrt:output.obj
 0002:0000fa74       $unwind$??$parse_integer@KV?$c_string_character_source@D@__crt_strtox@@@__crt_strtox@@YAKQEAU__crt_locale_pointers@@V?$c_string_character_source@D@0@H_N@Z 0000000180055a74     libucrt:atox.obj
 0002:0000fa90       $xdatasym                  0000000180055a90     libucrt:strncmp.obj
 0002:0000fa94       $unwind$_ctrlfp            0000000180055a94     libucrt:fpctrl.obj
 0002:0000fabc       $unwind$_call_matherr      0000000180055abc     libucrt:libm_error.obj
 0002:0000fac4       $unwind$_handle_error      0000000180055ac4     libucrt:libm_error.obj
 0002:0000fac4       $unwind$_handle_errorf     0000000180055ac4     libucrt:libm_error.obj
 0002:0000fae8       $xdatasym                  0000000180055ae8     libucrt:remainder_piby2f_forasm.obj
 0002:0000faf0       $xdatasym                  0000000180055af0     libucrt:remainder_piby2_forfma3.obj
 0002:0000fafc       $unwind$_sincosf_special   0000000180055afc     libucrt:sincos_special.obj
 0002:0000fb04       $unwind$__acrt_initialize_fma3 0000000180055b04     libucrt:fma3_available.obj
 0002:0000fb10       $xdatasym                  0000000180055b10     libucrt:remainder_piby2f_forc.obj
 0002:0000fb20       $unwind$_free_base         0000000180055b20     libucrt:free_base.obj
 0002:0000fb20       $unwind$?destroy_fls@@YAXPEAX@Z 0000000180055b20     libucrt:per_thread_data.obj
 0002:0000fb20       $unwind$__acrt_locale_free_numeric 0000000180055b20     libucrt:initnum.obj
 0002:0000fb20       $unwind$__acrt_locale_free_lc_time_if_unreferenced 0000000180055b20     libucrt:locale_refcounting.obj
 0002:0000fb28       $unwind$?construct_ptd_array@@YAXQEAU__acrt_ptd@@@Z 0000000180055b28     libucrt:per_thread_data.obj
 0002:0000fb30       $unwind$?destroy_ptd_array@@YAXQEAU__acrt_ptd@@@Z 0000000180055b30     libucrt:per_thread_data.obj
 0002:0000fb38       $unwind$??$?RV<lambda_0ae27a3a962d80f24befdcbee591983d>@@AEAV<lambda_8d0ee55de4b1038c4002e0adecdf1839>@@V<lambda_dc504788e8f1664fe9b84e20bfb512f2>@@@?$__crt_seh_guarded_call@X@@QEAAX$$QEAV<lambda_0ae27a3a962d80f24befdcbee591983d>@@AEAV<lambda_8d0ee55de4b1038c4002e0adecdf1839>@@$$QEAV<lambda_dc504788e8f1664fe9b84e20bfb512f2>@@@Z 0000000180055b38     libucrt:per_thread_data.obj
 0002:0000fb5c       $unwind$??$?RV<lambda_aa87e3671a710a21b5dc78c0bdf72e11>@@AEAV<lambda_92619d2358a28f41a33ba319515a20b9>@@V<lambda_6992ecaafeb10aed2b74cb1fae11a551>@@@?$__crt_seh_guarded_call@X@@QEAAX$$QEAV<lambda_aa87e3671a710a21b5dc78c0bdf72e11>@@AEAV<lambda_92619d2358a28f41a33ba319515a20b9>@@$$QEAV<lambda_6992ecaafeb10aed2b74cb1fae11a551>@@@Z 0000000180055b5c     libucrt:per_thread_data.obj
 0002:0000fb80       $unwind$??$?RV<lambda_f2e299630e499de9f9a165e60fcd3db5>@@AEAV<lambda_2ae9d31cdba2644fcbeaf08da7c24588>@@V<lambda_40d01ff24d0e7b3814fdbdcee8eab3c7>@@@?$__crt_seh_guarded_call@X@@QEAAX$$QEAV<lambda_f2e299630e499de9f9a165e60fcd3db5>@@AEAV<lambda_2ae9d31cdba2644fcbeaf08da7c24588>@@$$QEAV<lambda_40d01ff24d0e7b3814fdbdcee8eab3c7>@@@Z 0000000180055b80     libucrt:per_thread_data.obj
 0002:0000fba4       $unwind$??$?RV<lambda_2d41944a1d46af3157314b8a01080d33>@@AEAV<lambda_8f455de75cd7d7f24b4096f044d8b9e6>@@V<lambda_aa500f224e6afead328df44964fe2772>@@@?$__crt_seh_guarded_call@X@@QEAAX$$QEAV<lambda_2d41944a1d46af3157314b8a01080d33>@@AEAV<lambda_8f455de75cd7d7f24b4096f044d8b9e6>@@$$QEAV<lambda_aa500f224e6afead328df44964fe2772>@@@Z 0000000180055ba4     libucrt:per_thread_data.obj
 0002:0000fbc8       $unwind$__acrt_call_reportfault 0000000180055bc8     libucrt:invalid_parameter.obj
 0002:0000fbe8       $unwind$_invalid_parameter 0000000180055be8     libucrt:invalid_parameter.obj
 0002:0000fbfc       $unwind$??$__acrt_mbs_to_wcs_cp@U__crt_win32_buffer_internal_dynamic_resizing@@@@YAHQEBDAEAV?$__crt_win32_buffer@_WU__crt_win32_buffer_internal_dynamic_resizing@@@@I@Z 0000000180055bfc     libucrt:argv_wildcards.obj
 0002:0000fc14       $unwind$__dcrt_get_narrow_environment_from_os 0000000180055c14     libucrt:get_environment_from_os.obj
 0002:0000fc14       $unwind$?fp_format_f_internal@@YAHQEAD_KHQEAU_strflt@@_NQEAU__crt_locale_pointers@@@Z 0000000180055c14     libucrt:cvt.obj
 0002:0000fc14       $unwind$??$__acrt_wcs_to_mbs_cp@U__crt_win32_buffer_internal_dynamic_resizing@@@@YAHQEB_WAEAV?$__crt_win32_buffer@DU__crt_win32_buffer_internal_dynamic_resizing@@@@I@Z 0000000180055c14     libucrt:argv_wildcards.obj
 0002:0000fc2c       $unwind$??$common_expand_argv_wildcards@D@@YAHQEAPEADQEAPEAPEAD@Z 0000000180055c2c     libucrt:argv_wildcards.obj
 0002:0000fc44       $unwind$??$expand_argument_wildcards@D@@YAHQEAD0AEAV?$argument_list@D@?A0x5f5c8891@@@Z 0000000180055c44     libucrt:argv_wildcards.obj
 0002:0000fc68       $unwind$__acrt_GetModuleFileNameA 0000000180055c68     libucrt:getmodulefilenamea.obj
 0002:0000fc84       $unwind$__dcrt_write_console 0000000180055c84     libucrt:initcon.obj
 0002:0000fc84       $unwind$??$__acrt_wcs_to_mbs_cp@U__crt_win32_buffer_no_resizing@@@@YAHQEB_WAEAV?$__crt_win32_buffer@DU__crt_win32_buffer_no_resizing@@@@I@Z 0000000180055c84     libucrt:getmodulefilenamea.obj
 0002:0000fc98       $unwind$_setmbcp_nolock    0000000180055c98     libucrt:mbctype.obj
 0002:0000fcb8       $unwind$?update_thread_multibyte_data_internal@@YAPEAU__crt_multibyte_data@@QEAU__acrt_ptd@@QEAPEAU1@@Z 0000000180055cb8     libucrt:mbctype.obj
 0002:0000fce0       $unwind$?setmbcp_internal@@YAHH_NQEAU__acrt_ptd@@QEAPEAU__crt_multibyte_data@@@Z 0000000180055ce0     libucrt:mbctype.obj
 0002:0000fcf0       $unwind$?setSBUpLow@@YAXPEAU__crt_multibyte_data@@@Z 0000000180055cf0     libucrt:mbctype.obj
 0002:0000fd0c       $unwind$??$?RV<lambda_efdfa57d1f175319df784efa44bb7b81>@@AEAV<lambda_5f0a4c1567f8adc6734073e5d1e1b35c>@@V<lambda_2e8a7d3640ea6ccb4c2413664c2db6fd>@@@?$__crt_seh_guarded_call@X@@QEAAX$$QEAV<lambda_efdfa57d1f175319df784efa44bb7b81>@@AEAV<lambda_5f0a4c1567f8adc6734073e5d1e1b35c>@@$$QEAV<lambda_2e8a7d3640ea6ccb4c2413664c2db6fd>@@@Z 0000000180055d0c     libucrt:mbctype.obj
 0002:0000fd30       $unwind$?x_ismbbtype_l@@YAHPEAU__crt_locale_pointers@@IHH@Z 0000000180055d30     libucrt:ismbbyte.obj
 0002:0000fd40       $unwind$__acrt_WideCharToMultiByte 0000000180055d40     libucrt:widechartomultibyte.obj
 0002:0000fd4c       $unwind$__acrt_initialize_winapi_thunks 0000000180055d4c     libucrt:winapi_thunks.obj
 0002:0000fd54       $unwind$__acrt_initialize_lowio 0000000180055d54     libucrt:ioinit.obj
 0002:0000fd74       $unwind$?initialize_inherited_file_handles_nolock@@YAXXZ 0000000180055d74     libucrt:ioinit.obj
 0002:0000fd90       $unwind$_query_new_handler 0000000180055d90     libucrt:new_handler.obj
 0002:0000fdb0       $unwind$__acrt_uninitialize_locale 0000000180055db0     libucrt:wsetlocale.obj
 0002:0000fdb0       $unwind$__acrt_get_sigabrt_handler 0000000180055db0     libucrt:signal.obj
 0002:0000fdb8       $unwind$raise              0000000180055db8     libucrt:signal.obj
 0002:0000fdf4       $unwind$??$?RV<lambda_450d765d439847d4c735a33c368b5fc0>@@AEAV<lambda_44731a7d0e6d81c3e6aa82d741081786>@@V<lambda_601a2a7da3b7a96e9554ac7215c4b07c>@@@?$__crt_seh_guarded_call@P6AXH@Z@@QEAAP6AXH@Z$$QEAV<lambda_450d765d439847d4c735a33c368b5fc0>@@AEAV<lambda_44731a7d0e6d81c3e6aa82d741081786>@@$$QEAV<lambda_601a2a7da3b7a96e9554ac7215c4b07c>@@@Z 0000000180055df4     libucrt:signal.obj
 0002:0000fe18       $unwind$?common_flush_all@@YAH_N@Z 0000000180055e18     libucrt:fflush.obj
 0002:0000fe20       $unwind$??$?RV<lambda_842d9ff0dc9ef11c61343bbaebe7f885>@@AEAV<lambda_c5860995281e5c4ce005b3de8f5874ee>@@V<lambda_d90129c13df834fdcbf8d2b88dafcf2d>@@@?$__crt_seh_guarded_call@X@@QEAAX$$QEAV<lambda_842d9ff0dc9ef11c61343bbaebe7f885>@@AEAV<lambda_c5860995281e5c4ce005b3de8f5874ee>@@$$QEAV<lambda_d90129c13df834fdcbf8d2b88dafcf2d>@@@Z 0000000180055e20     libucrt:fflush.obj
 0002:0000fe44       $unwind$??$?RV<lambda_886d6c58226a84441f68b9f2b8217b83>@@AEAV<lambda_ab61a845afdef5b7c387490eaf3616ee>@@V<lambda_f7f22ab5edc0698d5f6905b0d3f44752>@@@?$__crt_seh_guarded_call@X@@QEAAX$$QEAV<lambda_886d6c58226a84441f68b9f2b8217b83>@@AEAV<lambda_ab61a845afdef5b7c387490eaf3616ee>@@$$QEAV<lambda_f7f22ab5edc0698d5f6905b0d3f44752>@@@Z 0000000180055e44     libucrt:fflush.obj
 0002:0000fe6c       $unwind$_wctomb_s_l        0000000180055e6c     libucrt:wctomb.obj
 0002:0000fe7c       $unwind$__acrt_fp_format   0000000180055e7c     libucrt:cvt.obj
 0002:0000fe94       $unwind$?fp_format_e_internal@@YAHQEAD_KH_NIQEAU_strflt@@2QEAU__crt_locale_pointers@@@Z 0000000180055e94     libucrt:cvt.obj
 0002:0000feac       $unwind$?fp_format_a@@YAHQEBNPEAD_KQEAD2H_NIQEAU__crt_locale_pointers@@W4__acrt_rounding_mode@@@Z 0000000180055eac     libucrt:cvt.obj
 0002:0000fec8       $unwind$?fp_format_g@@YAHQEBNQEAD_K12H_NIW4__acrt_rounding_mode@@QEAU__crt_locale_pointers@@@Z 0000000180055ec8     libucrt:cvt.obj
 0002:0000fedc       $unwind$??$?RV<lambda_410d79af7f07d98d83a3f525b3859a53>@@AEAV<lambda_3e16ef9562a7dcce91392c22ab16ea36>@@V<lambda_38119f0e861e05405d8a144b9b982f0a>@@@?$__crt_seh_guarded_call@X@@QEAAX$$QEAV<lambda_410d79af7f07d98d83a3f525b3859a53>@@AEAV<lambda_3e16ef9562a7dcce91392c22ab16ea36>@@$$QEAV<lambda_38119f0e861e05405d8a144b9b982f0a>@@@Z 0000000180055edc     libucrt:wsetlocale.obj
 0002:0000ff04       $unwind$_isctype_l         0000000180055f04     libucrt:isctype.obj
 0002:0000ff20       $xdatasym                  0000000180055f20     libucrt:fpsr.obj
 0002:0000ff28       $unwind$_raise_exc_ex      0000000180055f28     libucrt:fpexcept.obj
 0002:0000ff3c       $unwind$__acrt_update_thread_locale_data 0000000180055f3c     libucrt:locale_refcounting.obj
 0002:0000ff60       $unwind$qsort              0000000180055f60     libucrt:qsort.obj
 0002:0000ff78       $chain$4$qsort             0000000180055f78     libucrt:qsort.obj
 0002:0000ff9c       $chain$5$qsort             0000000180055f9c     libucrt:qsort.obj
 0002:0000ffac       $unwind$strpbrk            0000000180055fac     libucrt:strpbrk.obj
 0002:0000ffbc       $unwind$fallbackMethod     0000000180055fbc     libucrt:strpbrk.obj
 0002:0000ffcc       $unwind$__acrt_GetStringTypeA 0000000180055fcc     libucrt:getstringtypea.obj
 0002:0000fff4       $unwind$__acrt_LCMapStringA 0000000180055ff4     libucrt:lcmapstringa.obj
 0002:00010004       $unwind$?__acrt_LCMapStringA_stat@@YAHPEAU__crt_locale_pointers@@PEB_WKPEBDHPEADHHH@Z 0000000180056004     libucrt:lcmapstringa.obj
 0002:0001002c       $unwind$__acrt_lowio_destroy_handle_array 000000018005602c     libucrt:osfinfo.obj
 0002:0001003c       $unwind$__acrt_lowio_ensure_fh_exists 000000018005603c     libucrt:osfinfo.obj
 0002:00010068       $unwind$_close             0000000180056068     libucrt:close.obj
 0002:00010068       $unwind$_commit            0000000180056068     libucrt:commit.obj
 0002:00010070       $unwind$??$?RV<lambda_a37b2b86f63e897a80ea819b0eb08c01>@@AEAV<lambda_38ce7e780aa69e748d6df282ebc68efe>@@V<lambda_99fb1378e971ab6e7edea83e3a7a83a2>@@@?$__crt_seh_guarded_call@H@@QEAAH$$QEAV<lambda_a37b2b86f63e897a80ea819b0eb08c01>@@AEAV<lambda_38ce7e780aa69e748d6df282ebc68efe>@@$$QEAV<lambda_99fb1378e971ab6e7edea83e3a7a83a2>@@@Z 0000000180056070     libucrt:commit.obj
 0002:00010094       $unwind$_write             0000000180056094     libucrt:write.obj
 0002:000100c4       $unwind$_write_nolock      00000001800560c4     libucrt:write.obj
 0002:000100dc       $unwind$?write_double_translated_ansi_nolock@@YA?AUwrite_result@?A0x17268360@@HQEBDI@Z 00000001800560dc     libucrt:write.obj
 0002:00010100       $unwind$?write_text_ansi_nolock@@YA?AUwrite_result@?A0x17268360@@HQEBDI@Z 0000000180056100     libucrt:write.obj
 0002:00010100       $unwind$?write_text_utf16le_nolock@@YA?AUwrite_result@?A0x17268360@@HQEBDI@Z 0000000180056100     libucrt:write.obj
 0002:00010120       $unwind$?write_text_utf8_nolock@@YA?AUwrite_result@?A0x17268360@@HQEBDI@Z 0000000180056120     libucrt:write.obj
 0002:00010144       $unwind$_fcloseall         0000000180056144     libucrt:closeall.obj
 0002:00010168       $unwind$?__mbsrtowcs_utf8@__crt_mbstring@@YA_KPEA_WPEAPEBD_KPEAU_Mbstatet@@@Z 0000000180056168     libucrt:mbrtowc.obj
 0002:00010180       $unwind$__acrt_fltout      0000000180056180     libucrt:cfout.obj
 0002:000101a0       $unwind$?divide@__crt_strtox@@YA_KAEAUbig_integer@1@AEBU21@@Z 00000001800561a0     libucrt:cfout.obj
 0002:000101b8       $chain$0$?divide@__crt_strtox@@YA_KAEAUbig_integer@1@AEBU21@@Z 00000001800561b8     libucrt:cfout.obj
 0002:000101cc       $chain$1$?divide@__crt_strtox@@YA_KAEAUbig_integer@1@AEBU21@@Z 00000001800561cc     libucrt:cfout.obj
 0002:000101dc       $unwind$__acrt_locale_free_monetary 00000001800561dc     libucrt:initmon.obj
 0002:000101e4       $unwind$__acrt_locale_free_time 00000001800561e4     libucrt:inittime.obj
 0002:000101f4       $unwind$_putwch_nolock     00000001800561f4     libucrt:putwch.obj
 0002:000101fc       $unwind$fclose             00000001800561fc     libucrt:fclose.obj
 0002:00010220       $unwind$?__mbrtoc32_utf8@__crt_mbstring@@YA_KPEA_UPEBD_KPEAU_Mbstatet@@@Z 0000000180056220     libucrt:mbrtoc32.obj
 0002:00010240       $xdatasym                  0000000180056240     libucrt:log10.obj
 0002:0001024c       $unwind$__acrt_fenv_set_control 000000018005624c     libucrt:_fenvutils.obj
 0002:0001025c       $unwind$??$?RV<lambda_751a882b2c74d4b022dec766aa51a29a>@@AEAV<lambda_628dfdc04ba53c8bfc02c9951375f3f5>@@V<lambda_f6c7be5f7998530c34de24c7437d6b54>@@@?$__crt_seh_guarded_call@H@@QEAAH$$QEAV<lambda_751a882b2c74d4b022dec766aa51a29a>@@AEAV<lambda_628dfdc04ba53c8bfc02c9951375f3f5>@@$$QEAV<lambda_f6c7be5f7998530c34de24c7437d6b54>@@@Z 000000018005625c     libucrt:close.obj
 0002:00010280       $unwind$common_control87   0000000180056280     libucrt:ieee.obj
 0002:000102ac       $unwind$_log_special_common 00000001800562ac     libucrt:log_special.obj
 0002:000102b8       $unwind$_IsNonwritableInCurrentImage 00000001800562b8     LIBCMT:pesect.obj
 0002:000102dc       $unwind$__GSHandlerCheckCommon 00000001800562dc     LIBCMT:gshandler.obj
 0002:000102e8       $xdatasym                  00000001800562e8     LIBCMT:amdsecgs.obj
 0002:000102ec       $unwind$__report_securityfailure 00000001800562ec     LIBCMT:gs_report.obj
 0002:000102f4       $unwind$__report_gsfailure 00000001800562f4     LIBCMT:gs_report.obj
 0002:000102fc       $unwind$capture_current_context 00000001800562fc     LIBCMT:gs_report.obj
 0002:00010308       $unwind$capture_previous_context 0000000180056308     LIBCMT:gs_report.obj
 0002:00010318       $xdatasym                  0000000180056318     libvcruntime:memcmp.obj
 0002:00011070       .edata                     0000000180057070     PhysXCooking_64.exp
 0002:00011098       rgpv                       0000000180057098     PhysXCooking_64.exp
 0002:00011280       rgszName                   0000000180057280     PhysXCooking_64.exp
 0002:00011468       rgwOrd                     0000000180057468     PhysXCooking_64.exp
 0002:0001155c       szName                     000000018005755c     PhysXCooking_64.exp
 0002:00011570       $N00001                    0000000180057570     PhysXCooking_64.exp
 0002:0001159f       $N00002                    000000018005759f     PhysXCooking_64.exp
 0002:000115c6       $N00003                    00000001800575c6     PhysXCooking_64.exp
 0002:00011601       $N00004                    0000000180057601     PhysXCooking_64.exp
 0002:00011628       $N00005                    0000000180057628     PhysXCooking_64.exp
 0002:00011654       $N00006                    0000000180057654     PhysXCooking_64.exp
 0002:00011675       $N00007                    0000000180057675     PhysXCooking_64.exp
 0002:000116aa       $N00008                    00000001800576aa     PhysXCooking_64.exp
 0002:000116c3       $N00009                    00000001800576c3     PhysXCooking_64.exp
 0002:000116e3       $N00010                    00000001800576e3     PhysXCooking_64.exp
 0002:0001170c       $N00011                    000000018005770c     PhysXCooking_64.exp
 0002:00011733       $N00012                    0000000180057733     PhysXCooking_64.exp
 0002:00011762       $N00013                    0000000180057762     PhysXCooking_64.exp
 0002:0001178f       $N00014                    000000018005778f     PhysXCooking_64.exp
 0002:000117c0       $N00015                    00000001800577c0     PhysXCooking_64.exp
 0002:000117e5       $N00016                    00000001800577e5     PhysXCooking_64.exp
 0002:00011810       $N00017                    0000000180057810     PhysXCooking_64.exp
 0002:00011836       $N00018                    0000000180057836     PhysXCooking_64.exp
 0002:00011855       $N00019                    0000000180057855     PhysXCooking_64.exp
 0002:0001188b       $N00020                    000000018005788b     PhysXCooking_64.exp
 0002:000118b5       $N00021                    00000001800578b5     PhysXCooking_64.exp
 0002:000118dc       $N00022                    00000001800578dc     PhysXCooking_64.exp
 0002:00011905       $N00023                    0000000180057905     PhysXCooking_64.exp
 0002:0001191e       $N00024                    000000018005791e     PhysXCooking_64.exp
 0002:00011943       $N00025                    0000000180057943     PhysXCooking_64.exp
 0002:00011962       $N00026                    0000000180057962     PhysXCooking_64.exp
 0002:00011981       $N00027                    0000000180057981     PhysXCooking_64.exp
 0002:000119a1       $N00028                    00000001800579a1     PhysXCooking_64.exp
 0002:000119d7       $N00029                    00000001800579d7     PhysXCooking_64.exp
 0002:00011a0f       $N00030                    0000000180057a0f     PhysXCooking_64.exp
 0002:00011a43       $N00031                    0000000180057a43     PhysXCooking_64.exp
 0002:00011a75       $N00032                    0000000180057a75     PhysXCooking_64.exp
 0002:00011aa2       $N00033                    0000000180057aa2     PhysXCooking_64.exp
 0002:00011aca       $N00034                    0000000180057aca     PhysXCooking_64.exp
 0002:00011afb       $N00035                    0000000180057afb     PhysXCooking_64.exp
 0002:00011b2a       $N00036                    0000000180057b2a     PhysXCooking_64.exp
 0002:00011b5a       $N00037                    0000000180057b5a     PhysXCooking_64.exp
 0002:00011b88       $N00038                    0000000180057b88     PhysXCooking_64.exp
 0002:00011bb9       $N00039                    0000000180057bb9     PhysXCooking_64.exp
 0002:00011bef       $N00040                    0000000180057bef     PhysXCooking_64.exp
 0002:00011c23       $N00041                    0000000180057c23     PhysXCooking_64.exp
 0002:00011c55       $N00042                    0000000180057c55     PhysXCooking_64.exp
 0002:00011c87       $N00043                    0000000180057c87     PhysXCooking_64.exp
 0002:00011cb3       $N00044                    0000000180057cb3     PhysXCooking_64.exp
 0002:00011ccf       $N00045                    0000000180057ccf     PhysXCooking_64.exp
 0002:00011cf9       $N00046                    0000000180057cf9     PhysXCooking_64.exp
 0002:00011d1d       $N00047                    0000000180057d1d     PhysXCooking_64.exp
 0002:00011d4f       $N00048                    0000000180057d4f     PhysXCooking_64.exp
